 ldecod

 Timestamp is 54ae3226 (Thu Jan 08 15:30:46 2015)

 Preferred load address is 00400000

 Start         Length     Name                   Class
 0001:00000000 00094bb9H .textbss                DATA
 0002:00000000 0012e7a5H .text                   CODE
 0002:0012e7b0 00001161H .text$x                 CODE
 0003:00000000 00000104H .CRT$XCA                DATA
 0003:00000104 00000104H .CRT$XCZ                DATA
 0003:00000208 00000104H .CRT$XIA                DATA
 0003:0000030c 00000118H .CRT$XIC                DATA
 0003:00000424 00000104H .CRT$XIY                DATA
 0003:00000528 00000104H .CRT$XIZ                DATA
 0003:0000062c 00000104H .CRT$XPA                DATA
 0003:00000730 00000109H .CRT$XPX                DATA
 0003:0000083c 00000104H .CRT$XPXA               DATA
 0003:00000940 00000104H .CRT$XPZ                DATA
 0003:00000a44 00000104H .CRT$XTA                DATA
 0003:00000b48 00000104H .CRT$XTZ                DATA
 0003:00000c50 00039ab1H .rdata                  DATA
 0003:0003a704 0000015aH .rdata$debug            DATA
 0003:0003a860 0000032fH .rdata$r                DATA
 0003:0003ab90 00000104H .rtc$IAA                DATA
 0003:0003ac94 0000022eH .rtc$IMZ                DATA
 0003:0003aec4 00000104H .rtc$IZZ                DATA
 0003:0003afc8 00000104H .rtc$TAA                DATA
 0003:0003b0cc 0000022eH .rtc$TMZ                DATA
 0003:0003b2fc 00000104H .rtc$TZZ                DATA
 0003:0003b400 00001262H .xdata$x                DATA
 0003:0003c662 00000000H .edata                  DATA
 0004:00000000 00002956H .data                   DATA
 0004:00002960 000060e4H .bss                    DATA
 0005:00000000 00000028H .idata$2                DATA
 0005:00000028 00000014H .idata$3                DATA
 0005:0000003c 00000238H .idata$4                DATA
 0005:00000274 00000238H .idata$5                DATA
 0005:000004ac 000008f0H .idata$6                DATA
 0006:00000000 00000169H .rsrc$01                DATA
 0006:00000170 000002e9H .rsrc$02                DATA

  Address         Publics by Value              Rva+Base       Lib:Object

 0000:00000000       ___safe_se_handler_table   00000000     <absolute>
 0000:00000000       ___safe_se_handler_count   00000000     <absolute>
 0000:00000000       __except_list              00000000     <absolute>
 0000:00000000       ___ImageBase               00400000     <linker-defined>
 0001:00000000       __enc$textbss$begin        00401000     <linker-defined>
 0001:00094bb9       __enc$textbss$end          00495bb9     <linker-defined>
 0002:000047d0       _malloc_annex_b            0049a7d0 f   annexb.obj
 0002:000048b0       _init_annex_b              0049a8b0 f   annexb.obj
 0002:00004940       _free_annex_b              0049a940 f   annexb.obj
 0002:000049c0       _get_annex_b_NALU          0049a9c0 f   annexb.obj
 0002:00005130       _open_annex_b              0049b130 f   annexb.obj
 0002:00005260       _close_annex_b             0049b260 f   annexb.obj
 0002:000052f0       _reset_annex_b             0049b2f0 f   annexb.obj
 0002:00005350       _arideco_create_decoding_environment 0049b350 f   biaridecod.obj
 0002:000053c0       _arideco_delete_decoding_environment 0049b3c0 f   biaridecod.obj
 0002:00005450       _arideco_done_decoding     0049b450 f   biaridecod.obj
 0002:000054a0       _arideco_start_decoding    0049b4a0 f   biaridecod.obj
 0002:00005650       _arideco_bits_read         0049b650 f   biaridecod.obj
 0002:000056a0       _biari_decode_symbol       0049b6a0 f   biaridecod.obj
 0002:000058a0       _biari_decode_symbol_eq_prob 0049b8a0 f   biaridecod.obj
 0002:00005980       _biari_decode_final        0049b980 f   biaridecod.obj
 0002:00005a80       _biari_init_context        0049ba80 f   biaridecod.obj
 0002:00005c10       _compute_residue_p16x16    0049bc10 f   blk_prediction.obj
 0002:000061e0       _compute_residue_p8x8      0049c1e0 f   blk_prediction.obj
 0002:000067b0       _compute_residue_p4x4      0049c7b0 f   blk_prediction.obj
 0002:00006cb0       _sample_reconstruct_p4x4   0049ccb0 f   blk_prediction.obj
 0002:00007060       _sample_reconstruct_p4x4forzero 0049d060 f   blk_prediction.obj
 0002:00007220       _sample_reconstruct_p16x16 0049d220 f   blk_prediction.obj
 0002:00007440       _sample_reconstruct_p8x8   0049d440 f   blk_prediction.obj
 0002:00007660       _sample_reconstruct_p8x8forzero 0049d660 f   blk_prediction.obj
 0002:00007830       _compute_residue           0049d830 f   blk_prediction.obj
 0002:00007930       _sample_reconstruct        0049d930 f   blk_prediction.obj
 0002:00007a80       _itrans4x4                 0049da80 f   block.obj
 0002:00007b80       _itrans4x4_ls              0049db80 f   block.obj
 0002:00007e00       _Inv_Residual_trans_4x4    0049de00 f   block.obj
 0002:00008350       _Inv_Residual_trans_8x8    0049e350 f   block.obj
 0002:00008b70       _Inv_Residual_trans_16x16  0049eb70 f   block.obj
 0002:00008fc0       _Inv_Residual_trans_Chroma 0049efc0 f   block.obj
 0002:00009330       _itrans_2                  0049f330 f   block.obj
 0002:000096c0       _itrans_sp                 0049f6c0 f   block.obj
 0002:00009ff0       _itrans_sp_cr              0049fff0 f   block.obj
 0002:0000abb0       _iMBtrans4x4               004a0bb0 f   block.obj
 0002:0000b0f0       _iMBtrans8x8               004a10f0 f   block.obj
 0002:0000b2e0       _iTransform                004a12e0 f   block.obj
 0002:0000bac0       _copy_image_data_16x16     004a1ac0 f   block.obj
 0002:0000bcb0       _copy_image_data_8x8       004a1cb0 f   block.obj
 0002:0000bea0       _copy_image_data_4x4       004a1ea0 f   block.obj
 0002:0000c030       _CheckVertMV               004a2030 f   block.obj
 0002:0000c110       _copy_image_data           004a2110 f   block.obj
 0002:0000c1e0       _CheckAvailabilityOfNeighborsCABAC 004a21e0 f   cabac.obj
 0002:0000c370       _cabac_new_slice           004a2370 f   cabac.obj
 0002:0000c3b0       _create_contexts_MotionInfo 004a23b0 f   cabac.obj
 0002:0000c420       _create_contexts_TextureInfo 004a2420 f   cabac.obj
 0002:0000c490       _delete_contexts_MotionInfo 004a2490 f   cabac.obj
 0002:0000c4f0       _delete_contexts_TextureInfo 004a24f0 f   cabac.obj
 0002:0000c550       _readFieldModeInfo_CABAC   004a2550 f   cabac.obj
 0002:0000c680       _check_next_mb_and_get_field_mode_CABAC_p_slice 004a2680 f   cabac.obj
 0002:0000cb10       _check_next_mb_and_get_field_mode_CABAC_b_slice 004a2b10 f   cabac.obj
 0002:0000cfd0       _read_MVD_CABAC            004a2fd0 f   cabac.obj
 0002:0000d310       _read_mvd_CABAC_mbaff      004a3310 f   cabac.obj
 0002:0000d770       _readB8_typeInfo_CABAC_p_slice 004a3770 f   cabac.obj
 0002:0000d890       _readB8_typeInfo_CABAC_b_slice 004a3890 f   cabac.obj
 0002:0000dae0       _read_skip_flag_CABAC_p_slice 004a3ae0 f   cabac.obj
 0002:0000dc20       _read_skip_flag_CABAC_b_slice 004a3c20 f   cabac.obj
 0002:0000dd70       _readMB_transform_size_flag_CABAC 004a3d70 f   cabac.obj
 0002:0000de80       _readMB_typeInfo_CABAC_i_slice 004a3e80 f   cabac.obj
 0002:0000e450       _readMB_typeInfo_CABAC_p_slice 004a4450 f   cabac.obj
 0002:0000e6e0       _readMB_typeInfo_CABAC_b_slice 004a46e0 f   cabac.obj
 0002:0000eb30       _readIntraPredMode_CABAC   004a4b30 f   cabac.obj
 0002:0000ec30       _readRefFrame_CABAC        004a4c30 f   cabac.obj
 0002:0000f130       _read_dQuant_CABAC         004a5130 f   cabac.obj
 0002:0000f260       _read_CBP_CABAC            004a5260 f   cabac.obj
 0002:0000f790       _readCIPredMode_CABAC      004a5790 f   cabac.obj
 0002:0000f950       _set_read_and_store_CBP    004a5950 f   cabac.obj
 0002:00012260       _readRunLevel_CABAC        004a8260 f   cabac.obj
 0002:00012940       _readSyntaxElement_CABAC   004a8940 f   cabac.obj
 0002:00012b80       _cabac_startcode_follows   004a8b80 f   cabac.obj
 0002:00012f50       _readIPCM_CABAC            004a8f50 f   cabac.obj
 0002:000132d0       _GetConfigFileContent      004a92d0 f   config_common.obj
 0002:000134a0       _ParseContent              004a94a0 f   config_common.obj
 0002:00013ca0       _InitParams                004a9ca0 f   config_common.obj
 0002:00013d90       _TestParams                004a9d90 f   config_common.obj
 0002:00014260       _DisplayParams             004aa260 f   config_common.obj
 0002:00014400       _JMDecHelpExit             004aa400 f   configfile.obj
 0002:00014470       _ParseCommand              004aa470 f   configfile.obj
 0002:00014f30       _init_contexts             004aaf30 f   context_ini.obj
 0002:000160c0       _main                      004ac0c0 f   decoder_test.obj
 0002:00016a40       _ercInit                   004aca40 f   erc_api.obj
 0002:00016b10       _ercOpen                   004acb10 f   erc_api.obj
 0002:00016bf0       _ercReset                  004acbf0 f   erc_api.obj
 0002:00017030       _ercClose                  004ad030 f   erc_api.obj
 0002:00017130       _ercSetErrorConcealment    004ad130 f   erc_api.obj
 0002:00017180       _ercStartSegment           004ad180 f   erc_api.obj
 0002:00017200       _ercStopSegment            004ad200 f   erc_api.obj
 0002:00017270       _ercMarkCurrSegmentLost    004ad270 f   erc_api.obj
 0002:00017480       _ercMarkCurrSegmentOK      004ad480 f   erc_api.obj
 0002:00017670       _ercMarkCurrMBConcealed    004ad670 f   erc_api.obj
 0002:00017850       _ercConcealIntraFrame      004ad850 f   erc_do_i.obj
 0002:000179a0       _ercPixConcealIMB          004ad9a0 f   erc_do_i.obj
 0002:00017c50       _ercCollect8PredBlocks     004adc50 f   erc_do_i.obj
 0002:00017fe0       _ercCollectColumnBlocks    004adfe0 f   erc_do_i.obj
 0002:00018b20       _ercConcealInterFrame      004aeb20 f   erc_do_p.obj
 0002:0001b420       _conceal_lost_frames       004b1420 f   erc_do_p.obj
 0002:0001cc70       _update_ref_list_for_concealment 004b2c70 f   erc_do_p.obj
 0002:0001cd30       _init_lists_for_non_reference_loss 004b2d30 f   erc_do_p.obj
 0002:0001d7c0       _get_pic_from_dpb          004b37c0 f   erc_do_p.obj
 0002:0001d8b0       _comp                      004b38b0 f   erc_do_p.obj
 0002:0001d8f0       _init_node                 004b38f0 f   erc_do_p.obj
 0002:0001d980       _print_node                004b3980 f   erc_do_p.obj
 0002:0001d9e0       _print_list                004b39e0 f   erc_do_p.obj
 0002:0001da50       _delete_list               004b3a50 f   erc_do_p.obj
 0002:0001db40       _conceal_non_ref_pics      004b3b40 f   erc_do_p.obj
 0002:0001dec0       _sliding_window_poc_management 004b3ec0 f   erc_do_p.obj
 0002:0001df60       _write_lost_non_ref_pic    004b3f60 f   erc_do_p.obj
 0002:0001e120       _write_lost_ref_after_idr  004b4120 f   erc_do_p.obj
 0002:0001e260       _set_ec_flag               004b4260 f   errorconcealment.obj
 0002:0001e4c0       _reset_ec_flags            004b44c0 f   errorconcealment.obj
 0002:0001e530       _get_concealed_element     004b4530 f   errorconcealment.obj
 0002:0001e700       _fmo_init                  004b4700 f   fmo.obj
 0002:0001ed00       _FmoFinit                  004b4d00 f   fmo.obj
 0002:0001edb0       _FmoGetNumberOfSliceGroup  004b4db0 f   fmo.obj
 0002:0001edf0       _FmoGetLastMBOfPicture     004b4df0 f   fmo.obj
 0002:0001ee60       _FmoGetLastMBInSliceGroup  004b4e60 f   fmo.obj
 0002:0001eef0       _FmoGetSliceGroupId        004b4ef0 f   fmo.obj
 0002:0001efb0       _FmoGetNextMBNr            004b4fb0 f   fmo.obj
 0002:0001fb80       _CeilLog2                  004b5b80 f   header.obj
 0002:0001fbf0       _CeilLog2_sf               004b5bf0 f   header.obj
 0002:0001fc60       _FirstPartOfSliceHeader    004b5c60 f   header.obj
 0002:0001fe00       _RestOfSliceHeader         004b5e00 f   header.obj
 0002:00021ce0       _dec_ref_pic_marking       004b7ce0 f   header.obj
 0002:00021fc0       _decode_poc                004b7fc0 f   header.obj
 0002:00022940       _dumppoc                   004b8940 f   header.obj
 0002:00022c30       _picture_order             004b8c30 f   header.obj
 0002:00022ca0       _init_slice                004b8ca0 f   image.obj
 0002:00022f00       _decode_slice              004b8f00 f   image.obj
 0002:00023d40       _decode_one_frame          004b9d40 f   image.obj
 0002:00025ee0       _buffer2img                004bbee0 f   image.obj
 0002:00026390       _compute_SSE               004bc390 f   image.obj
 0002:00026500       _calculate_frame_no        004bc500 f   image.obj
 0002:00026630       _find_snr                  004bc630 f   image.obj
 0002:00027000       _reorder_lists             004bd000 f   image.obj
 0002:000271d0       _read_new_slice            004bd1d0 f   image.obj
 0002:00028360       _pad_buf                   004be360 f   image.obj
 0002:000285a0       _pad_dec_picture           004be5a0 f   image.obj
 0002:00028720       _exit_picture              004be720 f   image.obj
 0002:00029640       _ercWriteMBMODEandMV       004bf640 f   image.obj
 0002:00029e30       _init_old_slice            004bfe30 f   image.obj
 0002:00029ed0       _copy_slice_info           004bfed0 f   image.obj
 0002:0002a050       _is_new_picture            004c0050 f   image.obj
 0002:0002a360       _frame_postprocessing      004c0360 f   image.obj
 0002:0002a390       _field_postprocessing      004c0390 f   image.obj
 0002:0002a3e0       _copy_dec_picture_JV       004c03e0 f   image.obj
 0002:0002a730       _decode_one_slice          004c0730 f   image.obj
 0002:0002ac70       _GetVOIdx                  004c0c70 f   image.obj
 0002:0002ae00       _GetViewIdx                004c0e00 f   image.obj
 0002:0002aed0       _get_maxViewIdx            004c0ed0 f   image.obj
 0002:0002afe0       _ParseSizeFromString       004c0fe0 f   img_io.obj
 0002:0002b360       _ParseFrameNoFormatFromString 004c1360 f   img_io.obj
 0002:0002b5b0       _OpenFrameFile             004c15b0 f   img_io.obj
 0002:0002b840       _OpenFiles                 004c1840 f   img_io.obj
 0002:0002b950       _CloseFiles                004c1950 f   img_io.obj
 0002:0002b9d0       _ParseVideoType            004c19d0 f   img_io.obj
 0002:0002bb70       _process_image             004c1b70 f   img_process.obj
 0002:0002d050       _initInput                 004c3050 f   input.obj
 0002:0002d100       _testEndian                004c3100 f   input.obj
 0002:0002d190       _fillPlane                 004c3190 f   input.obj
 0002:0002d2c0       _buf2img_bitshift          004c32c0 f   input.obj
 0002:0002da30       _buf2img_basic             004c3a30 f   input.obj
 0002:0002e090       _buf2img_endian            004c4090 f   input.obj
 0002:0002e3b0       _AllocateFrameMemory       004c43b0 f   input.obj
 0002:0002e4a0       _DeleteFrameMemory         004c44a0 f   input.obj
 0002:0002e530       _read_one_frame            004c4530 f   input.obj
 0002:0002f540       _pad_borders               004c5540 f   input.obj
 0002:0002f7c0       _intra_pred_16x16_normal   004c57c0 f   intra16x16_pred.obj
 0002:00030a30       _intra_pred_16x16_mbaff    004c6a30 f   intra16x16_pred_mbaff.obj
 0002:00031bc0       _intrapred_16x16_normal    004c7bc0 f   intra16x16_pred_normal.obj
 0002:00032e40       _intra_pred_4x4_normal     004c8e40 f   intra4x4_pred.obj
 0002:00035f80       _intra_pred_4x4_mbaff      004cbf80 f   intra4x4_pred_mbaff.obj
 0002:00039310       _intra4x4_pred_normal      004cf310 f   intra4x4_pred_normal.obj
 0002:0003c6e0       _intra_pred_8x8_normal     004d26e0 f   intra8x8_pred.obj
 0002:00043d10       _intra_pred_8x8_mbaff      004d9d10 f   intra8x8_pred_mbaff.obj
 0002:0004aee0       _intrapred8x8_normal       004e0ee0 f   intra8x8_pred_normal.obj
 0002:000529e0       _intra_pred_chroma         004e89e0 f   intra_chroma_pred.obj
 0002:00054430       _intrapred_chroma_ver_mbaff 004ea430 f   intra_chroma_pred_mbaff.obj
 0002:00054670       _intra_pred_chroma_mbaff   004ea670 f   intra_chroma_pred_mbaff.obj
 0002:00056230       _set_intra_prediction_modes 004ec230 f   intra_pred_common.obj
 0002:000562f0       _ReadFrameConcatenated     004ec2f0 f   io_raw.obj
 0002:00056740       _ReadFrameSeparate         004ec740 f   io_raw.obj
 0002:00056890       _constructTiff             004ec890 f   io_tiff.obj
 0002:000568f0       _destructTiff              004ec8f0 f   io_tiff.obj
 0002:000569c0       _horizontal_half_1chan_cosite 004ec9c0 f   io_tiff.obj
 0002:00056fd0       _vertical_half_1chan       004ecfd0 f   io_tiff.obj
 0002:00057860       _ReadTIFFImage             004ed860 f   io_tiff.obj
 0002:0005a060       _error                     004f0060 f   ldecod.obj
 0002:0005a110       _FreeDecPicList            004f0110 f   ldecod.obj
 0002:0005a1c0       _init_frext                004f01c0 f   ldecod.obj
 0002:0005a830       _AllocPartition            004f0830 f   ldecod.obj
 0002:0005a9b0       _FreePartition             004f09b0 f   ldecod.obj
 0002:0005aae0       _malloc_slice              004f0ae0 f   ldecod.obj
 0002:0005ae50       _init_global_buffers       004f0e50 f   ldecod.obj
 0002:0005b410       _free_layer_buffers        004f1410 f   ldecod.obj
 0002:0005b760       _free_global_buffers       004f1760 f   ldecod.obj
 0002:0005b840       _report_stats_on_error     004f1840 f   ldecod.obj
 0002:0005b890       _ClearDecPicList           004f1890 f   ldecod.obj
 0002:0005b970       _get_one_avail_dec_pic_from_list 004f1970 f   ldecod.obj
 0002:0005ba50       _OpenDecoder               004f1a50 f   ldecod.obj
 0002:0005c6d0       _DecodeOneFrame            004f26d0 f   ldecod.obj
 0002:0005c790       _FinitDecoder              004f2790 f   ldecod.obj
 0002:0005c8a0       _CloseDecoder              004f28a0 f   ldecod.obj
 0002:0005db50       _OpenOutputFiles           004f3b50 f   ldecod.obj
 0002:0005dea0       _set_global_coding_par     004f3ea0 f   ldecod.obj
 0002:0005e1b0       _set_loop_filter_functions_mbaff 004f41b0 f   loop_filter_mbaff.obj
 0002:0005e220       _get_non_aff_neighbor_luma 004f4220 f   loop_filter_mbaff.obj
 0002:0005e290       _get_non_aff_neighbor_chroma 004f4290 f   loop_filter_mbaff.obj
 0002:0005e330       _get_strength_ver_MBAff    004f4330 f   loop_filter_mbaff.obj
 0002:0005f200       _get_strength_hor_MBAff    004f5200 f   loop_filter_mbaff.obj
 0002:00061d30       _get_db_strength_mbaff     004f7d30 f   loop_filter_mbaff.obj
 0002:000622b0       _perform_db_mbaff          004f82b0 f   loop_filter_mbaff.obj
 0002:00062e80       _set_loop_filter_functions_normal 004f8e80 f   loop_filter_normal.obj
 0002:00066600       _deblock_normal            004fc600 f   loop_filter_normal.obj
 0002:00068410       _DeblockPicture            004fe410 f   loopFilter.obj
 0002:00068520       _init_Deblock              004fe520 f   loopFilter.obj
 0002:0006a5e0       _set_chroma_qp             005005e0 f   macroblock.obj
 0002:0006a870       _update_qp                 00500870 f   macroblock.obj
 0002:0006a930       _read_delta_quant          00500930 f   macroblock.obj
 0002:0006ab50       _invScaleCoeff             00500b50 f   macroblock.obj
 0002:0006ad50       _start_macroblock          00500d50 f   macroblock.obj
 0002:0006b310       _exit_macroblock           00501310 f   macroblock.obj
 0002:0006b4a0       _setup_slice_methods       005014a0 f   macroblock.obj
 0002:0006c340       _get_neighbors             00502340 f   macroblock.obj
 0002:0006e1b0       _check_dp_neighbors        005041b0 f   macroblock.obj
 0002:0006eb00       _decode_one_macroblock     00504b00 f   macroblock.obj
 0002:0006efb0       _change_plane_JV           00504fb0 f   macroblock.obj
 0002:0006f100       _make_frame_picture_JV     00505100 f   macroblock.obj
 0002:0006f340       _mb_is_available           00505340 f   mb_access.obj
 0002:0006f3f0       _CheckAvailabilityOfNeighbors 005053f0 f   mb_access.obj
 0002:0006f820       _CheckAvailabilityOfNeighborsNormal 00505820 f   mb_access.obj
 0002:0006fab0       _CheckAvailabilityOfNeighborsMBAFF 00505ab0 f   mb_access.obj
 0002:0006fd50       _get_mb_block_pos_normal   00505d50 f   mb_access.obj
 0002:0006fdb0       _get_mb_block_pos_mbaff    00505db0 f   mb_access.obj
 0002:0006fe20       _get_mb_pos                00505e20 f   mb_access.obj
 0002:0006fed0       _getNonAffNeighbour        00505ed0 f   mb_access.obj
 0002:000700c0       _getAffNeighbour           005060c0 f   mb_access.obj
 0002:00070990       _get4x4Neighbour           00506990 f   mb_access.obj
 0002:00070a70       _get4x4NeighbourBase       00506a70 f   mb_access.obj
 0002:00070b20       _mb_pred_intra4x4          00506b20 f   mb_prediction.obj
 0002:00070de0       _mb_pred_intra16x16        00506de0 f   mb_prediction.obj
 0002:00070ee0       _mb_pred_intra8x8          00506ee0 f   mb_prediction.obj
 0002:00071100       _mb_pred_skip              00507100 f   mb_prediction.obj
 0002:00071710       _mb_pred_sp_skip           00507710 f   mb_prediction.obj
 0002:000717a0       _mb_pred_p_inter8x8        005077a0 f   mb_prediction.obj
 0002:00071a60       _mb_pred_p_inter16x16      00507a60 f   mb_prediction.obj
 0002:00071b40       _mb_pred_p_inter16x8       00507b40 f   mb_prediction.obj
 0002:00071c50       _mb_pred_p_inter8x16       00507c50 f   mb_prediction.obj
 0002:00071d60       _mb_pred_b_d8x8temporal    00507d60 f   mb_prediction.obj
 0002:00072fb0       _mb_pred_b_d4x4temporal    00508fb0 f   mb_prediction.obj
 0002:00073760       _mb_pred_b_d8x8spatial     00509760 f   mb_prediction.obj
 0002:00074580       _mb_pred_b_d4x4spatial     0050a580 f   mb_prediction.obj
 0002:00075070       _mb_pred_b_inter8x8        0050b070 f   mb_prediction.obj
 0002:00075890       _mb_pred_ipcm              0050b890 f   mb_prediction.obj
 0002:00075b20       _skip_macroblock           0050bb20 f   mb_read.obj
 0002:00076470       _setup_read_macroblock     0050c470 f   mb_read.obj
 0002:0007c330       _dump_dpb                  00512330 f   mbuffer.obj
 0002:0007c360       _getDpbSize                00512360 f   mbuffer.obj
 0002:0007c8a0       _check_num_ref             005128a0 f   mbuffer.obj
 0002:0007c920       _init_dpb                  00512920 f   mbuffer.obj
 0002:0007cdc0       _re_init_dpb               00512dc0 f   mbuffer.obj
 0002:0007d140       _free_dpb                  00513140 f   mbuffer.obj
 0002:0007d330       _alloc_frame_store         00513330 f   mbuffer.obj
 0002:0007d400       _alloc_pic_motion          00513400 f   mbuffer.obj
 0002:0007d480       _alloc_storable_picture    00513480 f   mbuffer.obj
 0002:0007d9c0       _free_frame_store          005139c0 f   mbuffer.obj
 0002:0007daa0       _free_pic_motion           00513aa0 f   mbuffer.obj
 0002:0007db10       _free_storable_picture     00513b10 f   mbuffer.obj
 0002:0007dda0       _unmark_for_reference      00513da0 f   mbuffer.obj
 0002:0007df00       _unmark_for_long_term_reference 00513f00 f   mbuffer.obj
 0002:0007e030       _update_pic_num            00514030 f   mbuffer.obj
 0002:0007e4c0       _init_lists_i_slice        005144c0 f   mbuffer.obj
 0002:0007e530       _init_lists_p_slice        00514530 f   mbuffer.obj
 0002:0007ec60       _init_lists_b_slice        00514c60 f   mbuffer.obj
 0002:0007f8f0       _init_mbaff_lists          005158f0 f   mbuffer.obj
 0002:0007fbe0       _get_short_term_pic        00515be0 f   mbuffer.obj
 0002:0007fda0       _reorder_ref_pic_list      00515da0 f   mbuffer.obj
 0002:000800a0       _idr_memory_management     005160a0 f   mbuffer.obj
 0002:00080270       _store_picture_in_dpb      00516270 f   mbuffer.obj
 0002:000811b0       _remove_frame_from_dpb     005171b0 f   mbuffer.obj
 0002:000815a0       _flush_dpb                 005175a0 f   mbuffer.obj
 0002:000816e0       _flush_dpbs                005176e0 f   mbuffer.obj
 0002:00081af0       _dpb_split_field           00517af0 f   mbuffer.obj
 0002:00082f10       _dpb_combine_field_yuv     00518f10 f   mbuffer.obj
 0002:00083510       _dpb_combine_field         00519510 f   mbuffer.obj
 0002:00083af0       _alloc_ref_pic_list_reordering_buffer 00519af0 f   mbuffer.obj
 0002:00083df0       _free_ref_pic_list_reordering_buffer 00519df0 f   mbuffer.obj
 0002:00083fe0       _fill_frame_num_gap        00519fe0 f   mbuffer.obj
 0002:00084260       _compute_colocated         0051a260 f   mbuffer.obj
 0002:00084590       _GetMaxDecFrameBuffering   0051a590 f   mbuffer.obj
 0002:000847c0       _append_interview_list     0051a7c0 f   mbuffer.obj
 0002:00084b70       _process_picture_in_dpb_s  0051ab70 f   mbuffer.obj
 0002:00084d70       _init_img_data             0051ad70 f   mbuffer.obj
 0002:00085320       _free_img_data             0051b320 f   mbuffer.obj
 0002:00085510       _store_proc_picture_in_dpb 0051b510 f   mbuffer.obj
 0002:00085820       _clone_storable_picture    0051b820 f   mbuffer.obj
 0002:00086150       _gen_pic_list_from_frame_list 0051c150 f   mbuffer_common.obj
 0002:00086550       _get_long_term_pic         0051c550 f   mbuffer_common.obj
 0002:00086700       _update_ref_list           0051c700 f   mbuffer_common.obj
 0002:000868f0       _update_ltref_list         0051c8f0 f   mbuffer_common.obj
 0002:00086ae0       _mm_unmark_short_term_for_reference 0051cae0 f   mbuffer_common.obj
 0002:00086df0       _mm_unmark_long_term_for_reference 0051cdf0 f   mbuffer_common.obj
 0002:00087140       _mm_assign_long_term_frame_idx 0051d140 f   mbuffer_common.obj
 0002:00087960       _mm_update_max_long_term_frame_idx 0051d960 f   mbuffer_common.obj
 0002:00087a10       _mm_unmark_all_long_term_for_reference 0051da10 f   mbuffer_common.obj
 0002:00087a60       _mm_unmark_all_short_term_for_reference 0051da60 f   mbuffer_common.obj
 0002:00087af0       _mm_mark_current_picture_long_term 0051daf0 f   mbuffer_common.obj
 0002:00087b90       _is_used_for_reference     0051db90 f   mbuffer_common.obj
 0002:00087c60       _get_smallest_poc          0051dc60 f   mbuffer_common.obj
 0002:00087d60       _remove_unused_frame_from_dpb 0051dd60 f   mbuffer_common.obj
 0002:00088150       _reorder_short_term        0051e150 f   mbuffer_mvc.obj
 0002:000882e0       _reorder_long_term         0051e2e0 f   mbuffer_mvc.obj
 0002:00088450       _init_lists_i_slice_mvc    0051e450 f   mbuffer_mvc.obj
 0002:000884c0       _init_lists_p_slice_mvc    0051e4c0 f   mbuffer_mvc.obj
 0002:00088f10       _init_lists_b_slice_mvc    0051ef10 f   mbuffer_mvc.obj
 0002:00089f50       _reorder_ref_pic_list_mvc  0051ff50 f   mbuffer_mvc.obj
 0002:0008a730       _reorder_lists_mvc         00520730 f   mbuffer_mvc.obj
 0002:0008a990       _get_colocated_info_4x4    00520990 f   mc_direct.obj
 0002:0008ab20       _get_colocated_info_8x8    00520b20 f   mc_direct.obj
 0002:0008b070       _update_direct_types       00521070 f   mc_direct.obj
 0002:0008dc40       _allocate_pred_mem         00523c40 f   mc_prediction.obj
 0002:0008dd40       _free_pred_mem             00523d40 f   mc_prediction.obj
 0002:0008ddf0       _get_block_luma            00523df0 f   mc_prediction.obj
 0002:00091210       _intra_cr_decoding         00527210 f   mc_prediction.obj
 0002:00091740       _prepare_direct_params     00527740 f   mc_prediction.obj
 0002:00091df0       _perform_mc                00527df0 f   mc_prediction.obj
 0002:000956f0       _init_top_bot_planes       0052b6f0 f   memalloc.obj
 0002:00095880       _free_top_bot_planes       0052b880 f   memalloc.obj
 0002:00095990       _get_mem2Ddist             0052b990 f   memalloc.obj
 0002:00095b20       _get_mem2Dlm               0052bb20 f   memalloc.obj
 0002:00095c30       _free_mem2Ddist            0052bc30 f   memalloc.obj
 0002:00095cd0       _free_mem2Dlm              0052bcd0 f   memalloc.obj
 0002:00095d70       _get_mem2Dmp               0052bd70 f   memalloc.obj
 0002:00095e80       _get_mem3Dmp               0052be80 f   memalloc.obj
 0002:00095f70       _free_mem2Dmp              0052bf70 f   memalloc.obj
 0002:00096010       _free_mem3Dmp              0052c010 f   memalloc.obj
 0002:00096090       _get_mem2Dquant            0052c090 f   memalloc.obj
 0002:000961a0       _get_mem3Dquant            0052c1a0 f   memalloc.obj
 0002:00096290       _get_mem4Dquant            0052c290 f   memalloc.obj
 0002:00096390       _get_mem5Dquant            0052c390 f   memalloc.obj
 0002:00096490       _get_mem2Dwp               0052c490 f   memalloc.obj
 0002:000965a0       _free_mem2Dwp              0052c5a0 f   memalloc.obj
 0002:00096640       _free_mem2Dquant           0052c640 f   memalloc.obj
 0002:000966e0       _free_mem3Dquant           0052c6e0 f   memalloc.obj
 0002:00096760       _free_mem4Dquant           0052c760 f   memalloc.obj
 0002:000967e0       _free_mem5Dquant           0052c7e0 f   memalloc.obj
 0002:00096860       _get_mem2D_spp             0052c860 f   memalloc.obj
 0002:00096970       _get_mem3D_spp             0052c970 f   memalloc.obj
 0002:00096a60       _get_mem2Dmv               0052ca60 f   memalloc.obj
 0002:00096b70       _get_mem3Dmv               0052cb70 f   memalloc.obj
 0002:00096c60       _get_mem4Dmv               0052cc60 f   memalloc.obj
 0002:00096d60       _get_mem5Dmv               0052cd60 f   memalloc.obj
 0002:00096e60       _get_mem6Dmv               0052ce60 f   memalloc.obj
 0002:00096f60       _get_mem7Dmv               0052cf60 f   memalloc.obj
 0002:00097070       _free_mem2D_spp            0052d070 f   memalloc.obj
 0002:00097110       _free_mem3D_spp            0052d110 f   memalloc.obj
 0002:00097190       _free_mem2Dmv              0052d190 f   memalloc.obj
 0002:00097230       _free_mem3Dmv              0052d230 f   memalloc.obj
 0002:000972b0       _free_mem4Dmv              0052d2b0 f   memalloc.obj
 0002:00097330       _free_mem5Dmv              0052d330 f   memalloc.obj
 0002:000973b0       _free_mem6Dmv              0052d3b0 f   memalloc.obj
 0002:00097430       _free_mem7Dmv              0052d430 f   memalloc.obj
 0002:000974b0       _get_mem1Dpel              0052d4b0 f   memalloc.obj
 0002:00097530       _get_mem2Dpel              0052d530 f   memalloc.obj
 0002:00097640       _get_mem2Dpel_pad          0052d640 f   memalloc.obj
 0002:000977b0       _get_mem3Dpel              0052d7b0 f   memalloc.obj
 0002:000978a0       _get_mem3Dpel_pad          0052d8a0 f   memalloc.obj
 0002:00097980       _get_mem4Dpel              0052d980 f   memalloc.obj
 0002:00097a80       _get_mem4Dpel_pad          0052da80 f   memalloc.obj
 0002:00097b80       _get_mem5Dpel              0052db80 f   memalloc.obj
 0002:00097c80       _get_mem5Dpel_pad          0052dc80 f   memalloc.obj
 0002:00097d90       _free_mem1Dpel             0052dd90 f   memalloc.obj
 0002:00097e00       _free_mem2Dpel             0052de00 f   memalloc.obj
 0002:00097ea0       _free_mem2Dpel_pad         0052dea0 f   memalloc.obj
 0002:00097f60       _free_mem3Dpel             0052df60 f   memalloc.obj
 0002:00097fe0       _free_mem3Dpel_pad         0052dfe0 f   memalloc.obj
 0002:000980b0       _free_mem4Dpel             0052e0b0 f   memalloc.obj
 0002:00098130       _free_mem4Dpel_pad         0052e130 f   memalloc.obj
 0002:000981c0       _free_mem5Dpel             0052e1c0 f   memalloc.obj
 0002:00098240       _free_mem5Dpel_pad         0052e240 f   memalloc.obj
 0002:000982d0       _new_mem2D                 0052e2d0 f   memalloc.obj
 0002:000983c0       _get_mem2D                 0052e3c0 f   memalloc.obj
 0002:000984c0       _new_mem2Dint              0052e4c0 f   memalloc.obj
 0002:000985b0       _get_mem2Dint              0052e5b0 f   memalloc.obj
 0002:000986c0       _get_mem2Dint_pad          0052e6c0 f   memalloc.obj
 0002:00098830       _get_mem2Dint64            0052e830 f   memalloc.obj
 0002:00098940       _get_mem3D                 0052e940 f   memalloc.obj
 0002:00098a30       _get_mem4D                 0052ea30 f   memalloc.obj
 0002:00098b30       _get_mem3Dint              0052eb30 f   memalloc.obj
 0002:00098c20       _get_mem3Dint64            0052ec20 f   memalloc.obj
 0002:00098d10       _get_mem2Ddistblk          0052ed10 f   memalloc.obj
 0002:00098e20       _get_mem3Ddistblk          0052ee20 f   memalloc.obj
 0002:00098f10       _get_mem4Ddistblk          0052ef10 f   memalloc.obj
 0002:00099010       _get_mem4Dint              0052f010 f   memalloc.obj
 0002:00099110       _get_mem4Dint64            0052f110 f   memalloc.obj
 0002:00099210       _get_mem5Dint              0052f210 f   memalloc.obj
 0002:00099310       _free_mem2D                0052f310 f   memalloc.obj
 0002:000993b0       _free_mem2Dint             0052f3b0 f   memalloc.obj
 0002:00099450       _free_mem2Dint_pad         0052f450 f   memalloc.obj
 0002:00099510       _free_mem2Dint64           0052f510 f   memalloc.obj
 0002:000995b0       _free_mem3D                0052f5b0 f   memalloc.obj
 0002:00099630       _free_mem4D                0052f630 f   memalloc.obj
 0002:000996b0       _free_mem3Dint             0052f6b0 f   memalloc.obj
 0002:00099730       _free_mem3Dint64           0052f730 f   memalloc.obj
 0002:000997b0       _free_mem3Ddistblk         0052f7b0 f   memalloc.obj
 0002:00099830       _free_mem4Dint             0052f830 f   memalloc.obj
 0002:000998b0       _free_mem4Dint64           0052f8b0 f   memalloc.obj
 0002:00099930       _free_mem4Ddistblk         0052f930 f   memalloc.obj
 0002:000999b0       _free_mem5Dint             0052f9b0 f   memalloc.obj
 0002:00099a30       _no_mem_exit               0052fa30 f   memalloc.obj
 0002:00099ab0       _new_mem2Duint16           0052fab0 f   memalloc.obj
 0002:00099ba0       _get_mem2Duint16           0052fba0 f   memalloc.obj
 0002:00099cb0       _get_mem3Duint16           0052fcb0 f   memalloc.obj
 0002:00099da0       _get_mem4Duint16           0052fda0 f   memalloc.obj
 0002:00099ea0       _get_mem2Dshort            0052fea0 f   memalloc.obj
 0002:00099fc0       _get_mem3Dshort            0052ffc0 f   memalloc.obj
 0002:0009a0d0       _get_mem4Dshort            005300d0 f   memalloc.obj
 0002:0009a1d0       _get_mem5Dshort            005301d0 f   memalloc.obj
 0002:0009a2d0       _get_mem6Dshort            005302d0 f   memalloc.obj
 0002:0009a3d0       _get_mem7Dshort            005303d0 f   memalloc.obj
 0002:0009a4e0       _free_mem2Duint16          005304e0 f   memalloc.obj
 0002:0009a580       _free_mem3Duint16          00530580 f   memalloc.obj
 0002:0009a600       _free_mem4Duint16          00530600 f   memalloc.obj
 0002:0009a680       _free_mem2Dshort           00530680 f   memalloc.obj
 0002:0009a720       _free_mem3Dshort           00530720 f   memalloc.obj
 0002:0009a7a0       _free_mem4Dshort           005307a0 f   memalloc.obj
 0002:0009a820       _free_mem5Dshort           00530820 f   memalloc.obj
 0002:0009a8a0       _free_mem6Dshort           005308a0 f   memalloc.obj
 0002:0009a920       _free_mem7Dshort           00530920 f   memalloc.obj
 0002:0009a9a0       _get_mem2Ddouble           005309a0 f   memalloc.obj
 0002:0009aab0       _get_mem1Dodouble          00530ab0 f   memalloc.obj
 0002:0009ab40       _get_mem2Dodouble          00530b40 f   memalloc.obj
 0002:0009ac70       _get_mem3Dodouble          00530c70 f   memalloc.obj
 0002:0009ae40       _get_offset_mem2Dshort     00530e40 f   memalloc.obj
 0002:0009afc0       _get_mem3Doint             00530fc0 f   memalloc.obj
 0002:0009b190       _get_mem2Doint             00531190 f   memalloc.obj
 0002:0009b2c0       _free_mem2Ddouble          005312c0 f   memalloc.obj
 0002:0009b360       _free_mem1Dodouble         00531360 f   memalloc.obj
 0002:0009b3e0       _free_mem2Dodouble         005313e0 f   memalloc.obj
 0002:0009b4a0       _free_mem3Dodouble         005314a0 f   memalloc.obj
 0002:0009b5f0       _free_mem3Doint            005315f0 f   memalloc.obj
 0002:0009b740       _free_mem2Doint            00531740 f   memalloc.obj
 0002:0009b800       _free_offset_mem2Dshort    00531800 f   memalloc.obj
 0002:0009b8c0       _free_mem3Ddouble          005318c0 f   memalloc.obj
 0002:0009b940       _get_mem2Dolm              00531940 f   memalloc.obj
 0002:0009ba60       _free_mem2Dolm             00531a60 f   memalloc.obj
 0002:0009bb20       _free_mem2Ddistblk         00531b20 f   memalloc.obj
 0002:0009bbc0       _init_motion_vector_prediction 00531bc0 f   mv_prediction.obj
 0002:0009d060       _RBSPtoSODB                00533060 f   nal.obj
 0002:0009d160       _EBSPtoRBSP                00533160 f   nal.obj
 0002:0009d2c0       _read_next_nalu            005332c0 f   nalu.obj
 0002:0009d500       _CheckZeroByteNonVCL       00533500 f   nalu.obj
 0002:0009d650       _CheckZeroByteVCL          00533650 f   nalu.obj
 0002:0009d740       _nal_unit_header_mvc_extension 00533740 f   nalu.obj
 0002:0009d8d0       _nal_unit_header_svc_extension 005338d0 f   nalu.obj
 0002:0009d900       _prefix_nal_unit_svc       00533900 f   nalu.obj
 0002:0009d930       _AllocNALU                 00533930 f   nalucommon.obj
 0002:0009d9f0       _FreeNALU                  005339f0 f   nalucommon.obj
 0002:0009da70       _init_output               00533a70 f   output.obj
 0002:0009e110       _write_picture             00534110 f   output.obj
 0002:0009f240       _init_out_buffer           00535240 f   output.obj
 0002:0009f290       _uninit_out_buffer         00535290 f   output.obj
 0002:0009f300       _clear_picture             00535300 f   output.obj
 0002:0009f4a0       _write_unpaired_field      005354a0 f   output.obj
 0002:0009f780       _flush_direct_output       00535780 f   output.obj
 0002:0009f880       _write_stored_frame        00535880 f   output.obj
 0002:0009f960       _direct_output             00535960 f   output.obj
 0002:0009fc90       _Scaling_List              00535c90 f   parset.obj
 0002:0009fe20       _InterpretSPS              00535e20 f   parset.obj
 0002:000a08d0       _InitVUI                   005368d0 f   parset.obj
 0002:000a0910       _ReadVUI                   00536910 f   parset.obj
 0002:000a1000       _ReadHRDParameters         00537000 f   parset.obj
 0002:000a1240       _InterpretPPS              00537240 f   parset.obj
 0002:000a1af0       _PPSConsistencyCheck       00537af0 f   parset.obj
 0002:000a1b40       _SPSConsistencyCheck       00537b40 f   parset.obj
 0002:000a1b90       _SubsetSPSConsistencyCheck 00537b90 f   parset.obj
 0002:000a1be0       _MakePPSavailable          00537be0 f   parset.obj
 0002:000a1d10       _CleanUpPPS                00537d10 f   parset.obj
 0002:000a1df0       _MakeSPSavailable          00537df0 f   parset.obj
 0002:000a1e90       _ProcessSPS                00537e90 f   parset.obj
 0002:000a20e0       _ProcessSubsetSPS          005380e0 f   parset.obj
 0002:000a27a0       _ProcessPPS                005387a0 f   parset.obj
 0002:000a2990       _reset_format_info         00538990 f   parset.obj
 0002:000a3290       _activate_sps              00539290 f   parset.obj
 0002:000a4130       _activate_pps              0053a130 f   parset.obj
 0002:000a41b0       _UseParameterSet           0053a1b0 f   parset.obj
 0002:000a4490       _seq_parameter_set_mvc_extension 0053a490 f   parset.obj
 0002:000a5230       _MemAlloc1D                0053b230 f   parset.obj
 0002:000a52b0       _hrd_parameters            0053b2b0 f   parset.obj
 0002:000a5510       _mvc_vui_parameters_extension 0053b510 f   parset.obj
 0002:000a5a20       _init_subset_sps_list      0053ba20 f   parset.obj
 0002:000a5b10       _reset_subset_sps          0053bb10 f   parset.obj
 0002:000a60a0       _GetBaseViewId             0053c0a0 f   parset.obj
 0002:000a6160       _get_max_dec_frame_buf_size 0053c160 f   parset.obj
 0002:000a64c0       _AllocPPS                  0053c4c0 f   parsetcommon.obj
 0002:000a6540       _AllocSPS                  0053c540 f   parsetcommon.obj
 0002:000a65b0       _FreePPS                   0053c5b0 f   parsetcommon.obj
 0002:000a6650       _FreeSPS                   0053c650 f   parsetcommon.obj
 0002:000a66d0       _sps_is_equal              0053c6d0 f   parsetcommon.obj
 0002:000a6b80       _pps_is_equal              0053cb80 f   parsetcommon.obj
 0002:000a7220       _init_qp_process           0053d220 f   quant.obj
 0002:000a73f0       _free_qp_matrices          0053d3f0 f   quant.obj
 0002:000a74a0       _assign_quant_params       0053d4a0 f   quant.obj
 0002:000a7a40       _CalculateQuant4x4Param    0053da40 f   quant.obj
 0002:000a7d80       _CalculateQuant8x8Param    0053dd80 f   quant.obj
 0002:000a81c0       _set_read_CBP_and_coeffs_cabac 0053e1c0 f   read_comp_cabac.obj
 0002:000ac9e0       _set_read_comp_coeff_cabac 005429e0 f   read_comp_cabac.obj
 0002:000ae190       _read_coeff_4x4_CAVLC      00544190 f   read_comp_cavlc.obj
 0002:000af260       _read_coeff_4x4_CAVLC_444  00545260 f   read_comp_cavlc.obj
 0002:000afee0       _set_read_comp_coeff_cavlc 00545ee0 f   read_comp_cavlc.obj
 0002:000b1560       _set_read_CBP_and_coeffs_cavlc 00547560 f   read_comp_cavlc.obj
 0002:000b5bd0       _OpenRTPFile               0054bbd0 f   rtp.obj
 0002:000b5c70       _CloseRTPFile              0054bc70 f   rtp.obj
 0002:000b5ce0       _GetRTPNALU                0054bce0 f   rtp.obj
 0002:000b5f70       _DecomposeRTPpacket        0054bf70 f   rtp.obj
 0002:000b6270       _DumpRTPHeader             0054c270 f   rtp.obj
 0002:000b63e0       _RTPReadPacket             0054c3e0 f   rtp.obj
 0002:000b6690       _InterpretSEIMessage       0054c690 f   sei.obj
 0002:000b6cb0       _interpret_spare_pic       0054ccb0 f   sei.obj
 0002:000b75e0       _interpret_subsequence_info 0054d5e0 f   sei.obj
 0002:000b7780       _interpret_subsequence_layer_characteristics_info 0054d780 f   sei.obj
 0002:000b78d0       _interpret_subsequence_characteristics_info 0054d8d0 f   sei.obj
 0002:000b7b60       _interpret_scene_information 0054db60 f   sei.obj
 0002:000b7c70       _interpret_filler_payload_info 0054dc70 f   sei.obj
 0002:000b7ce0       _interpret_user_data_unregistered_info 0054dce0 f   sei.obj
 0002:000b7da0       _interpret_user_data_registered_itu_t_t35_info 0054dda0 f   sei.obj
 0002:000b7e40       _interpret_pan_scan_rect_info 0054de40 f   sei.obj
 0002:000b8030       _interpret_recovery_point_info 0054e030 f   sei.obj
 0002:000b8180       _interpret_dec_ref_pic_marking_repetition_info 0054e180 f   sei.obj
 0002:000b83e0       _interpret_full_frame_freeze_info 0054e3e0 f   sei.obj
 0002:000b8490       _interpret_full_frame_freeze_release_info 0054e490 f   sei.obj
 0002:000b84c0       _interpret_full_frame_snapshot_info 0054e4c0 f   sei.obj
 0002:000b8580       _interpret_progressive_refinement_start_info 0054e580 f   sei.obj
 0002:000b8660       _interpret_progressive_refinement_end_info 0054e660 f   sei.obj
 0002:000b8720       _interpret_motion_constrained_slice_group_set_info 0054e720 f   sei.obj
 0002:000b88b0       _interpret_film_grain_characteristics_info 0054e8b0 f   sei.obj
 0002:000b8dc0       _interpret_deblocking_filter_display_preference_info 0054edc0 f   sei.obj
 0002:000b8ee0       _interpret_stereo_video_info_info 0054eee0 f   sei.obj
 0002:000b9050       _interpret_reserved_info   0054f050 f   sei.obj
 0002:000b90b0       _interpret_buffering_period_info 0054f0b0 f   sei.obj
 0002:000b92f0       _interpret_picture_timing_info 0054f2f0 f   sei.obj
 0002:000b9a60       _interpret_frame_packing_arrangement_info 0054fa60 f   sei.obj
 0002:000b9e10       _interpret_tone_mapping    0054fe10 f   sei.obj
 0002:000ba890       _tone_map                  00550890 f   sei.obj
 0002:000ba940       _init_tone_mapping_sei     00550940 f   sei.obj
 0002:000ba990       _update_tone_mapping_sei   00550990 f   sei.obj
 0002:000baa30       _interpret_post_filter_hints_info 00550a30 f   sei.obj
 0002:000bac60       _forward4x4                00550c60 f   transform.obj
 0002:000bafc0       _inverse4x4                00550fc0 f   transform.obj
 0002:000bb320       _hadamard4x4               00551320 f   transform.obj
 0002:000bb640       _ihadamard4x4              00551640 f   transform.obj
 0002:000bb950       _hadamard4x2               00551950 f   transform.obj
 0002:000bbc10       _ihadamard4x2              00551c10 f   transform.obj
 0002:000bbed0       _hadamard2x2               00551ed0 f   transform.obj
 0002:000bbfa0       _ihadamard2x2              00551fa0 f   transform.obj
 0002:000bc060       _forward8x8                00552060 f   transform.obj
 0002:000bc9a0       _inverse8x8                005529a0 f   transform.obj
 0002:000bd2c0       _itrans8x8                 005532c0 f   transform8x8.obj
 0002:000bdaf0       _icopy8x8                  00553af0 f   transform8x8.obj
 0002:000bdc40       _read_ue_v                 00553c40 f   vlc.obj
 0002:000bdd00       _read_se_v                 00553d00 f   vlc.obj
 0002:000bddc0       _read_u_v                  00553dc0 f   vlc.obj
 0002:000bde90       _read_i_v                  00553e90 f   vlc.obj
 0002:000bdf70       _read_u_1                  00553f70 f   vlc.obj
 0002:000bdfd0       _linfo_ue                  00553fd0 f   vlc.obj
 0002:000be020       _linfo_se                  00554020 f   vlc.obj
 0002:000be0a0       _linfo_cbp_intra_normal    005540a0 f   vlc.obj
 0002:000be150       _linfo_cbp_intra_other     00554150 f   vlc.obj
 0002:000be200       _linfo_cbp_inter_normal    00554200 f   vlc.obj
 0002:000be2b0       _linfo_cbp_inter_other     005542b0 f   vlc.obj
 0002:000be360       _linfo_levrun_inter        00554360 f   vlc.obj
 0002:000be4f0       _linfo_levrun_c2x2         005544f0 f   vlc.obj
 0002:000be620       _readSyntaxElement_VLC     00554620 f   vlc.obj
 0002:000be700       _readSyntaxElement_UVLC    00554700 f   vlc.obj
 0002:000be760       _readSyntaxElement_Intra4x4PredictionMode 00554760 f   vlc.obj
 0002:000be840       _GetVLCSymbol_IntraMode    00554840 f   vlc.obj
 0002:000be940       _more_rbsp_data            00554940 f   vlc.obj
 0002:000bea30       _uvlc_startcode_follows    00554a30 f   vlc.obj
 0002:000beae0       _GetVLCSymbol              00554ae0 f   vlc.obj
 0002:000bec90       _readSyntaxElement_FLC     00554c90 f   vlc.obj
 0002:000bed50       _readSyntaxElement_NumCoeffTrailingOnes 00554d50 f   vlc.obj
 0002:000bf100       _readSyntaxElement_NumCoeffTrailingOnesChromaDC 00555100 f   vlc.obj
 0002:000bf1f0       _readSyntaxElement_Level_VLC0 005551f0 f   vlc.obj
 0002:000bf450       _readSyntaxElement_Level_VLCN 00555450 f   vlc.obj
 0002:000bf700       _readSyntaxElement_TotalZeros 00555700 f   vlc.obj
 0002:000bf7f0       _readSyntaxElement_TotalZerosChromaDC 005557f0 f   vlc.obj
 0002:000bf910       _readSyntaxElement_Run     00555910 f   vlc.obj
 0002:000bfa00       _GetBits                   00555a00 f   vlc.obj
 0002:000bfb10       _ShowBits                  00555b10 f   vlc.obj
 0002:000bfc10       _gettime                   00555c10 f   win32.obj
 0002:000bfc70       _timediff                  00555c70 f   win32.obj
 0002:000bfcc0       _init_time                 00555cc0 f   win32.obj
 0002:000bfd20       _timenorm                  00555d20 f   win32.obj
 0002:000bfd92       _ntohl@4                   00555d92 f   Ws2_32:WS2_32.dll
 0002:000bfd98       _ntohs@4                   00555d98 f   Ws2_32:WS2_32.dll
 0002:000bfd9e       _QueryPerformanceCounter@4 00555d9e f   kernel32:KERNEL32.dll
 0002:000bfda4       _QueryPerformanceFrequency@4 00555da4 f   kernel32:KERNEL32.dll
 0002:000bfdb0       _malloc                    00555db0 f   LIBCMTD:dbgmalloc.obj
 0002:000bfdf0       __snprintf                 00555df0 f   LIBCMTD:snprintf.obj
 0002:000c0000       __snprintf_l               00556000 f   LIBCMTD:snprintf.obj
 0002:000c0040       _calloc                    00556040 f   LIBCMTD:dbgcalloc.obj
 0002:000c0070       __RTC_CheckEsp             00556070 f   LIBCMTD:_stack_.obj
 0002:000c00a0       @_RTC_CheckStackVars@8     005560a0 f   LIBCMTD:_stack_.obj
 0002:000c0120       @_RTC_AllocaHelper@12      00556120 f   LIBCMTD:_stack_.obj
 0002:000c0160       @_RTC_CheckStackVars2@12   00556160 f   LIBCMTD:_stack_.obj
 0002:000c0270       __RTC_InitBase             00556270 f   LIBCMTD:_init_.obj
 0002:000c02b0       __RTC_Shutdown             005562b0 f   LIBCMTD:_init_.obj
 0002:000c02d0       _free                      005562d0 f   LIBCMTD:dbgfree.obj
 0002:000c02f0       _memcpy                    005562f0 f   LIBCMTD:memcpy.obj
 0002:000c0730       _printf                    00556730 f   LIBCMTD:printf.obj
 0002:000c08c0       __printf_l                 005568c0 f   LIBCMTD:printf.obj
 0002:000c08f0       __printf_s_l               005568f0 f   LIBCMTD:printf.obj
 0002:000c0920       _printf_s                  00556920 f   LIBCMTD:printf.obj
 0002:000c0950       __printf_p_l               00556950 f   LIBCMTD:printf.obj
 0002:000c0980       __printf_p                 00556980 f   LIBCMTD:printf.obj
 0002:000c09b0       __set_printf_count_output  005569b0 f   LIBCMTD:printf.obj
 0002:000c0a10       __get_printf_count_output  00556a10 f   LIBCMTD:printf.obj
 0002:000c0a40       __read                     00556a40 f   LIBCMTD:read.obj
 0002:000c0d80       __read_nolock              00556d80 f   LIBCMTD:read.obj
 0002:000c20a0       __open                     005580a0 f   LIBCMTD:open.obj
 0002:000c2280       __sopen_helper             00558280 f   LIBCMTD:open.obj
 0002:000c3970       __invoke_watson_if_error   00559970 f i LIBCMTD:open.obj
 0002:000c39b0       __sopen                    005599b0 f   LIBCMTD:open.obj
 0002:000c3a40       __sopen_s                  00559a40 f   LIBCMTD:open.obj
 0002:000c3a70       __close                    00559a70 f   LIBCMTD:close.obj
 0002:000c3d10       __close_nolock             00559d10 f   LIBCMTD:close.obj
 0002:000c3e10       __fpmath                   00559e10 f   LIBCMTD:_fpinit_.obj
 0002:000c3e40       __fpclear                  00559e40 f   LIBCMTD:_fpinit_.obj
 0002:000c3e50       __cfltcvt_init             00559e50 f   LIBCMTD:_fpinit_.obj
 0002:000c3ee0       ___setfflag                00559ee0 f   LIBCMTD:_fpinit_.obj
 0002:000c3f10       __ftol2_sse                00559f10 f   LIBCMTD:ftol2.obj
 0002:000c3f19       __ftol2_pentium4           00559f19 f   LIBCMTD:ftol2.obj
 0002:000c3f2c       __ftol2_sse_excpt          00559f2c f   LIBCMTD:ftol2.obj
 0002:000c3f46       __ftol2                    00559f46 f   LIBCMTD:ftol2.obj
 0002:000c3ff0       __allshl                   00559ff0 f   LIBCMTD:llshl.obj
 0002:000c4020       __allshr                   0055a020 f   LIBCMTD:llshr.obj
 0002:000c4050       _memset                    0055a050 f   LIBCMTD:memset.obj
 0002:000c40f0       _fclose                    0055a0f0 f   LIBCMTD:fclose.obj
 0002:000c4240       __fclose_nolock            0055a240 f   LIBCMTD:fclose.obj
 0002:000c4380       _fread_s                   0055a380 f   LIBCMTD:fread.obj
 0002:000c4500       __fread_nolock_s           0055a500 f   LIBCMTD:fread.obj
 0002:000c4c50       _fread                     0055ac50 f   LIBCMTD:fread.obj
 0002:000c4c80       __fread_nolock             0055ac80 f   LIBCMTD:fread.obj
 0002:000c4cb0       _ftell                     0055acb0 f   LIBCMTD:ftell.obj
 0002:000c4dd0       __ftell_nolock             0055add0 f   LIBCMTD:ftell.obj
 0002:000c5150       _fseek                     0055b150 f   LIBCMTD:fseek.obj
 0002:000c5320       __fseek_nolock             0055b320 f   LIBCMTD:fseek.obj
 0002:000c5440       __fsopen                   0055b440 f   LIBCMTD:fopen.obj
 0002:000c56d0       _fopen                     0055b6d0 f   LIBCMTD:fopen.obj
 0002:000c56f0       _fopen_s                   0055b6f0 f   LIBCMTD:fopen.obj
 0002:000c57c0       _strncpy                   0055b7c0 f   LIBCMTD:strncpy.obj
 0002:000c5930       _sscanf                    0055b930 f   LIBCMTD:sscanf.obj
 0002:000c5b00       __sscanf_l                 0055bb00 f   LIBCMTD:sscanf.obj
 0002:000c5b40       _sscanf_s                  0055bb40 f   LIBCMTD:sscanf.obj
 0002:000c5b80       __sscanf_s_l               0055bb80 f   LIBCMTD:sscanf.obj
 0002:000c5bc0       __alloca_probe             0055bbc0     LIBCMTD:chkstk.obj
 0002:000c5bc0       __chkstk                   0055bbc0 f   LIBCMTD:chkstk.obj
 0002:000c5c00       __crt_waiting_on_module_handle 0055bc00 f   LIBCMTD:crt0dat.obj
 0002:000c5c70       __cinit                    0055bc70 f   LIBCMTD:crt0dat.obj
 0002:000c5d40       _exit                      0055bd40 f   LIBCMTD:crt0dat.obj
 0002:000c5d60       __exit                     0055bd60 f   LIBCMTD:crt0dat.obj
 0002:000c5d80       __cexit                    0055bd80 f   LIBCMTD:crt0dat.obj
 0002:000c5da0       __c_exit                   0055bda0 f   LIBCMTD:crt0dat.obj
 0002:000c5dc0       __amsg_exit                0055bdc0 f   LIBCMTD:crt0dat.obj
 0002:000c5e10       ___freeCrtMemory           0055be10 f   LIBCMTD:crt0dat.obj
 0002:000c6230       ___crtCorExitProcess       0055c230 f   LIBCMTD:crt0dat.obj
 0002:000c6280       ___crtExitProcess          0055c280 f   LIBCMTD:crt0dat.obj
 0002:000c62b0       __lockexit                 0055c2b0 f   LIBCMTD:crt0dat.obj
 0002:000c62d0       __unlockexit               0055c2d0 f   LIBCMTD:crt0dat.obj
 0002:000c62f0       __init_pointers            0055c2f0 f   LIBCMTD:crt0dat.obj
 0002:000c63e0       __initterm_e               0055c3e0 f   LIBCMTD:crt0dat.obj
 0002:000c6430       __get_wpgmptr              0055c430 f   LIBCMTD:crt0dat.obj
 0002:000c6560       __get_pgmptr               0055c560 f   LIBCMTD:crt0dat.obj
 0002:000c6690       _fprintf                   0055c690 f   LIBCMTD:fprintf.obj
 0002:000c69e0       __fprintf_l                0055c9e0 f   LIBCMTD:fprintf.obj
 0002:000c6a20       __fprintf_s_l              0055ca20 f   LIBCMTD:fprintf.obj
 0002:000c6a60       _fprintf_s                 0055ca60 f   LIBCMTD:fprintf.obj
 0002:000c6a90       __fprintf_p_l              0055ca90 f   LIBCMTD:fprintf.obj
 0002:000c6ad0       __fprintf_p                0055cad0 f   LIBCMTD:fprintf.obj
 0002:000c6b00       ___iob_func                0055cb00 f   LIBCMTD:_file.obj
 0002:000c6b10       ___initstdio               0055cb10 f   LIBCMTD:_file.obj
 0002:000c6cb0       ___endstdio                0055ccb0 f   LIBCMTD:_file.obj
 0002:000c6cf0       __lock_file                0055ccf0 f   LIBCMTD:_file.obj
 0002:000c6d60       __lock_file2               0055cd60 f   LIBCMTD:_file.obj
 0002:000c6db0       __unlock_file              0055cdb0 f   LIBCMTD:_file.obj
 0002:000c6e20       __unlock_file2             0055ce20 f   LIBCMTD:_file.obj
 0002:000c6e70       _strlen                    0055ce70 f   LIBCMTD:strlen.obj
 0002:000c6f20       _strncmp                   0055cf20 f   LIBCMTD:strncmp.obj
 0002:000c70f0       @__security_check_cookie@4 0055d0f0 f   LIBCMTD:secchk.obj
 0002:000c7110       _strcpy                    0055d110 f   LIBCMTD:strcat.obj
 0002:000c7120       _strcat                    0055d120 f   LIBCMTD:strcat.obj
 0002:000c7250       __write                    0055d250 f   LIBCMTD:write.obj
 0002:000c7500       __write_nolock             0055d500 f   LIBCMTD:write.obj
 0002:000c8310       __wassert                  0055e310 f   LIBCMTD:wassert.obj
 0002:000c91d0       _qsort                     0055f1d0 f   LIBCMTD:qsort.obj
 0002:000c98f0       _realloc                   0055f8f0 f   LIBCMTD:dbgrealloc.obj
 0002:000c9920       __lseeki64                 0055f920 f   LIBCMTD:lseeki64.obj
 0002:000c9c00       __lseeki64_nolock          0055fc00 f   LIBCMTD:lseeki64.obj
 0002:000c9d30       __alldiv                   0055fd30 f   LIBCMTD:lldiv.obj
 0002:000c9e10       __allmul                   0055fe10 f   LIBCMTD:llmul.obj
 0002:000c9e60       _log10                     0055fe60 f   LIBCMTD:_log10_.obj
 0002:000c9ea0       __CIlog10                  0055fea0 f   LIBCMTD:_log10_.obj
 0002:000c9edb       __CIlog10_default          0055fedb f   LIBCMTD:_log10_.obj
 0002:000c9eef       __log10_default            0055feef     LIBCMTD:_log10_.obj
 0002:000ca010       _fflush                    00560010 f   LIBCMTD:fflush.obj
 0002:000ca0d0       __fflush_nolock            005600d0 f   LIBCMTD:fflush.obj
 0002:000ca140       __flush                    00560140 f   LIBCMTD:fflush.obj
 0002:000ca230       __flushall                 00560230 f   LIBCMTD:fflush.obj
 0002:000ca460       _sprintf                   00560460 f   LIBCMTD:sprintf.obj
 0002:000ca640       __sprintf_l                00560640 f   LIBCMTD:sprintf.obj
 0002:000ca680       _sprintf_s                 00560680 f   LIBCMTD:sprintf.obj
 0002:000ca6c0       __sprintf_s_l              005606c0 f   LIBCMTD:sprintf.obj
 0002:000ca700       __snprintf_s               00560700 f   LIBCMTD:sprintf.obj
 0002:000ca740       __snprintf_s_l             00560740 f   LIBCMTD:sprintf.obj
 0002:000ca780       __sprintf_p                00560780 f   LIBCMTD:sprintf.obj
 0002:000ca7c0       __sprintf_p_l              005607c0 f   LIBCMTD:sprintf.obj
 0002:000ca800       __scprintf                 00560800 f   LIBCMTD:sprintf.obj
 0002:000ca830       __scprintf_p               00560830 f   LIBCMTD:sprintf.obj
 0002:000ca860       __scprintf_l               00560860 f   LIBCMTD:sprintf.obj
 0002:000ca890       __scprintf_p_l             00560890 f   LIBCMTD:sprintf.obj
 0002:000ca8c0       _strncat                   005608c0 f   LIBCMTD:strncat.obj
 0002:000caa50       __strtod_l                 00560a50 f   LIBCMTD:strtod.obj
 0002:000cacc0       ??0_LocaleUpdate@@QAE@PAUlocaleinfo_struct@@@Z 00560cc0 f i LIBCMTD:strtod.obj
 0002:000cadd0       ??1_LocaleUpdate@@QAE@XZ   00560dd0 f i LIBCMTD:strtod.obj
 0002:000cae10       ?GetLocaleT@_LocaleUpdate@@QAEPAUlocaleinfo_struct@@XZ 00560e10 f i LIBCMTD:strtod.obj
 0002:000cae30       _strtod                    00560e30 f   LIBCMTD:strtod.obj
 0002:000cae50       _strpbrk                   00560e50 f   LIBCMTD:strpbrk.obj
 0002:000caea0       _strtol                    00560ea0 f   LIBCMTD:strtol.obj
 0002:000cb520       __strtol_l                 00561520 f   LIBCMTD:strtol.obj
 0002:000cb550       _strtoul                   00561550 f   LIBCMTD:strtol.obj
 0002:000cb5b0       __strtoul_l                005615b0 f   LIBCMTD:strtol.obj
 0002:000cb5e0       _strstr                    005615e0 f   LIBCMTD:strstr.obj
 0002:000cb690       _strcmp                    00561690 f   LIBCMTD:strcmp.obj
 0002:000cb740       __strtime_s                00561740 f   LIBCMTD:strtime.obj
 0002:000cb9b0       __strtime                  005619b0 f   LIBCMTD:strtime.obj
 0002:000cb9f0       __strdate_s                005619f0 f   LIBCMTD:strdate.obj
 0002:000cbc70       __strdate                  00561c70 f   LIBCMTD:strdate.obj
 0002:000cbcb0       _strrchr                   00561cb0 f   LIBCMTD:strrchr.obj
 0002:000cbcf0       _memcmp                    00561cf0 f   LIBCMTD:memcmp.obj
 0002:000cca10       __telli64                  00562a10 f   LIBCMTD:telli64.obj
 0002:000cca30       _exp                       00562a30 f   LIBCMTD:_87ctran_.obj
 0002:000cca6c       __CIexp                    00562a6c f   LIBCMTD:_87ctran_.obj
 0002:000ccaa7       __exp_default              00562aa7 f   LIBCMTD:_87ctran_.obj
 0002:000ccab1       __CIexp_default            00562ab1 f   LIBCMTD:_87ctran_.obj
 0002:000ccae0       _mainCRTStartup            00562ae0 f   LIBCMTD:crt0.obj
 0002:000ccde0       __malloc_dbg               00562de0 f   LIBCMTD:dbgheap.obj
 0002:000cce20       __nh_malloc                00562e20 f   LIBCMTD:dbgheap.obj
 0002:000cce50       __nh_malloc_dbg            00562e50 f   LIBCMTD:dbgheap.obj
 0002:000ccf40       __heap_alloc               00562f40 f   LIBCMTD:dbgheap.obj
 0002:000cd400       __heap_alloc_dbg           00563400 f   LIBCMTD:dbgheap.obj
 0002:000cd470       __calloc_dbg_impl          00563470 f   LIBCMTD:dbgheap.obj
 0002:000cd570       __calloc_dbg               00563570 f   LIBCMTD:dbgheap.obj
 0002:000cd5e0       __recalloc                 005635e0 f   LIBCMTD:dbgheap.obj
 0002:000cd620       __realloc_dbg              00563620 f   LIBCMTD:dbgheap.obj
 0002:000cde60       __recalloc_dbg             00563e60 f   LIBCMTD:dbgheap.obj
 0002:000cdfa0       __expand                   00563fa0 f   LIBCMTD:dbgheap.obj
 0002:000cdfd0       __expand_dbg               00563fd0 f   LIBCMTD:dbgheap.obj
 0002:000ce120       __free_nolock              00564120 f   LIBCMTD:dbgheap.obj
 0002:000ce140       __free_dbg                 00564140 f   LIBCMTD:dbgheap.obj
 0002:000ce1e0       __free_dbg_nolock          005641e0 f   LIBCMTD:dbgheap.obj
 0002:000ce800       __msize                    00564800 f   LIBCMTD:dbgheap.obj
 0002:000ce820       __msize_dbg                00564820 f   LIBCMTD:dbgheap.obj
 0002:000cea80       __CrtSetBreakAlloc         00564a80 f   LIBCMTD:dbgheap.obj
 0002:000ceab0       __CrtSetDbgBlockType       00564ab0 f   LIBCMTD:dbgheap.obj
 0002:000cebd0       __CrtSetAllocHook          00564bd0 f   LIBCMTD:dbgheap.obj
 0002:000cec00       __CrtGetAllocHook          00564c00 f   LIBCMTD:dbgheap.obj
 0002:000cec70       __CrtCheckMemory           00564c70 f   LIBCMTD:dbgheap.obj
 0002:000cf1e0       __CrtSetDbgFlag            005651e0 f   LIBCMTD:dbgheap.obj
 0002:000cf380       __CrtDoForAllClientObjects 00565380 f   LIBCMTD:dbgheap.obj
 0002:000cf4f0       __CrtIsValidPointer        005654f0 f   LIBCMTD:dbgheap.obj
 0002:000cf510       __CrtIsValidHeapPointer    00565510 f   LIBCMTD:dbgheap.obj
 0002:000cf5d0       __CrtIsMemoryBlock         005655d0 f   LIBCMTD:dbgheap.obj
 0002:000cf7a0       __CrtReportBlockType       005657a0 f   LIBCMTD:dbgheap.obj
 0002:000cf7e0       __CrtSetDumpClient         005657e0 f   LIBCMTD:dbgheap.obj
 0002:000cf810       __CrtGetDumpClient         00565810 f   LIBCMTD:dbgheap.obj
 0002:000cf820       __CrtMemCheckpoint         00565820 f   LIBCMTD:dbgheap.obj
 0002:000cfac0       __CrtMemDifference         00565ac0 f   LIBCMTD:dbgheap.obj
 0002:000cfd60       __CrtMemDumpAllObjectsSince 00565d60 f   LIBCMTD:dbgheap.obj
 0002:000d0390       __invoke_watson_if_oneof   00566390 f i LIBCMTD:dbgheap.obj
 0002:000d03f0       __CrtDumpMemoryLeaks       005663f0 f   LIBCMTD:dbgheap.obj
 0002:000d0480       __CrtMemDumpStatistics     00566480 f   LIBCMTD:dbgheap.obj
 0002:000d05d0       __aligned_malloc           005665d0 f   LIBCMTD:dbgheap.obj
 0002:000d0600       __aligned_malloc_dbg       00566600 f   LIBCMTD:dbgheap.obj
 0002:000d0630       __aligned_realloc          00566630 f   LIBCMTD:dbgheap.obj
 0002:000d0660       __aligned_recalloc         00566660 f   LIBCMTD:dbgheap.obj
 0002:000d0690       __aligned_realloc_dbg      00566690 f   LIBCMTD:dbgheap.obj
 0002:000d06c0       __aligned_recalloc_dbg     005666c0 f   LIBCMTD:dbgheap.obj
 0002:000d0700       __aligned_offset_malloc    00566700 f   LIBCMTD:dbgheap.obj
 0002:000d0730       __aligned_offset_malloc_dbg 00566730 f   LIBCMTD:dbgheap.obj
 0002:000d0940       __aligned_offset_realloc   00566940 f   LIBCMTD:dbgheap.obj
 0002:000d0970       __aligned_offset_recalloc  00566970 f   LIBCMTD:dbgheap.obj
 0002:000d09a0       __aligned_offset_realloc_dbg 005669a0 f   LIBCMTD:dbgheap.obj
 0002:000d0d20       __aligned_offset_recalloc_dbg 00566d20 f   LIBCMTD:dbgheap.obj
 0002:000d0e70       __aligned_free             00566e70 f   LIBCMTD:dbgheap.obj
 0002:000d0e90       __aligned_free_dbg         00566e90 f   LIBCMTD:dbgheap.obj
 0002:000d0f70       __CrtSetDebugFillThreshold 00566f70 f   LIBCMTD:dbgheap.obj
 0002:000d0fa0       __CrtSetCheckCount         00566fa0 f   LIBCMTD:dbgheap.obj
 0002:000d0fc0       __CrtGetCheckCount         00566fc0 f   LIBCMTD:dbgheap.obj
 0002:000d0fd0       __aligned_msize            00566fd0 f   LIBCMTD:dbgheap.obj
 0002:000d1000       __aligned_msize_dbg        00567000 f   LIBCMTD:dbgheap.obj
 0002:000d1150       __flsbuf                   00567150 f   LIBCMTD:_flsbuf.obj
 0002:000d14c0       __output_l                 005674c0 f   LIBCMTD:output.obj
 0002:000d2e00       _get_int_arg               00568e00 f i LIBCMTD:output.obj
 0002:000d2e30       _get_int64_arg             00568e30 f i LIBCMTD:output.obj
 0002:000d2e60       _get_short_arg             00568e60 f i LIBCMTD:output.obj
 0002:000d2e90       __initp_misc_invarg        00568e90 f   LIBCMTD:invarg.obj
 0002:000d2eb0       __invalid_parameter        00568eb0 f   LIBCMTD:invarg.obj
 0002:000d2f40       __invoke_watson            00568f40 f   LIBCMTD:invarg.obj
 0002:000d30e0       __set_invalid_parameter_handler 005690e0 f   LIBCMTD:invarg.obj
 0002:000d3140       __get_invalid_parameter_handler 00569140 f   LIBCMTD:invarg.obj
 0002:000d3180       ?_invalid_parameter@@YAXPBG00II@Z 00569180 f   LIBCMTD:invarg.obj
 0002:000d31b0       ?_invoke_watson@@YAXPBG00II@Z 005691b0 f   LIBCMTD:invarg.obj
 0002:000d31e0       __dosmaperr                005691e0 f   LIBCMTD:dosmap.obj
 0002:000d3220       __get_errno_from_oserr     00569220 f   LIBCMTD:dosmap.obj
 0002:000d32c0       __set_errno                005692c0 f   LIBCMTD:dosmap.obj
 0002:000d3300       __get_errno                00569300 f   LIBCMTD:dosmap.obj
 0002:000d33a0       __set_doserrno             005693a0 f   LIBCMTD:dosmap.obj
 0002:000d33e0       __get_doserrno             005693e0 f   LIBCMTD:dosmap.obj
 0002:000d3480       __errno                    00569480 f   LIBCMTD:dosmap.obj
 0002:000d34b0       ___doserrno                005694b0 f   LIBCMTD:dosmap.obj
 0002:000d34e0       __CrtSetReportHookW2       005694e0 f   LIBCMTD:dbgrptw.obj
 0002:000d38d0       __CrtDbgReportW            005698d0 f   LIBCMTD:dbgrptw.obj
 0002:000d3920       __CrtDbgReportWV           00569920 f i LIBCMTD:dbgrptw.obj
 0002:000d3950       ___crtMessageWindowW       00569950 f   LIBCMTD:dbgrptw.obj
 0002:000d3e50       ?_CrtDbgReportW@@YAHHPBGH00ZZ 00569e50 f   LIBCMTD:dbgrptw.obj
 0002:000d3ea0       __vsnprintf_l              00569ea0 f   LIBCMTD:vsnprint.obj
 0002:000d40b0       __vsnprintf                0056a0b0 f   LIBCMTD:vsnprint.obj
 0002:000d40e0       _DebuggerKnownHandle       0056a0e0 f   LIBCMTD:_error_.obj
 0002:000d41c0       ?_RTC_Failure@@YAXPAXH@Z   0056a1c0 f   LIBCMTD:_error_.obj
 0002:000d4590       ?_RTC_StackFailure@@YAXPAXPBD@Z 0056a590 f   LIBCMTD:_error_.obj
 0002:000d46d0       ?_RTC_AllocaFailure@@YAXPAXPAU_RTC_ALLOCA_NODE@@H@Z 0056a6d0 f   LIBCMTD:_error_.obj
 0002:000d48e0       __RTC_UninitUse            0056a8e0 f   LIBCMTD:_error_.obj
 0002:000d4a10       __RTC_NumErrors            0056aa10 f   LIBCMTD:_userapi_.obj
 0002:000d4a20       __RTC_GetErrDesc           0056aa20 f   LIBCMTD:_userapi_.obj
 0002:000d4a40       __RTC_SetErrorType         0056aa40 f   LIBCMTD:_userapi_.obj
 0002:000d4a70       __RTC_SetErrorFunc         0056aa70 f   LIBCMTD:_userapi_.obj
 0002:000d4aa0       __RTC_SetErrorFuncW        0056aaa0 f   LIBCMTD:_userapi_.obj
 0002:000d4ad0       ?_RTC_GetErrorFunc@@YAP6AHHPBDH00ZZPBX@Z 0056aad0 f   LIBCMTD:_userapi_.obj
 0002:000d4ae0       ?_RTC_GetErrorFuncW@@YAP6AHHPB_WH00ZZPBX@Z 0056aae0 f   LIBCMTD:_userapi_.obj
 0002:000d4af0       __chkesp                   0056aaf0 f   LIBCMTD:chkesp.obj
 0002:000d4b40       __CRT_RTC_INIT             0056ab40 f   LIBCMTD:chkesp.obj
 0002:000d4b50       __CRT_RTC_INITW            0056ab50 f   LIBCMTD:chkesp.obj
 0002:000d4b60       __VEC_memcpy               0056ab60 f   LIBCMTD:p4_memcpy.obj
 0002:000d4d30       __get_sse2_info            0056ad30 f   LIBCMTD:cpu_disp.obj
 0002:000d4ea0       ___sse2_available_init     0056aea0 f   LIBCMTD:cpu_disp.obj
 0002:000d4ec0       __stbuf                    0056aec0 f   LIBCMTD:_sftbuf.obj
 0002:000d5070       __ftbuf                    0056b070 f   LIBCMTD:_sftbuf.obj
 0002:000d5120       __except_handler4          0056b120 f   LIBCMTD:chandler4.obj
 0002:000d53d0       _vprintf_helper            0056b3d0 f   LIBCMTD:vprintf.obj
 0002:000d5530       __vprintf_l                0056b530 f   LIBCMTD:vprintf.obj
 0002:000d5560       __vprintf_s_l              0056b560 f   LIBCMTD:vprintf.obj
 0002:000d5590       __vprintf_p_l              0056b590 f   LIBCMTD:vprintf.obj
 0002:000d55c0       _vprintf                   0056b5c0 f   LIBCMTD:vprintf.obj
 0002:000d55f0       _vprintf_s                 0056b5f0 f   LIBCMTD:vprintf.obj
 0002:000d5620       __vprintf_p                0056b620 f   LIBCMTD:vprintf.obj
 0002:000d5650       __alloc_osfhnd             0056b650 f   LIBCMTD:osfinfo.obj
 0002:000d59b0       __set_osfhnd               0056b9b0 f   LIBCMTD:osfinfo.obj
 0002:000d5ab0       __free_osfhnd              0056bab0 f   LIBCMTD:osfinfo.obj
 0002:000d5bd0       __get_osfhandle            0056bbd0 f   LIBCMTD:osfinfo.obj
 0002:000d5d90       __open_osfhandle           0056bd90 f   LIBCMTD:osfinfo.obj
 0002:000d6050       ___lock_fhandle            0056c050 f   LIBCMTD:osfinfo.obj
 0002:000d6190       __unlock_fhandle           0056c190 f   LIBCMTD:osfinfo.obj
 0002:000d61d0       __ioinit                   0056c1d0 f   LIBCMTD:ioinit.obj
 0002:000d67a0       __ioterm                   0056c7a0 f   LIBCMTD:ioinit.obj
 0002:000d6870       __chsize_s                 0056c870 f   LIBCMTD:chsize.obj
 0002:000d6bb0       __chsize_nolock            0056cbb0 f   LIBCMTD:chsize.obj
 0002:000d6ee0       __chsize                   0056cee0 f   LIBCMTD:chsize.obj
 0002:000d6f10       __lseek                    0056cf10 f   LIBCMTD:lseek.obj
 0002:000d71c0       __lseek_nolock             0056d1c0 f   LIBCMTD:lseek.obj
 0002:000d72d0       __setmode                  0056d2d0 f   LIBCMTD:setmode.obj
 0002:000d7600       __setmode_nolock           0056d600 f   LIBCMTD:setmode.obj
 0002:000d7900       __set_fmode                0056d900 f   LIBCMTD:setmode.obj
 0002:000d79e0       __get_fmode                0056d9e0 f   LIBCMTD:setmode.obj
 0002:000d7a80       __setdefaultprecision      0056da80 f   LIBCMTD:fp8.obj
 0002:000d7ad0       __ms_p5_test_fdiv          0056dad0 f   LIBCMTD:_testfdiv_.obj
 0002:000d7b30       __ms_p5_mp_test_fdiv       0056db30 f   LIBCMTD:_testfdiv_.obj
 0002:000d7b90       __forcdecpt                0056db90 f   LIBCMTD:cvt.obj
 0002:000d7bb0       __forcdecpt_l              0056dbb0 f   LIBCMTD:cvt.obj
 0002:000d7ca0       __cropzeros                0056dca0 f   LIBCMTD:cvt.obj
 0002:000d7cc0       __cropzeros_l              0056dcc0 f   LIBCMTD:cvt.obj
 0002:000d7e10       __positive                 0056de10 f   LIBCMTD:cvt.obj
 0002:000d7e50       __fassign_l                0056de50 f   LIBCMTD:cvt.obj
 0002:000d7ec0       __fassign                  0056dec0 f   LIBCMTD:cvt.obj
 0002:000d7ef0       __cftoe_l                  0056def0 f   LIBCMTD:cvt.obj
 0002:000d8590       __cftoe                    0056e590 f   LIBCMTD:cvt.obj
 0002:000d85c0       __cftoa_l                  0056e5c0 f   LIBCMTD:cvt.obj
 0002:000d8f80       ?strrchr@@YAPADPADH@Z      0056ef80 f i LIBCMTD:cvt.obj
 0002:000d8fa0       __cftoa                    0056efa0 f   LIBCMTD:cvt.obj
 0002:000d8fd0       __cftof_l                  0056efd0 f   LIBCMTD:cvt.obj
 0002:000d94d0       __cftof                    0056f4d0 f   LIBCMTD:cvt.obj
 0002:000d9500       __cftog_l                  0056f500 f   LIBCMTD:cvt.obj
 0002:000d97c0       __cftog                    0056f7c0 f   LIBCMTD:cvt.obj
 0002:000d97f0       __cfltcvt_l                0056f7f0 f   LIBCMTD:cvt.obj
 0002:000d98e0       __cfltcvt                  0056f8e0 f   LIBCMTD:cvt.obj
 0002:000d9960       __initp_misc_cfltcvt_tab   0056f960 f   LIBCMTD:cmiscdat.obj
 0002:000d99c0       __VEC_memzero              0056f9c0 f   LIBCMTD:p4_memset.obj
 0002:000d9af0       __fileno                   0056faf0 f   LIBCMTD:fileno.obj
 0002:000d9b80       __freebuf                  0056fb80 f   LIBCMTD:_freebuf.obj
 0002:000d9c30       __filbuf                   0056fc30 f   LIBCMTD:_filbuf.obj
 0002:000d9f10       _memcpy_s                  0056ff10 f   LIBCMTD:memcpy_s.obj
 0002:000da100       __openfile                 00570100 f   LIBCMTD:_open.obj
 0002:000daab0       __getstream                00570ab0 f   LIBCMTD:stream.obj
 0002:000dada4       __local_unwind4            00570da4 f   LIBCMTD:exsup4.obj
 0002:000dae7a       __seh_longjmp_unwind4@4    00570e7a f   LIBCMTD:exsup4.obj
 0002:000dae96       @_EH4_CallFilterFunc@8     00570e96 f   LIBCMTD:exsup4.obj
 0002:000daead       @_EH4_TransferToHandler@8  00570ead f   LIBCMTD:exsup4.obj
 0002:000daec6       @_EH4_GlobalUnwind@4       00570ec6 f   LIBCMTD:exsup4.obj
 0002:000daee0       @_EH4_LocalUnwind@16       00570ee0 f   LIBCMTD:exsup4.obj
 0002:000daf50       __input_l                  00570f50 f   LIBCMTD:input.obj
 0002:000dcda0       __INTRN_LOCALE_CONV        00572da0 f i LIBCMTD:input.obj
 0002:000dcf10       __input_s_l                00572f10 f   LIBCMTD:inputs.obj
 0002:000df350       __stricmp_l                00575350 f   LIBCMTD:stricmp.obj
 0002:000df560       ___ascii_stricmp           00575560 f   LIBCMTD:stricmp.obj
 0002:000df5f0       __strcmpi                  005755f0 f   LIBCMTD:stricmp.obj
 0002:000df5f0       __stricmp                  005755f0 f   LIBCMTD:stricmp.obj
 0002:000df740       __onexit                   00575740 f   LIBCMTD:onexit.obj
 0002:000df990       _atexit                    00575990 f   LIBCMTD:onexit.obj
 0002:000df9c0       ___onexitinit              005759c0 f   LIBCMTD:onexit.obj
 0002:000dfa30       __RTC_Initialize           00575a30 f   LIBCMTD:_initsect_.obj
 0002:000dfa60       __RTC_Terminate            00575a60 f   LIBCMTD:_initsect_.obj
 0002:000dfa90       __ValidateImageBase        00575a90 f   LIBCMTD:pesect.obj
 0002:000dfb10       __FindPESection            00575b10 f   LIBCMTD:pesect.obj
 0002:000dfbb0       __IsNonwritableInCurrentImage 00575bb0 f   LIBCMTD:pesect.obj
 0002:000dfd10       __encode_pointer           00575d10 f   LIBCMTD:tidtable.obj
 0002:000dfdd0       __crt_wait_module_handle   00575dd0 f i LIBCMTD:tidtable.obj
 0002:000dfe10       __encoded_null             00575e10 f   LIBCMTD:tidtable.obj
 0002:000dfe30       __decode_pointer           00575e30 f   LIBCMTD:tidtable.obj
 0002:000dfef0       ___crtTlsAlloc@4           00575ef0 f   LIBCMTD:tidtable.obj
 0002:000dff10       ___fls_getvalue@4          00575f10 f   LIBCMTD:tidtable.obj
 0002:000dff40       ___get_flsindex            00575f40 f   LIBCMTD:tidtable.obj
 0002:000dff50       ___set_flsgetvalue         00575f50 f   LIBCMTD:tidtable.obj
 0002:000dffb0       ___fls_setvalue@8          00575fb0 f   LIBCMTD:tidtable.obj
 0002:000dffe0       __mtinit                   00575fe0 f   LIBCMTD:tidtable.obj
 0002:000e0270       __mtterm                   00576270 f   LIBCMTD:tidtable.obj
 0002:000e02e0       __initptd                  005762e0 f   LIBCMTD:tidtable.obj
 0002:000e0490       __getptd_noexit            00576490 f   LIBCMTD:tidtable.obj
 0002:000e0580       __getptd                   00576580 f   LIBCMTD:tidtable.obj
 0002:000e05b0       __freefls@4                005765b0 f   LIBCMTD:tidtable.obj
 0002:000e0840       __freeptd                  00576840 f   LIBCMTD:tidtable.obj
 0002:000e08e0       ___threadid                005768e0 f   LIBCMTD:tidtable.obj
 0002:000e08f0       ___threadhandle            005768f0 f   LIBCMTD:tidtable.obj
 0002:000e0900       __FF_MSGBANNER             00576900 f   LIBCMTD:crt0msg.obj
 0002:000e0960       __NMSG_WRITE               00576960 f   LIBCMTD:crt0msg.obj
 0002:000e0ca0       __GET_RTERRMSG             00576ca0 f   LIBCMTD:crt0msg.obj
 0002:000e0d00       ___updatetmbcinfo          00576d00 f   LIBCMTD:mbctype.obj
 0002:000e0e50       __setmbcp                  00576e50 f   LIBCMTD:mbctype.obj
 0002:000e12e0       __setmbcp_nolock           005772e0 f   LIBCMTD:mbctype.obj
 0002:000e1cc0       __getmbcp                  00577cc0 f   LIBCMTD:mbctype.obj
 0002:000e1d50       ___initmbctable            00577d50 f   LIBCMTD:mbctype.obj
 0002:000e1d80       __mtinitlocks              00577d80 f   LIBCMTD:mlock.obj
 0002:000e1e30       __mtdeletelocks            00577e30 f   LIBCMTD:mlock.obj
 0002:000e1f20       __mtinitlocknum            00577f20 f   LIBCMTD:mlock.obj
 0002:000e20c0       __lock                     005780c0 f   LIBCMTD:mlock.obj
 0002:000e2110       __unlock                   00578110 f   LIBCMTD:mlock.obj
 0002:000e2130       __lockerr_exit             00578130 f   LIBCMTD:mlock.obj
 0002:000e2160       __initp_eh_hooks           00578160 f   LIBCMTD:hooks.obj
 0002:000e2180       ?terminate@@YAXXZ          00578180 f   LIBCMTD:hooks.obj
 0002:000e2220       ?unexpected@@YAXXZ         00578220 f   LIBCMTD:hooks.obj
 0002:000e2250       ?_inconsistency@@YAXXZ     00578250 f   LIBCMTD:hooks.obj
 0002:000e2300       __initp_misc_winxfltr      00578300 f   LIBCMTD:winxfltr.obj
 0002:000e2310       ___CppXcptFilter           00578310 f   LIBCMTD:winxfltr.obj
 0002:000e2340       __XcptFilter               00578340 f   LIBCMTD:winxfltr.obj
 0002:000e25f0       __initp_misc_winsig        005785f0 f   LIBCMTD:winsig.obj
 0002:000e2630       _signal                    00578630 f   LIBCMTD:winsig.obj
 0002:000e2c00       _raise                     00578c00 f   LIBCMTD:winsig.obj
 0002:000e3050       ___get_sigabrt             00579050 f   LIBCMTD:winsig.obj
 0002:000e3070       ___fpecode                 00579070 f   LIBCMTD:winsig.obj
 0002:000e3090       ___pxcptinfoptrs           00579090 f   LIBCMTD:winsig.obj
 0002:000e30b0       __initp_misc_rand_s        005790b0 f   LIBCMTD:rand_s.obj
 0002:000e30d0       _rand_s                    005790d0 f   LIBCMTD:rand_s.obj
 0002:000e3380       ___getlocaleinfo           00579380 f   LIBCMTD:inithelp.obj
 0002:000e36d0       __initp_misc_purevirt      005796d0 f   LIBCMTD:inithelp.obj
 0002:000e36f0       __initp_misc_initcrit      005796f0 f   LIBCMTD:initcrit.obj
 0002:000e3710       ___crtInitCritSecAndSpinCount 00579710 f   LIBCMTD:initcrit.obj
 0002:000e37e0       __initp_heap_handler       005797e0 f   LIBCMTD:handler.obj
 0002:000e3800       ?_set_new_handler@@YAP6AHI@ZP6AHI@Z@Z 00579800 f   LIBCMTD:handler.obj
 0002:000e3860       ?_set_new_handler@@YAP6AHI@ZH@Z 00579860 f   LIBCMTD:handler.obj
 0002:000e38b0       ?_query_new_handler@@YAP6AHI@ZXZ 005798b0 f   LIBCMTD:handler.obj
 0002:000e38d0       __callnewh                 005798d0 f   LIBCMTD:handler.obj
 0002:000e3920       _vfprintf_helper           00579920 f   LIBCMTD:vfprintf.obj
 0002:000e3c60       __vfprintf_l               00579c60 f   LIBCMTD:vfprintf.obj
 0002:000e3c90       __vfprintf_s_l             00579c90 f   LIBCMTD:vfprintf.obj
 0002:000e3cc0       __vfprintf_p_l             00579cc0 f   LIBCMTD:vfprintf.obj
 0002:000e3cf0       _vfprintf                  00579cf0 f   LIBCMTD:vfprintf.obj
 0002:000e3d20       _vfprintf_s                00579d20 f   LIBCMTD:vfprintf.obj
 0002:000e3d50       __vfprintf_p               00579d50 f   LIBCMTD:vfprintf.obj
 0002:000e3d80       __fcloseall                00579d80 f   LIBCMTD:closeall.obj
 0002:000e3f00       ___report_gsfailure        00579f00 f   LIBCMTD:gs_report.obj
 0002:000e4060       __putwch                   0057a060 f   LIBCMTD:putwch.obj
 0002:000e4110       __putwch_nolock            0057a110 f   LIBCMTD:putwch.obj
 0002:000e4250       __cputws                   0057a250 f   LIBCMTD:putwch.obj
 0002:000e43f0       __mbtowc_l                 0057a3f0 f   LIBCMTD:mbtowc.obj
 0002:000e4690       _mbtowc                    0057a690 f   LIBCMTD:mbtowc.obj
 0002:000e46c0       __isleadbyte_l             0057a6c0 f i LIBCMTD:_wctype.obj
 0002:000e4720       _isleadbyte                0057a720 f i LIBCMTD:_wctype.obj
 0002:000e4740       __iswalpha_l               0057a740 f i LIBCMTD:_wctype.obj
 0002:000e4770       _iswalpha                  0057a770 f i LIBCMTD:_wctype.obj
 0002:000e4790       __iswupper_l               0057a790 f i LIBCMTD:_wctype.obj
 0002:000e47b0       _iswupper                  0057a7b0 f i LIBCMTD:_wctype.obj
 0002:000e47d0       __iswlower_l               0057a7d0 f i LIBCMTD:_wctype.obj
 0002:000e47f0       _iswlower                  0057a7f0 f i LIBCMTD:_wctype.obj
 0002:000e4810       __iswdigit_l               0057a810 f i LIBCMTD:_wctype.obj
 0002:000e4830       _iswdigit                  0057a830 f i LIBCMTD:_wctype.obj
 0002:000e4850       __iswxdigit_l              0057a850 f i LIBCMTD:_wctype.obj
 0002:000e4880       _iswxdigit                 0057a880 f i LIBCMTD:_wctype.obj
 0002:000e48a0       __iswspace_l               0057a8a0 f i LIBCMTD:_wctype.obj
 0002:000e48c0       _iswspace                  0057a8c0 f i LIBCMTD:_wctype.obj
 0002:000e48e0       __iswpunct_l               0057a8e0 f i LIBCMTD:_wctype.obj
 0002:000e4900       _iswpunct                  0057a900 f i LIBCMTD:_wctype.obj
 0002:000e4920       __iswalnum_l               0057a920 f i LIBCMTD:_wctype.obj
 0002:000e4950       _iswalnum                  0057a950 f i LIBCMTD:_wctype.obj
 0002:000e4970       __iswprint_l               0057a970 f i LIBCMTD:_wctype.obj
 0002:000e49a0       _iswprint                  0057a9a0 f i LIBCMTD:_wctype.obj
 0002:000e49c0       __iswgraph_l               0057a9c0 f i LIBCMTD:_wctype.obj
 0002:000e49f0       _iswgraph                  0057a9f0 f i LIBCMTD:_wctype.obj
 0002:000e4a10       __iswcntrl_l               0057aa10 f i LIBCMTD:_wctype.obj
 0002:000e4a30       _iswcntrl                  0057aa30 f i LIBCMTD:_wctype.obj
 0002:000e4a50       _iswascii                  0057aa50 f i LIBCMTD:_wctype.obj
 0002:000e4a70       __iswcsym_l                0057aa70 f i LIBCMTD:_wctype.obj
 0002:000e4ac0       ___iswcsym                 0057aac0 f i LIBCMTD:_wctype.obj
 0002:000e4b10       __iswcsymf_l               0057ab10 f i LIBCMTD:_wctype.obj
 0002:000e4b60       ___iswcsymf                0057ab60 f i LIBCMTD:_wctype.obj
 0002:000e4bb0       __isatty                   0057abb0 f   LIBCMTD:isatty.obj
 0002:000e4cd0       ___crtMessageBoxW          0057acd0 f   LIBCMTD:crtmboxw.obj
 0002:000e4f80       __itow_s                   0057af80 f   LIBCMTD:xtows.obj
 0002:000e5450       __ltow_s                   0057b450 f   LIBCMTD:xtows.obj
 0002:000e54a0       __ultow_s                  0057b4a0 f   LIBCMTD:xtows.obj
 0002:000e54d0       __i64tow_s                 0057b4d0 f   LIBCMTD:xtows.obj
 0002:000e59f0       __ui64tow_s                0057b9f0 f   LIBCMTD:xtows.obj
 0002:000e5a20       _wcsncat_s                 0057ba20 f   LIBCMTD:wcsncat_s.obj
 0002:000e6000       _wcsncpy_s                 0057c000 f   LIBCMTD:wcsncpy_s.obj
 0002:000e6510       _wcscat_s                  0057c510 f   LIBCMTD:wcscat_s.obj
 0002:000e69f0       _wcscpy_s                  0057c9f0 f   LIBCMTD:wcscpy_s.obj
 0002:000e6d90       _fwprintf                  0057cd90 f   LIBCMTD:fwprintf.obj
 0002:000e6f70       __fwprintf_l               0057cf70 f   LIBCMTD:fwprintf.obj
 0002:000e6fb0       __fwprintf_s_l             0057cfb0 f   LIBCMTD:fwprintf.obj
 0002:000e6ff0       _fwprintf_s                0057cff0 f   LIBCMTD:fwprintf.obj
 0002:000e7020       __fwprintf_p_l             0057d020 f   LIBCMTD:fwprintf.obj
 0002:000e7060       __fwprintf_p               0057d060 f   LIBCMTD:fwprintf.obj
 0002:000e7090       _setvbuf                   0057d090 f   LIBCMTD:setvbuf.obj
 0002:000e7420       _abort                     0057d420 f   LIBCMTD:abort.obj
 0002:000e75a0       __set_abort_behavior       0057d5a0 f   LIBCMTD:abort.obj
 0002:000e75e0       _wcslen                    0057d5e0 f   LIBCMTD:wcslen.obj
 0002:000e7620       __set_error_mode           0057d620 f   LIBCMTD:errmode.obj
 0002:000e7710       ___set_app_type            0057d710 f   LIBCMTD:errmode.obj
 0002:000e7730       ___get_app_type            0057d730 f   LIBCMTD:errmode.obj
 0002:000e7740       __vswprintf_helper         0057d740 f   LIBCMTD:vswprnc.obj
 0002:000e7a00       __vswprintf_c              0057da00 f   LIBCMTD:vswprnc.obj
 0002:000e7a60       __vswprintf_c_l            0057da60 f   LIBCMTD:vswprnc.obj
 0002:000e7ac0       __vswprintf_s_l            0057dac0 f   LIBCMTD:vswprnc.obj
 0002:000e7dc0       _vswprintf_s               0057ddc0 f   LIBCMTD:vswprnc.obj
 0002:000e7df0       __vsnwprintf_s_l           0057ddf0 f   LIBCMTD:vswprnc.obj
 0002:000e8290       __vsnwprintf_s             0057e290 f   LIBCMTD:vswprnc.obj
 0002:000e82c0       __vswprintf_p              0057e2c0 f   LIBCMTD:vswprnc.obj
 0002:000e8320       __vswprintf_p_l            0057e320 f   LIBCMTD:vswprnc.obj
 0002:000e8380       __sse2_mathfcns_init       0057e380 f   LIBCMTD:_mathfcns_.obj
 0002:000e83b0       __set_SSE2_enable          0057e3b0 f   LIBCMTD:_mathfcns_.obj
 0002:000e83e0       __CIlog10_pentium4         0057e3e0 f   LIBCMTD:_log10_pentium4_.obj
 0002:000e83f8       __log10_pentium4           0057e3f8     LIBCMTD:_log10_pentium4_.obj
 0002:000e8731       __fFEXP                    0057e731     LIBCMTD:_87tran_.obj
 0002:000e8798       __rtinfpopse               0057e798     LIBCMTD:_87tran_.obj
 0002:000e879a       __rtinfnpopse              0057e79a     LIBCMTD:_87tran_.obj
 0002:000e87aa       __fFLN                     0057e7aa     LIBCMTD:_87tran_.obj
 0002:000e885f       __rtinfpop                 0057e85f     LIBCMTD:_87tran_.obj
 0002:000e8861       __rtinfnpop                0057e861     LIBCMTD:_87tran_.obj
 0002:000e887e       __ffexpm1                  0057e87e     LIBCMTD:_87tran_.obj
 0002:000e89b0       __trandisp1                0057e9b0 f   LIBCMTD:_87disp_.obj
 0002:000e8a17       __trandisp2                0057ea17 f   LIBCMTD:_87disp_.obj
 0002:000e8aa3       __rttospopde               0057eaa3     LIBCMTD:_87disp_.obj
 0002:000e8aa8       __rttospop                 0057eaa8     LIBCMTD:_87disp_.obj
 0002:000e8aaa       __rtnospop                 0057eaaa     LIBCMTD:_87disp_.obj
 0002:000e8aac       __rttosnpop                0057eaac     LIBCMTD:_87disp_.obj
 0002:000e8aad       __rtnospopde               0057eaad     LIBCMTD:_87disp_.obj
 0002:000e8ab4       __rtzeropop                0057eab4     LIBCMTD:_87disp_.obj
 0002:000e8ab6       __rtzeronpop               0057eab6     LIBCMTD:_87disp_.obj
 0002:000e8abb       __rtonepop                 0057eabb     LIBCMTD:_87disp_.obj
 0002:000e8abd       __rtonenpop                0057eabd     LIBCMTD:_87disp_.obj
 0002:000e8ac2       __tosnan1                  0057eac2     LIBCMTD:_87disp_.obj
 0002:000e8aed       __nosnan2                  0057eaed     LIBCMTD:_87disp_.obj
 0002:000e8aef       __tosnan2                  0057eaef     LIBCMTD:_87disp_.obj
 0002:000e8b17       __nan2                     0057eb17     LIBCMTD:_87disp_.obj
 0002:000e8b56       __rtindfpop                0057eb56     LIBCMTD:_87disp_.obj
 0002:000e8b58       __rtindfnpop               0057eb58     LIBCMTD:_87disp_.obj
 0002:000e8b69       __rttosnpopde              0057eb69     LIBCMTD:_87disp_.obj
 0002:000e8b73       __rtchsifneg               0057eb73     LIBCMTD:_87disp_.obj
 0002:000e8bf0       __twoToTOS                 0057ebf0 f   LIBCMTD:_common_.obj
 0002:000e8c05       __load_CW                  0057ec05 f   LIBCMTD:_common_.obj
 0002:000e8c1c       __convertTOStoQNaN         0057ec1c f   LIBCMTD:_common_.obj
 0002:000e8c35       __fload_withFB             0057ec35 f   LIBCMTD:_common_.obj
 0002:000e8c78       __checkTOS_withFB          0057ec78 f   LIBCMTD:_common_.obj
 0002:000e8c8e       __fast_exit                0057ec8e f   LIBCMTD:_common_.obj
 0002:000e8c9b       __math_exit                0057ec9b f   LIBCMTD:_common_.obj
 0002:000e8cc5       __check_overflow_exit      0057ecc5 f   LIBCMTD:_common_.obj
 0002:000e8cd9       __check_range_exit         0057ecd9 f   LIBCMTD:_common_.obj
 0002:000e8de0       __startTwoArgErrorHandling 0057ede0 f   LIBCMTD:_genexcep_.obj
 0002:000e8df7       __startOneArgErrorHandling 0057edf7 f   LIBCMTD:_genexcep_.obj
 0002:000e8e50       __commit                   0057ee50 f   LIBCMTD:commit.obj
 0002:000e90f0       __vsprintf_l               0057f0f0 f   LIBCMTD:vsprintf.obj
 0002:000e92c0       _vsprintf                  0057f2c0 f   LIBCMTD:vsprintf.obj
 0002:000e92f0       __vscprintf_helper         0057f2f0 f   LIBCMTD:vsprintf.obj
 0002:000e93e0       __vscprintf                0057f3e0 f   LIBCMTD:vsprintf.obj
 0002:000e9410       __vscprintf_l              0057f410 f   LIBCMTD:vsprintf.obj
 0002:000e9440       __vscprintf_p              0057f440 f   LIBCMTD:vsprintf.obj
 0002:000e9470       __vscprintf_p_l            0057f470 f   LIBCMTD:vsprintf.obj
 0002:000e94a0       __vsnprintf_helper         0057f4a0 f   LIBCMTD:vsnprnc.obj
 0002:000e96e0       __vsnprintf_c              0057f6e0 f   LIBCMTD:vsnprnc.obj
 0002:000e9740       __vsnprintf_c_l            0057f740 f   LIBCMTD:vsnprnc.obj
 0002:000e97a0       __vsprintf_s_l             0057f7a0 f   LIBCMTD:vsnprnc.obj
 0002:000e9aa0       _vsprintf_s                0057faa0 f   LIBCMTD:vsnprnc.obj
 0002:000e9ad0       __vsnprintf_s_l            0057fad0 f   LIBCMTD:vsnprnc.obj
 0002:000e9f50       __vsnprintf_s              0057ff50 f   LIBCMTD:vsnprnc.obj
 0002:000e9f80       __vsprintf_p               0057ff80 f   LIBCMTD:vsnprnc.obj
 0002:000e9fe0       __vsprintf_p_l             0057ffe0 f   LIBCMTD:vsnprnc.obj
 0002:000ea040       __fltin2                   00580040 f   LIBCMTD:_cfin_.obj
 0002:000ea150       __chvalidator              00580150 f   LIBCMTD:isctype.obj
 0002:000ea1b0       __chvalidator_l            005801b0 f   LIBCMTD:isctype.obj
 0002:000ea290       __isctype_l                00580290 f   LIBCMTD:isctype.obj
 0002:000ea3f0       __isctype                  005803f0 f   LIBCMTD:isctype.obj
 0002:000ea440       ____setlc_active_func      00580440 f   LIBCMTD:setlocal.obj
 0002:000ea450       ____unguarded_readlc_active_add_func 00580450 f   LIBCMTD:setlocal.obj
 0002:000ea460       ___freetlocinfo            00580460 f   LIBCMTD:setlocal.obj
 0002:000ea800       ___addlocaleref            00580800 f   LIBCMTD:setlocal.obj
 0002:000ea970       ___removelocaleref         00580970 f   LIBCMTD:setlocal.obj
 0002:000eaaf0       ___updatetlocinfo          00580af0 f   LIBCMTD:setlocal.obj
 0002:000eac90       __configthreadlocale       00580c90 f   LIBCMTD:setlocal.obj
 0002:000eade0       __locterm                  00580de0 f   LIBCMTD:setlocal.obj
 0002:000eaea0       __free_locale              00580ea0 f   LIBCMTD:setlocal.obj
 0002:000eb030       ___free_locale             00581030 f   LIBCMTD:setlocal.obj
 0002:000eb050       __create_locale            00581050 f   LIBCMTD:setlocal.obj
 0002:000eb300       ___create_locale           00581300 f   LIBCMTD:setlocal.obj
 0002:000eb320       __get_current_locale       00581320 f   LIBCMTD:setlocal.obj
 0002:000eb480       ___get_current_locale      00581480 f   LIBCMTD:setlocal.obj
 0002:000eb490       _setlocale                 00581490 f   LIBCMTD:setlocal.obj
 0002:000ec760       __expandlocale             00582760 f   LIBCMTD:setlocal.obj
 0002:000ecab0       ___init_dummy              00582ab0 f   LIBCMTD:setlocal.obj
 0002:000ecac0       __strcats                  00582ac0 f   LIBCMTD:setlocal.obj
 0002:000ecb60       ___lc_strtolc              00582b60 f   LIBCMTD:setlocal.obj
 0002:000ecde0       ___lc_lctostr              00582de0 f   LIBCMTD:setlocal.obj
 0002:000ecea0       ?_JumpToContinuation@@YGXPAXPAUEHRegistrationNode@@@Z 00582ea0 f   LIBCMTD:_trnsctrl_.obj
 0002:000ecef0       ?_CallMemberFunction0@@YGXPAX0@Z 00582ef0 f   LIBCMTD:_trnsctrl_.obj
 0002:000ecf00       ?_CallMemberFunction1@@YGXPAX00@Z 00582f00 f   LIBCMTD:_trnsctrl_.obj
 0002:000ecf10       ?_CallMemberFunction2@@YGXPAX00H@Z 00582f10 f   LIBCMTD:_trnsctrl_.obj
 0002:000ecf20       ?_UnwindNestedFrames@@YGXPAUEHRegistrationNode@@PAUEHExceptionRecord@@@Z 00582f20 f   LIBCMTD:_trnsctrl_.obj
 0002:000ecf90       ___CxxFrameHandler         00582f90 f   LIBCMTD:_trnsctrl_.obj
 0002:000ecfe0       ___CxxFrameHandler3        00582fe0 f   LIBCMTD:_trnsctrl_.obj
 0002:000ed030       ___CxxFrameHandler2        00583030 f   LIBCMTD:_trnsctrl_.obj
 0002:000ed080       ___CxxLongjmpUnwind@4      00583080 f   LIBCMTD:_trnsctrl_.obj
 0002:000ed0c0       ?_CallCatchBlock2@@YAPAXPAUEHRegistrationNode@@PBU_s_FuncInfo@@PAXHK@Z 005830c0 f   LIBCMTD:_trnsctrl_.obj
 0002:000ed1b0       ?_CallSETranslator@@YAHPAUEHExceptionRecord@@PAUEHRegistrationNode@@PAX2PBU_s_FuncInfo@@H1@Z 005831b0 f   LIBCMTD:_trnsctrl_.obj
 0002:000ed3c0       ?_GetRangeOfTrysToCheck@@YAPBU_s_TryBlockMapEntry@@PBU_s_FuncInfo@@HHPAI1@Z 005833c0 f   LIBCMTD:_trnsctrl_.obj
 0002:000ed460       __CreateFrameInfo          00583460 f   LIBCMTD:_trnsctrl_.obj
 0002:000ed4a0       __IsExceptionObjectToBeDestroyed 005834a0 f   LIBCMTD:_trnsctrl_.obj
 0002:000ed4e0       __FindAndUnlinkFrame       005834e0 f   LIBCMTD:_trnsctrl_.obj
 0002:000ed560       _strchr                    00583560 f   LIBCMTD:strchr.obj
 0002:000ed566       ___from_strstr_to_strchr   00583566     LIBCMTD:strchr.obj
 0002:000ed660       __CIexp_pentium4           00583660 f   LIBCMTD:_exp_pentium4_.obj
 0002:000ed678       __exp_pentium4             00583678     LIBCMTD:_exp_pentium4_.obj
 0002:000ed9d0       __cintrindisp2             005839d0 f   LIBCMTD:_87cdisp_.obj
 0002:000eda0e       __cintrindisp1             00583a0e f   LIBCMTD:_87cdisp_.obj
 0002:000eda4b       __ctrandisp2               00583a4b f   LIBCMTD:_87cdisp_.obj
 0002:000edbe1       __ctrandisp1               00583be1 f   LIBCMTD:_87cdisp_.obj
 0002:000edc14       __fload                    00583c14 f   LIBCMTD:_87cdisp_.obj
 0002:000edcf0       ?__CxxUnhandledExceptionFilter@@YGJPAU_EXCEPTION_POINTERS@@@Z 00583cf0 f   LIBCMTD:unhandld.obj
 0002:000edd70       ___CxxSetUnhandledExceptionFilter 00583d70 f   LIBCMTD:unhandld.obj
 0002:000edd90       ___security_init_cookie    00583d90 f   LIBCMTD:gs_support.obj
 0002:000edeb0       __setenvp                  00583eb0 f   LIBCMTD:stdenvp.obj
 0002:000ee0c0       __setargv                  005840c0 f   LIBCMTD:stdargv.obj
 0002:000ee220       __set_pgmptr               00584220 f i LIBCMTD:stdargv.obj
 0002:000ee680       ___crtGetEnvironmentStringsA 00584680 f   LIBCMTD:a_env.obj
 0002:000ee920       ___heap_select             00584920 f   LIBCMTD:heapinit.obj
 0002:000ee940       __heap_init                00584940 f   LIBCMTD:heapinit.obj
 0002:000ee9e0       __heap_term                005849e0 f   LIBCMTD:heapinit.obj
 0002:000eeab0       __get_heap_handle          00584ab0 f   LIBCMTD:heapinit.obj
 0002:000eeb00       _V6_HeapAlloc              00584b00 f   LIBCMTD:malloc.obj
 0002:000eebc0       __malloc_base              00584bc0 f   LIBCMTD:malloc.obj
 0002:000eec70       __heap_alloc_base          00584c70 f i LIBCMTD:malloc.obj
 0002:000eed60       __CrtSetReportHook2        00584d60 f   LIBCMTD:dbgrpt.obj
 0002:000ef150       __CrtDbgReport             00585150 f   LIBCMTD:dbgrpt.obj
 0002:000ef1a0       __CrtDbgReportV            005851a0 f i LIBCMTD:dbgrpt.obj
 0002:000ef1d0       ___crtMessageWindowA       005851d0 f   LIBCMTD:dbgrpt.obj
 0002:000ef6d0       __CrtDefaultAllocHook      005856d0 f   LIBCMTD:dbghook.obj
 0002:000ef6e0       __crt_debugger_hook        005856e0 f   LIBCMTD:dbghook.obj
 0002:000ef700       __expand_base              00585700 f   LIBCMTD:expand.obj
 0002:000efa80       __realloc_base             00585a80 f   LIBCMTD:realloc.obj
 0002:000eff00       __free_base                00585f00 f   LIBCMTD:free.obj
 0002:000f0070       __heapchk                  00586070 f   LIBCMTD:heapchk.obj
 0002:000f0180       __heapset                  00586180 f   LIBCMTD:heapchk.obj
 0002:000f0190       __get_sbh_threshold        00586190 f   LIBCMTD:sbheap.obj
 0002:000f01f0       __set_sbh_threshold        005861f0 f   LIBCMTD:sbheap.obj
 0002:000f03f0       __set_amblksiz             005863f0 f   LIBCMTD:sbheap.obj
 0002:000f0540       __get_amblksiz             00586540 f   LIBCMTD:sbheap.obj
 0002:000f0670       ___sbh_heap_init           00586670 f   LIBCMTD:sbheap.obj
 0002:000f06f0       ___sbh_find_block          005866f0 f   LIBCMTD:sbheap.obj
 0002:000f0760       ___sbh_verify_block        00586760 f   LIBCMTD:sbheap.obj
 0002:000f07d0       ___sbh_free_block          005867d0 f   LIBCMTD:sbheap.obj
 0002:000f0f00       ___sbh_alloc_block         00586f00 f   LIBCMTD:sbheap.obj
 0002:000f1570       ___sbh_alloc_new_region    00587570 f   LIBCMTD:sbheap.obj
 0002:000f16d0       ___sbh_alloc_new_group     005876d0 f   LIBCMTD:sbheap.obj
 0002:000f1940       ___sbh_resize_block        00587940 f   LIBCMTD:sbheap.obj
 0002:000f2080       ___sbh_heapmin             00588080 f   LIBCMTD:sbheap.obj
 0002:000f2200       ___sbh_heap_check          00588200 f   LIBCMTD:sbheap.obj
 0002:000f2830       __getbuf                   00588830 f   LIBCMTD:_getbuf.obj
 0002:000f2920       __wctomb_s_l               00588920 f   LIBCMTD:wctomb.obj
 0002:000f2ce0       _wctomb_s                  00588ce0 f   LIBCMTD:wctomb.obj
 0002:000f2d10       __wctomb_l                 00588d10 f   LIBCMTD:wctomb.obj
 0002:000f2db0       _wctomb                    00588db0 f   LIBCMTD:wctomb.obj
 0002:000f2e10       __aulldiv                  00588e10 f   LIBCMTD:ulldiv.obj
 0002:000f2ea0       __aullrem                  00588ea0 f   LIBCMTD:ullrem.obj
 0002:000f2f40       __CrtDbgBreak              00588f40 f   LIBCMTD:dbgrptt.obj
 0002:000f2f50       __CrtSetReportMode         00588f50 f   LIBCMTD:dbgrptt.obj
 0002:000f30e0       __CrtSetReportFile         005890e0 f   LIBCMTD:dbgrptt.obj
 0002:000f3210       __CrtSetReportHook         00589210 f   LIBCMTD:dbgrptt.obj
 0002:000f3240       __CrtGetReportHook         00589240 f   LIBCMTD:dbgrptt.obj
 0002:000f3250       __VCrtDbgReportA           00589250 f   LIBCMTD:dbgrptt.obj
 0002:000f3c80       __VCrtDbgReportW           00589c80 f   LIBCMTD:dbgrptt.obj
 0002:000f4800       __swprintf                 0058a800 f   LIBCMTD:swprintf.obj
 0002:000f4a50       ___swprintf_l              0058aa50 f   LIBCMTD:swprintf.obj
 0002:000f4a90       _swprintf_s                0058aa90 f   LIBCMTD:swprintf.obj
 0002:000f4ad0       __snwprintf_s              0058aad0 f   LIBCMTD:swprintf.obj
 0002:000f4b10       __swprintf_p               0058ab10 f   LIBCMTD:swprintf.obj
 0002:000f4b50       __swprintf_s_l             0058ab50 f   LIBCMTD:swprintf.obj
 0002:000f4b90       __snwprintf_s_l            0058ab90 f   LIBCMTD:swprintf.obj
 0002:000f4bd0       __swprintf_p_l             0058abd0 f   LIBCMTD:swprintf.obj
 0002:000f4c10       __scwprintf                0058ac10 f   LIBCMTD:swprintf.obj
 0002:000f4c40       __scwprintf_p              0058ac40 f   LIBCMTD:swprintf.obj
 0002:000f4c70       __scwprintf_l              0058ac70 f   LIBCMTD:swprintf.obj
 0002:000f4ca0       __scwprintf_p_l            0058aca0 f   LIBCMTD:swprintf.obj
 0002:000f4cd0       ?_RTC_GetSrcLine@@YAHPAEPA_WKPAH1K@Z 0058acd0 f   LIBCMTD:_pdblkup_.obj
 0002:000f5290       __output_s_l               0058b290 f   LIBCMTD:outputs.obj
 0002:000f6d80       __validate_param_reuseA    0058cd80 f   LIBCMTD:outputp.obj
 0002:000f7090       __output_p_l               0058d090 f   LIBCMTD:outputp.obj
 0002:000fbb50       _get_crtdouble_arg         00591b50 f i LIBCMTD:outputp.obj
 0002:000fbb80       __controlfp_s              00591b80 f   LIBCMTD:_contrlfp_.obj
 0002:000fbca0       __isalpha_l                00591ca0 f i LIBCMTD:_ctype.obj
 0002:000fbd50       _isalpha                   00591d50 f i LIBCMTD:_ctype.obj
 0002:000fbd90       __isupper_l                00591d90 f i LIBCMTD:_ctype.obj
 0002:000fbe30       _isupper                   00591e30 f i LIBCMTD:_ctype.obj
 0002:000fbe70       __islower_l                00591e70 f i LIBCMTD:_ctype.obj
 0002:000fbf10       _islower                   00591f10 f i LIBCMTD:_ctype.obj
 0002:000fbf50       __isdigit_l                00591f50 f i LIBCMTD:_ctype.obj
 0002:000fbff0       _isdigit                   00591ff0 f i LIBCMTD:_ctype.obj
 0002:000fc030       __isxdigit_l               00592030 f i LIBCMTD:_ctype.obj
 0002:000fc0e0       _isxdigit                  005920e0 f i LIBCMTD:_ctype.obj
 0002:000fc120       __isspace_l                00592120 f i LIBCMTD:_ctype.obj
 0002:000fc1c0       _isspace                   005921c0 f i LIBCMTD:_ctype.obj
 0002:000fc200       __ispunct_l                00592200 f i LIBCMTD:_ctype.obj
 0002:000fc2a0       _ispunct                   005922a0 f i LIBCMTD:_ctype.obj
 0002:000fc2e0       __isalnum_l                005922e0 f i LIBCMTD:_ctype.obj
 0002:000fc390       _isalnum                   00592390 f i LIBCMTD:_ctype.obj
 0002:000fc3d0       __isprint_l                005923d0 f i LIBCMTD:_ctype.obj
 0002:000fc480       _isprint                   00592480 f i LIBCMTD:_ctype.obj
 0002:000fc4c0       __isgraph_l                005924c0 f i LIBCMTD:_ctype.obj
 0002:000fc570       _isgraph                   00592570 f i LIBCMTD:_ctype.obj
 0002:000fc5b0       __iscntrl_l                005925b0 f i LIBCMTD:_ctype.obj
 0002:000fc650       _iscntrl                   00592650 f i LIBCMTD:_ctype.obj
 0002:000fc690       ___isascii                 00592690 f i LIBCMTD:_ctype.obj
 0002:000fc6b0       ___toascii                 005926b0 f i LIBCMTD:_ctype.obj
 0002:000fc6c0       __iscsymf_l                005926c0 f i LIBCMTD:_ctype.obj
 0002:000fc710       ___iscsymf                 00592710 f i LIBCMTD:_ctype.obj
 0002:000fc750       __iscsym_l                 00592750 f i LIBCMTD:_ctype.obj
 0002:000fc7a0       ___iscsym                  005927a0 f i LIBCMTD:_ctype.obj
 0002:000fc7f0       __tolower                  005927f0 f   LIBCMTD:tolower.obj
 0002:000fc800       __tolower_l                00592800 f   LIBCMTD:tolower.obj
 0002:000fca50       _tolower                   00592a50 f   LIBCMTD:tolower.obj
 0002:000fcab0       __atodbl_l                 00592ab0 f   LIBCMTD:atodbl.obj
 0002:000fcc00       __atodbl                   00592c00 f   LIBCMTD:atodbl.obj
 0002:000fcc20       __atoldbl_l                00592c20 f   LIBCMTD:atodbl.obj
 0002:000fcd70       __atoldbl                  00592d70 f   LIBCMTD:atodbl.obj
 0002:000fcd90       __atoflt_l                 00592d90 f   LIBCMTD:atodbl.obj
 0002:000fcee0       __atoflt                   00592ee0 f   LIBCMTD:atodbl.obj
 0002:000fcf00       __fptostr                  00592f00 f   LIBCMTD:_fptostr.obj
 0002:000fd250       __fltout2                  00593250 f   LIBCMTD:_cfout_.obj
 0002:000fd330       ___dtold                   00593330 f   LIBCMTD:_cfout_.obj
 0002:000fd4e0       _memmove                   005934e0 f   LIBCMTD:memmove.obj
 0002:000fd920       __set_output_format        00593920 f   LIBCMTD:outputformat.obj
 0002:000fd9c0       __get_output_format        005939c0 f   LIBCMTD:outputformat.obj
 0002:000fd9d0       _strcpy_s                  005939d0 f   LIBCMTD:strcpy_s.obj
 0002:000fdd60       __allrem                   00593d60 f   LIBCMTD:llrem.obj
 0002:000fde40       __aullshr                  00593e40 f   LIBCMTD:ullshr.obj
 0002:000fde70       __fptrap                   00593e70 f   LIBCMTD:crt0fp.obj
 0002:000fde90       __mbsnbicmp_l              00593e90 f   LIBCMTD:mbsnbicm.obj
 0002:000fe460       __mbsnbicmp                00594460 f   LIBCMTD:mbsnbicm.obj
 0002:000fe490       __mbsnbcmp_l               00594490 f   LIBCMTD:mbsnbcmp.obj
 0002:000fe830       __mbsnbcmp                 00594830 f   LIBCMTD:mbsnbcmp.obj
 0002:000fe854       __global_unwind2           00594854 f   LIBCMTD:exsup.obj
 0002:000fe8b9       __local_unwind2            005948b9 f   LIBCMTD:exsup.obj
 0002:000fe93d       __abnormal_termination     0059493d f   LIBCMTD:exsup.obj
 0002:000fe960       __NLG_Notify1              00594960 f   LIBCMTD:exsup.obj
 0002:000fe969       __NLG_Notify               00594969 f   LIBCMTD:exsup.obj
 0002:000fe980       __NLG_Dispatch             00594980     LIBCMTD:exsup.obj
 0002:000fe980       __NLG_Dispatch2            00594980     LIBCMTD:exsup.obj
 0002:000fe988       __NLG_Call                 00594988 f   LIBCMTD:exsup.obj
 0002:000fe98a       __NLG_Return2              0059498a     LIBCMTD:exsup.obj
 0002:000fe9e0       _ungetc                    005949e0 f   LIBCMTD:ungetc.obj
 0002:000feb10       __ungetc_nolock            00594b10 f   LIBCMTD:ungetc.obj
 0002:000fedc0       ___crtMessageBoxA          00594dc0 f   LIBCMTD:crtmbox.obj
 0002:000ff070       _strcat_s                  00595070 f   LIBCMTD:strcat_s.obj
 0002:000ff540       _strncpy_s                 00595540 f   LIBCMTD:strncpy_s.obj
 0002:000ffa30       ___crtLCMapStringA         00595a30 f   LIBCMTD:a_map.obj
 0002:001000e0       __MarkAllocaS              005960e0 f i LIBCMTD:a_map.obj
 0002:00100110       __freea                    00596110 f i LIBCMTD:a_map.obj
 0002:001001f0       ___crtGetStringTypeA       005961f0 f   LIBCMTD:a_str.obj
 0002:00100520       ___crtGetLocaleInfoW       00596520 f   LIBCMTD:w_loc.obj
 0002:001005b0       ___crtGetLocaleInfoA       005965b0 f   LIBCMTD:a_loc.obj
 0002:00100800       ___initconin               00596800 f   LIBCMTD:initcon.obj
 0002:00100830       ___initconout              00596830 f   LIBCMTD:initcon.obj
 0002:00100860       ___termcon                 00596860 f   LIBCMTD:initcon.obj
 0002:001008c0       __iswctype_l               005968c0 f   LIBCMTD:iswctype.obj
 0002:00100990       _iswctype                  00596990 f   LIBCMTD:iswctype.obj
 0002:00100a40       _is_wctype                 00596a40 f   LIBCMTD:iswctype.obj
 0002:00100a60       __woutput_l                00596a60 f   LIBCMTD:woutput.obj
 0002:001020c0       _vfwprintf_helper          005980c0 f   LIBCMTD:vfwprint.obj
 0002:001022a0       __vfwprintf_l              005982a0 f   LIBCMTD:vfwprint.obj
 0002:001022d0       __vfwprintf_s_l            005982d0 f   LIBCMTD:vfwprint.obj
 0002:00102300       __vfwprintf_p_l            00598300 f   LIBCMTD:vfwprint.obj
 0002:00102330       _vfwprintf                 00598330 f   LIBCMTD:vfwprint.obj
 0002:00102360       _vfwprintf_s               00598360 f   LIBCMTD:vfwprint.obj
 0002:00102390       __vfwprintf_p              00598390 f   LIBCMTD:vfwprint.obj
 0002:001023c0       __woutput_s_l              005983c0 f   LIBCMTD:woutputs.obj
 0002:00103bd0       __validate_param_reuseW    00599bd0 f   LIBCMTD:woutputp.obj
 0002:00103ee0       __woutput_p_l              00599ee0 f   LIBCMTD:woutputp.obj
 0002:00108430       ___libm_setusermatherr     0059e430 f   LIBCMTD:_libm_error_.obj
 0002:00108480       ___libm_error_support      0059e480 f   LIBCMTD:_libm_error_.obj
 0002:00109290       __powhlp                   0059f290 f   LIBCMTD:_powhlp_.obj
 0002:001094a0       __d_inttype                0059f4a0 f   LIBCMTD:_powhlp_.obj
 0002:00109550       _fdiv_main_routine         0059f550 f   LIBCMTD:_adj_fdiv_.obj
 0002:00109667       __adj_fdiv_r               0059f667 f   LIBCMTD:_adj_fdiv_.obj
 0002:00109b06       __fdivp_sti_st             0059fb06 f   LIBCMTD:_adj_fdiv_.obj
 0002:00109b19       __fdivrp_sti_st            0059fb19 f   LIBCMTD:_adj_fdiv_.obj
 0002:00109b2c       __adj_fdiv_m32             0059fb2c f   LIBCMTD:_adj_fdiv_.obj
 0002:00109b78       __adj_fdiv_m64             0059fb78 f   LIBCMTD:_adj_fdiv_.obj
 0002:00109bc4       __adj_fdiv_m16i            0059fbc4 f   LIBCMTD:_adj_fdiv_.obj
 0002:00109bf8       __adj_fdiv_m32i            0059fbf8 f   LIBCMTD:_adj_fdiv_.obj
 0002:00109c2c       __adj_fdivr_m32            0059fc2c f   LIBCMTD:_adj_fdiv_.obj
 0002:00109c78       __adj_fdivr_m64            0059fc78 f   LIBCMTD:_adj_fdiv_.obj
 0002:00109cc4       __adj_fdivr_m16i           0059fcc4 f   LIBCMTD:_adj_fdiv_.obj
 0002:00109cf8       __adj_fdivr_m32i           0059fcf8 f   LIBCMTD:_adj_fdiv_.obj
 0002:00109d2c       __safe_fdiv                0059fd2c f   LIBCMTD:_adj_fdiv_.obj
 0002:00109d41       __safe_fdivr               0059fd41 f   LIBCMTD:_adj_fdiv_.obj
 0002:00109d56       __fprem_common             0059fd56 f   LIBCMTD:_adj_fdiv_.obj
 0002:00109f5c       __adj_fprem                0059ff5c f   LIBCMTD:_adj_fdiv_.obj
 0002:0010a00e       __fprem1_common            005a000e f   LIBCMTD:_adj_fdiv_.obj
 0002:0010a214       __adj_fprem1               005a0214 f   LIBCMTD:_adj_fdiv_.obj
 0002:0010a2c9       __safe_fprem               005a02c9 f   LIBCMTD:_adj_fdiv_.obj
 0002:0010a2cf       __safe_fprem1              005a02cf f   LIBCMTD:_adj_fdiv_.obj
 0002:0010a2d5       __adj_fpatan               005a02d5 f   LIBCMTD:_adj_fdiv_.obj
 0002:0010a2d8       __adj_fptan                005a02d8 f   LIBCMTD:_adj_fdiv_.obj
 0002:0010a640       __87except                 005a0640 f   LIBCMTD:_87except_.obj
 0002:0010a860       __ld12tod                  005a0860 f   LIBCMTD:_intrncvt_.obj
 0002:0010a890       __ld12cvt                  005a0890 f i LIBCMTD:_intrncvt_.obj
 0002:0010ab70       __RoundMan                 005a0b70 f i LIBCMTD:_intrncvt_.obj
 0002:0010ac80       __ZeroTail                 005a0c80 f i LIBCMTD:_intrncvt_.obj
 0002:0010ad30       __IncMan                   005a0d30 f i LIBCMTD:_intrncvt_.obj
 0002:0010ae10       ___addl                    005a0e10 f i LIBCMTD:_intrncvt_.obj
 0002:0010ae60       __CopyMan                  005a0e60 f i LIBCMTD:_intrncvt_.obj
 0002:0010aed0       __FillZeroMan              005a0ed0 f i LIBCMTD:_intrncvt_.obj
 0002:0010af10       __IsZeroMan                005a0f10 f i LIBCMTD:_intrncvt_.obj
 0002:0010af60       __ShrMan                   005a0f60 f i LIBCMTD:_intrncvt_.obj
 0002:0010b090       __ld12tof                  005a1090 f   LIBCMTD:_intrncvt_.obj
 0002:0010b0c0       __ld12told                 005a10c0 f   LIBCMTD:_intrncvt_.obj
 0002:0010b1a0       ___strgtold12_l            005a11a0 f   LIBCMTD:_strgtold_.obj
 0002:0010bf00       ___multtenpow12            005a1f00 f i LIBCMTD:_strgtold_.obj
 0002:0010c010       ___ld12mul                 005a2010 f i LIBCMTD:_strgtold_.obj
 0002:0010c510       ___shl_12                  005a2510 f i LIBCMTD:_strgtold_.obj
 0002:0010c590       ___shr_12                  005a2590 f i LIBCMTD:_strgtold_.obj
 0002:0010c610       ___STRINGTOLD_L            005a2610 f   LIBCMTD:_strgtold_.obj
 0002:0010c6a0       ___pwctype_func            005a26a0 f   LIBCMTD:ctype.obj
 0002:0010c6b0       ___pctype_func             005a26b0 f   LIBCMTD:ctype.obj
 0002:0010c710       ___init_time               005a2710 f   LIBCMTD:inittime.obj
 0002:0010cff0       ___free_lc_time            005a2ff0 f   LIBCMTD:inittime.obj
 0002:0010d3c0       ___init_numeric            005a33c0 f   LIBCMTD:initnum.obj
 0002:0010d7f0       ___free_lconv_num          005a37f0 f   LIBCMTD:initnum.obj
 0002:0010d880       ___init_monetary           005a3880 f   LIBCMTD:initmon.obj
 0002:0010dec0       ___free_lconv_mon          005a3ec0 f   LIBCMTD:initmon.obj
 0002:0010dff0       ___init_ctype              005a3ff0 f   LIBCMTD:initctyp.obj
 0002:0010e710       ____mb_cur_max_func        005a4710 f   LIBCMTD:initctyp.obj
 0002:0010e770       ____mb_cur_max_l_func      005a4770 f   LIBCMTD:initctyp.obj
 0002:0010e7b0       ____lc_codepage_func       005a47b0 f   LIBCMTD:initctyp.obj
 0002:0010e810       ____lc_collate_cp_func     005a4810 f   LIBCMTD:initctyp.obj
 0002:0010e870       ____lc_handle_func         005a4870 f   LIBCMTD:initctyp.obj
 0002:0010e8d0       ___init_collate            005a48d0 f   LIBCMTD:initcoll.obj
 0002:0010e8e0       __Getdays_l                005a48e0 f   LIBCMTD:strftime.obj
 0002:0010eb10       __Getdays                  005a4b10 f   LIBCMTD:strftime.obj
 0002:0010eb30       __Getmonths_l              005a4b30 f   LIBCMTD:strftime.obj
 0002:0010ed60       __Getmonths                005a4d60 f   LIBCMTD:strftime.obj
 0002:0010ed80       __Gettnames_l              005a4d80 f   LIBCMTD:strftime.obj
 0002:0010f440       __Gettnames                005a5440 f   LIBCMTD:strftime.obj
 0002:0010f460       __strftime_l               005a5460 f   LIBCMTD:strftime.obj
 0002:0010f490       _strftime                  005a5490 f   LIBCMTD:strftime.obj
 0002:0010f4c0       __Strftime                 005a54c0 f   LIBCMTD:strftime.obj
 0002:0010f4f0       __Strftime_l               005a54f0 f   LIBCMTD:strftime.obj
 0002:00111a70       _localeconv                005a7a70 f   LIBCMTD:lconv.obj
 0002:00111ad0       _strcspn                   005a7ad0 f   LIBCMTD:strcspn.obj
 0002:00111b30       ___get_qualified_locale    005a7b30 f   LIBCMTD:getqloc.obj
 0002:00112d50       ___InternalCxxFrameHandler 005a8d50 f   LIBCMTD:frame.obj
 0002:001134c0       ??0bad_exception@std@@QAE@PBD@Z 005a94c0 f i LIBCMTD:frame.obj
 0002:001134f0       ??1bad_exception@std@@UAE@XZ 005a94f0 f i LIBCMTD:frame.obj
 0002:00113520       ??_Gbad_exception@std@@UAEPAXI@Z 005a9520 f i LIBCMTD:frame.obj
 0002:00113520       ??_Ebad_exception@std@@UAEPAXI@Z 005a9520 f i LIBCMTD:frame.obj
 0002:00113560       ??0bad_exception@std@@QAE@ABV01@@Z 005a9560 f i LIBCMTD:frame.obj
 0002:00113770       ___TypeMatch               005a9770 f   LIBCMTD:frame.obj
 0002:00113850       ___FrameUnwindFilter       005a9850 f   LIBCMTD:frame.obj
 0002:001138e0       ___FrameUnwindToState      005a98e0 f   LIBCMTD:frame.obj
 0002:00113f70       ___BuildCatchObjectHelper  005a9f70 f   LIBCMTD:frame.obj
 0002:00114280       ___BuildCatchObject        005aa280 f   LIBCMTD:frame.obj
 0002:001143d0       ___DestructExceptionObject 005aa3d0 f   LIBCMTD:frame.obj
 0002:001144b0       ___AdjustPointer           005aa4b0 f   LIBCMTD:frame.obj
 0002:00114510       ?__uncaught_exception@@YA_NXZ 005aa510 f   LIBCMTD:frame.obj
 0002:00114530       ___CxxExceptionFilter      005aa530 f   LIBCMTD:frame.obj
 0002:00114790       ___CxxRegisterExceptionObject 005aa790 f   LIBCMTD:frame.obj
 0002:00114910       ___CxxDetectRethrow        005aa910 f   LIBCMTD:frame.obj
 0002:001149c0       ___CxxUnregisterExceptionObject 005aa9c0 f   LIBCMTD:frame.obj
 0002:00114ba0       ___CxxQueryExceptionSize   005aaba0 f   LIBCMTD:frame.obj
 0002:00114bb0       ___CxxCallUnwindDtor       005aabb0 f   LIBCMTD:frame.obj
 0002:00114c50       ___CxxCallUnwindDelDtor    005aac50 f   LIBCMTD:frame.obj
 0002:00114cf0       ___CxxCallUnwindStdDelDtor 005aacf0 f   LIBCMTD:frame.obj
 0002:00114d90       ___CxxCallUnwindVecDtor    005aad90 f   LIBCMTD:frame.obj
 0002:00115060       ?_is_exception_typeof@@YAHABVtype_info@@PAU_EXCEPTION_POINTERS@@@Z 005ab060 f   LIBCMTD:frame.obj
 0002:00115170       __CallSettingFrame@12      005ab170 f   LIBCMTD:lowhelpr.obj
 0002:00115197       __NLG_Return               005ab197     LIBCMTD:lowhelpr.obj
 0002:001151d0       __ismbbkalnum_l            005ab1d0 f   LIBCMTD:ismbbyte.obj
 0002:00115200       __ismbbkalnum              005ab200 f   LIBCMTD:ismbbyte.obj
 0002:00115220       __ismbbkprint_l            005ab220 f   LIBCMTD:ismbbyte.obj
 0002:00115250       __ismbbkprint              005ab250 f   LIBCMTD:ismbbyte.obj
 0002:00115270       __ismbbkpunct_l            005ab270 f   LIBCMTD:ismbbyte.obj
 0002:001152a0       __ismbbkpunct              005ab2a0 f   LIBCMTD:ismbbyte.obj
 0002:001152c0       __ismbbalnum_l             005ab2c0 f   LIBCMTD:ismbbyte.obj
 0002:001152f0       __ismbbalnum               005ab2f0 f   LIBCMTD:ismbbyte.obj
 0002:00115320       __ismbbalpha_l             005ab320 f   LIBCMTD:ismbbyte.obj
 0002:00115350       __ismbbalpha               005ab350 f   LIBCMTD:ismbbyte.obj
 0002:00115380       __ismbbgraph_l             005ab380 f   LIBCMTD:ismbbyte.obj
 0002:001153b0       __ismbbgraph               005ab3b0 f   LIBCMTD:ismbbyte.obj
 0002:001153e0       __ismbbprint_l             005ab3e0 f   LIBCMTD:ismbbyte.obj
 0002:00115410       __ismbbprint               005ab410 f   LIBCMTD:ismbbyte.obj
 0002:00115440       __ismbbpunct_l             005ab440 f   LIBCMTD:ismbbyte.obj
 0002:00115470       __ismbbpunct               005ab470 f   LIBCMTD:ismbbyte.obj
 0002:00115490       __ismbblead_l              005ab490 f   LIBCMTD:ismbbyte.obj
 0002:001154c0       __ismbblead                005ab4c0 f   LIBCMTD:ismbbyte.obj
 0002:001154e0       __ismbbtrail_l             005ab4e0 f   LIBCMTD:ismbbyte.obj
 0002:00115510       __ismbbtrail               005ab510 f   LIBCMTD:ismbbyte.obj
 0002:00115530       __ismbbkana_l              005ab530 f   LIBCMTD:ismbbyte.obj
 0002:001155c0       __ismbbkana                005ab5c0 f   LIBCMTD:ismbbyte.obj
 0002:001156e0       __mbstowcs_l_helper        005ab6e0 f   LIBCMTD:mbstowcs.obj
 0002:00115b10       __mbstowcs_l               005abb10 f   LIBCMTD:mbstowcs.obj
 0002:00115b40       _mbstowcs                  005abb40 f   LIBCMTD:mbstowcs.obj
 0002:00115ba0       __mbstowcs_s_l             005abba0 f   LIBCMTD:mbstowcs.obj
 0002:00116000       _mbstowcs_s                005ac000 f   LIBCMTD:mbstowcs.obj
 0002:00116030       __itoa_s                   005ac030 f   LIBCMTD:xtoas.obj
 0002:001164e0       __ltoa_s                   005ac4e0 f   LIBCMTD:xtoas.obj
 0002:00116530       __ultoa_s                  005ac530 f   LIBCMTD:xtoas.obj
 0002:00116560       __i64toa_s                 005ac560 f   LIBCMTD:xtoas.obj
 0002:00116a60       __ui64toa_s                005aca60 f   LIBCMTD:xtoas.obj
 0002:00116a90       __wcstombs_l_helper        005aca90 f   LIBCMTD:wcstombs.obj
 0002:001170c0       __wcstombs_l               005ad0c0 f   LIBCMTD:wcstombs.obj
 0002:001170f0       _wcstombs                  005ad0f0 f   LIBCMTD:wcstombs.obj
 0002:00117120       __wcstombs_s_l             005ad120 f   LIBCMTD:wcstombs.obj
 0002:00117510       _wcstombs_s                005ad510 f   LIBCMTD:wcstombs.obj
 0002:00117540       __vswprintf_l              005ad540 f   LIBCMTD:vswprint.obj
 0002:00117780       __vswprintf                005ad780 f   LIBCMTD:vswprint.obj
 0002:001177b0       ___vswprintf_l             005ad7b0 f   LIBCMTD:vswprint.obj
 0002:001177e0       __vscwprintf_helper        005ad7e0 f   LIBCMTD:vswprint.obj
 0002:001178d0       __vscwprintf               005ad8d0 f   LIBCMTD:vswprint.obj
 0002:00117900       __vscwprintf_l             005ad900 f   LIBCMTD:vswprint.obj
 0002:00117930       __vscwprintf_p             005ad930 f   LIBCMTD:vswprint.obj
 0002:00117960       __vscwprintf_p_l           005ad960 f   LIBCMTD:vswprint.obj
 0002:00117990       __statusfp2                005ad990 f   LIBCMTD:_ieee87_.obj
 0002:001179e0       __statusfp                 005ad9e0 f   LIBCMTD:_ieee87_.obj
 0002:00117a40       __clearfp                  005ada40 f   LIBCMTD:_ieee87_.obj
 0002:00117aa0       ___control87_2             005adaa0 f   LIBCMTD:_ieee87_.obj
 0002:00117b70       __controlfp                005adb70 f   LIBCMTD:_ieee87_.obj
 0002:00117ba0       __control87                005adba0 f i LIBCMTD:_ieee87_.obj
 0002:00117c80       __set_controlfp            005adc80 f   LIBCMTD:_ieee87_.obj
 0002:00117d30       __fpreset                  005add30 f   LIBCMTD:_ieee87_.obj
 0002:001186d0       _$I10_OUTPUT               005ae6d0 f   LIBCMTD:_x10fout_.obj
 0002:00118de0       ___add_12                  005aede0 f i LIBCMTD:_x10fout_.obj
 0002:00118ec0       __strnicmp_l               005aeec0 f   LIBCMTD:strnicmp.obj
 0002:00119190       __strnicmp                 005af190 f   LIBCMTD:strnicmp.obj
 0002:00119380       ___ansicp                  005af380 f   LIBCMTD:convrtcp.obj
 0002:001193f0       ___convertcp               005af3f0 f   LIBCMTD:convrtcp.obj
 0002:001196d0       ___crtGetStringTypeW       005af6d0 f   LIBCMTD:w_str.obj
 0002:00119770       _fputwc                    005af770 f   LIBCMTD:fputwc.obj
 0002:001198b0       __fputwc_nolock            005af8b0 f   LIBCMTD:fputwc.obj
 0002:00119c50       _putwc                     005afc50 f   LIBCMTD:fputwc.obj
 0002:00119c70       _wcstol                    005afc70 f   LIBCMTD:wcstol.obj
 0002:0011a210       __wcstol_l                 005b0210 f   LIBCMTD:wcstol.obj
 0002:0011a240       _wcstoul                   005b0240 f   LIBCMTD:wcstol.obj
 0002:0011a2a0       __wcstoul_l                005b02a0 f   LIBCMTD:wcstol.obj
 0002:0011a2d0       __matherr                  005b02d0 f   LIBCMTD:_matherr_.obj
 0002:0011a2e0       __set_exp                  005b02e0 f   LIBCMTD:_util_.obj
 0002:0011a330       __get_exp                  005b0330 f   LIBCMTD:_util_.obj
 0002:0011a370       __add_exp                  005b0370 f   LIBCMTD:_util_.obj
 0002:0011a3b0       __set_bexp                 005b03b0 f   LIBCMTD:_util_.obj
 0002:0011a3f0       __sptype                   005b03f0 f   LIBCMTD:_util_.obj
 0002:0011a490       __decomp                   005b0490 f   LIBCMTD:_util_.obj
 0002:0011a600       __frnd                     005b0600 f   LIBCMTD:_frnd_.obj
 0002:0011a620       __copysign                 005b0620 f   LIBCMTD:_ieeemisc_.obj
 0002:0011a660       __chgsign                  005b0660 f   LIBCMTD:_ieeemisc_.obj
 0002:0011a6a0       __scalb                    005b06a0 f   LIBCMTD:_ieeemisc_.obj
 0002:0011a6d0       __logb                     005b06d0 f   LIBCMTD:_ieeemisc_.obj
 0002:0011a850       __nextafter                005b0850 f   LIBCMTD:_ieeemisc_.obj
 0002:0011ac30       __finite                   005b0c30 f   LIBCMTD:_ieeemisc_.obj
 0002:0011ac60       __isnan                    005b0c60 f   LIBCMTD:_ieeemisc_.obj
 0002:0011acc0       __fpclass                  005b0cc0 f   LIBCMTD:_ieeemisc_.obj
 0002:0011adc0       __handle_qnan1             005b0dc0 f   LIBCMTD:_fpexcept_.obj
 0002:0011ae40       __handle_qnan2             005b0e40 f   LIBCMTD:_fpexcept_.obj
 0002:0011aed0       __except1                  005b0ed0 f   LIBCMTD:_fpexcept_.obj
 0002:0011b010       __except2                  005b1010 f   LIBCMTD:_fpexcept_.obj
 0002:0011b160       __raise_exc_ex             005b1160 f   LIBCMTD:_fpexcept_.obj
 0002:0011b7e0       __raise_exc                005b17e0 f   LIBCMTD:_fpexcept_.obj
 0002:0011b820       __raise_excf               005b1820 f   LIBCMTD:_fpexcept_.obj
 0002:0011b860       __handle_exc               005b1860 f   LIBCMTD:_fpexcept_.obj
 0002:0011bc30       __umatherr                 005b1c30 f   LIBCMTD:_fpexcept_.obj
 0002:0011bd00       __set_errno_from_matherr   005b1d00 f   LIBCMTD:_fpexcept_.obj
 0002:0011bdb0       __errcode                  005b1db0 f   LIBCMTD:_fpexcept_.obj
 0002:0011be40       __statfp                   005b1e40 f   LIBCMTD:_fpctrl_.obj
 0002:0011be60       __clrfp                    005b1e60 f   LIBCMTD:_fpctrl_.obj
 0002:0011be80       __ctrlfp                   005b1e80 f   LIBCMTD:_fpctrl_.obj
 0002:0011bec0       __set_statfp               005b1ec0 f   LIBCMTD:_fpctrl_.obj
 0002:0011bf40       ___get_fpsr_sse2           005b1f40 f   LIBCMTD:_fpctrl_.obj
 0002:0011bf70       ___set_fpsr_sse2           005b1f70 f   LIBCMTD:_fpctrl_.obj
 0002:0011c080       ___fclrf_sse2              005b2080 f   LIBCMTD:_fpctrl_.obj
 0002:0011c0b0       ___statfp_sse2             005b20b0 f   LIBCMTD:_fpctrl_.obj
 0002:0011c0f0       ___clrfp_sse2              005b20f0 f   LIBCMTD:_fpctrl_.obj
 0002:0011c140       ___ctrlfp_sse2             005b2140 f   LIBCMTD:_fpctrl_.obj
 0002:0011c1b0       ___set_statfp_sse2         005b21b0 f   LIBCMTD:_fpctrl_.obj
 0002:0011c1f0       ___mtold12                 005b21f0 f   LIBCMTD:_mantold_.obj
 0002:0011c3a0       __get_daylight             005b23a0 f   LIBCMTD:timeset.obj
 0002:0011c440       __get_dstbias              005b2440 f   LIBCMTD:timeset.obj
 0002:0011c4e0       __get_timezone             005b24e0 f   LIBCMTD:timeset.obj
 0002:0011c580       __get_tzname               005b2580 f   LIBCMTD:timeset.obj
 0002:0011c7d0       ___daylight                005b27d0 f   LIBCMTD:timeset.obj
 0002:0011c7e0       ___dstbias                 005b27e0 f   LIBCMTD:timeset.obj
 0002:0011c7f0       ___timezone                005b27f0 f   LIBCMTD:timeset.obj
 0002:0011c800       ___tzname                  005b2800 f   LIBCMTD:timeset.obj
 0002:0011c810       ___tzset                   005b2810 f   LIBCMTD:tzset.obj
 0002:0011c8d0       __tzset                    005b28d0 f   LIBCMTD:tzset.obj
 0002:0011cfe0       __set_daylight             005b2fe0 f i LIBCMTD:tzset.obj
 0002:0011d000       __set_dstbias              005b3000 f i LIBCMTD:tzset.obj
 0002:0011d020       __set_timezone             005b3020 f i LIBCMTD:tzset.obj
 0002:0011d040       __isindst                  005b3040 f   LIBCMTD:tzset.obj
 0002:0011d890       _atol                      005b3890 f   LIBCMTD:atox.obj
 0002:0011d8b0       __atol_l                   005b38b0 f   LIBCMTD:atox.obj
 0002:0011d8e0       _atoi                      005b38e0 f   LIBCMTD:atox.obj
 0002:0011d900       __atoi_l                   005b3900 f   LIBCMTD:atox.obj
 0002:0011d920       __atoi64                   005b3920 f   LIBCMTD:atox.obj
 0002:0011d940       __atoi64_l                 005b3940 f   LIBCMTD:atox.obj
 0002:0011d970       ?_ValidateRead@@YAHPBXI@Z  005b3970 f   LIBCMTD:validate.obj
 0002:0011d9a0       ?_ValidateWrite@@YAHPAXI@Z 005b39a0 f   LIBCMTD:validate.obj
 0002:0011d9d0       ?_ValidateExecute@@YAHP6GHXZ@Z 005b39d0 f   LIBCMTD:validate.obj
 0002:0011da00       __CxxThrowException@8      005b3a00 f   LIBCMTD:throw.obj
 0002:0011da70       ?name@type_info@@QBEPBDPAU__type_info_node@@@Z 005b3a70 f   LIBCMTD:typinfo.obj
 0002:0011daa0       ??1type_info@@UAE@XZ       005b3aa0 f   LIBCMTD:typinfo.obj
 0002:0011dad0       ??_Gtype_info@@UAEPAXI@Z   005b3ad0 f i LIBCMTD:typinfo.obj
 0002:0011dad0       ??_Etype_info@@UAEPAXI@Z   005b3ad0 f i LIBCMTD:typinfo.obj
 0002:0011db10       ?_name_internal_method@type_info@@QBEPBDPAU__type_info_node@@@Z 005b3b10 f   LIBCMTD:typinfo.obj
 0002:0011db40       ?_type_info_dtor_internal_method@type_info@@QAEXXZ 005b3b40 f   LIBCMTD:typinfo.obj
 0002:0011db60       ??8type_info@@QBE_NABV0@@Z 005b3b60 f   LIBCMTD:typinfo.obj
 0002:0011dba0       ??9type_info@@QBE_NABV0@@Z 005b3ba0 f   LIBCMTD:typinfo.obj
 0002:0011dbe0       ?before@type_info@@QBEHABV1@@Z 005b3be0 f   LIBCMTD:typinfo.obj
 0002:0011dc20       ?raw_name@type_info@@QBEPBDXZ 005b3c20 f   LIBCMTD:typinfo.obj
 0002:0011dc40       ??0type_info@@AAE@ABV0@@Z  005b3c40 f   LIBCMTD:typinfo.obj
 0002:0011dc70       ??4type_info@@AAEAAV0@ABV0@@Z 005b3c70 f   LIBCMTD:typinfo.obj
 0002:0011dc90       ??0exception@std@@QAE@XZ   005b3c90 f   LIBCMTD:stdexcpt.obj
 0002:0011dcd0       ??_Eexception@std@@UAEPAXI@Z 005b3cd0 f i LIBCMTD:stdexcpt.obj
 0002:0011dcd0       ??_Gexception@std@@UAEPAXI@Z 005b3cd0 f i LIBCMTD:stdexcpt.obj
 0002:0011dd10       ??0exception@std@@QAE@ABQBD@Z 005b3d10 f   LIBCMTD:stdexcpt.obj
 0002:0011ddc0       ??0exception@std@@QAE@ABQBDH@Z 005b3dc0 f   LIBCMTD:stdexcpt.obj
 0002:0011de00       ??0exception@std@@QAE@ABV01@@Z 005b3e00 f   LIBCMTD:stdexcpt.obj
 0002:0011ded0       ??4exception@std@@QAEAAV01@ABV01@@Z 005b3ed0 f   LIBCMTD:stdexcpt.obj
 0002:0011dfa0       ??1exception@std@@UAE@XZ   005b3fa0 f   LIBCMTD:stdexcpt.obj
 0002:0011dfe0       ?what@exception@std@@UBEPBDXZ 005b3fe0 f   LIBCMTD:stdexcpt.obj
 0002:0011e010       ??0bad_cast@std@@QAE@PBD@Z 005b4010 f   LIBCMTD:stdexcpt.obj
 0002:0011e040       ??_Gbad_cast@std@@UAEPAXI@Z 005b4040 f i LIBCMTD:stdexcpt.obj
 0002:0011e040       ??_Ebad_cast@std@@UAEPAXI@Z 005b4040 f i LIBCMTD:stdexcpt.obj
 0002:0011e080       ??0bad_cast@std@@QAE@ABV01@@Z 005b4080 f   LIBCMTD:stdexcpt.obj
 0002:0011e0b0       ??1bad_cast@std@@UAE@XZ    005b40b0 f   LIBCMTD:stdexcpt.obj
 0002:0011e0e0       ??0bad_typeid@std@@QAE@PBD@Z 005b40e0 f   LIBCMTD:stdexcpt.obj
 0002:0011e110       ??_Gbad_typeid@std@@UAEPAXI@Z 005b4110 f i LIBCMTD:stdexcpt.obj
 0002:0011e110       ??_Ebad_typeid@std@@UAEPAXI@Z 005b4110 f i LIBCMTD:stdexcpt.obj
 0002:0011e150       ??0bad_typeid@std@@QAE@ABV01@@Z 005b4150 f   LIBCMTD:stdexcpt.obj
 0002:0011e180       ??1bad_typeid@std@@UAE@XZ  005b4180 f   LIBCMTD:stdexcpt.obj
 0002:0011e1b0       ??0__non_rtti_object@std@@QAE@PBD@Z 005b41b0 f   LIBCMTD:stdexcpt.obj
 0002:0011e1e0       ??_E__non_rtti_object@std@@UAEPAXI@Z 005b41e0 f i LIBCMTD:stdexcpt.obj
 0002:0011e1e0       ??_G__non_rtti_object@std@@UAEPAXI@Z 005b41e0 f i LIBCMTD:stdexcpt.obj
 0002:0011e220       ??0__non_rtti_object@std@@QAE@ABV01@@Z 005b4220 f   LIBCMTD:stdexcpt.obj
 0002:0011e250       ??1__non_rtti_object@std@@UAE@XZ 005b4250 f   LIBCMTD:stdexcpt.obj
 0002:0011e280       ??3@YAXPAX@Z               005b4280 f   LIBCMTD:dbgdel.obj
 0002:0011e3a0       ___ascii_strnicmp          005b43a0 f   LIBCMTD:_strnicm.obj
 0002:0011e420       __flswbuf                  005b4420 f   LIBCMTD:_flswbuf.obj
 0002:0011e7b0       __wchartodigit             005b47b0 f   LIBCMTD:wchtodig.obj
 0002:0011eba0       _ldexp                     005b4ba0 f   LIBCMTD:_ldexp_.obj
 0002:0011ef10       _getenv                    005b4f10 f   LIBCMTD:getenv.obj
 0002:0011f0c0       __getenv_helper_nolock     005b50c0 f   LIBCMTD:getenv.obj
 0002:0011f220       _getenv_s                  005b5220 f   LIBCMTD:getenv.obj
 0002:0011f4d0       __dupenv_s                 005b54d0 f   LIBCMTD:getenv.obj
 0002:0011f500       __dupenv_s_dbg             005b5500 f   LIBCMTD:getenv.obj
 0002:0011f7e0       __strtoi64                 005b57e0 f   LIBCMTD:strtoq.obj
 0002:0011feb0       __strtoi64_l               005b5eb0 f   LIBCMTD:strtoq.obj
 0002:0011fee0       __strtoui64                005b5ee0 f   LIBCMTD:strtoq.obj
 0002:0011ff40       __strtoui64_l              005b5f40 f   LIBCMTD:strtoq.obj
 0002:0011ff70       ?_Type_info_dtor@type_info@@CAXPAV1@@Z 005b5f70 f   LIBCMTD:typname.obj
 0002:001200c0       ?_Name_base@type_info@@CAPBDPBV1@PAU__type_info_node@@@Z 005b60c0 f   LIBCMTD:typname.obj
 0002:001202d0       ?_Type_info_dtor_internal@type_info@@CAXPAV1@@Z 005b62d0 f   LIBCMTD:typname.obj
 0002:00120420       ___unDNameHelper           005b6420 f   LIBCMTD:typname.obj
 0002:00120470       ?_Name_base_internal@type_info@@CAPBDPBV1@PAU__type_info_node@@@Z 005b6470 f   LIBCMTD:typname.obj
 0002:001206a0       ___clean_type_info_names_internal 005b66a0 f   LIBCMTD:typname.obj
 0002:00120780       _strnlen                   005b6780 f   LIBCMTD:strlen_s.obj
 0002:001207d0       __mbsnbicoll_l             005b67d0 f   LIBCMTD:mbsnbico.obj
 0002:00120aa0       __mbsnbicoll               005b6aa0 f   LIBCMTD:mbsnbico.obj
 0002:00120ad0       ___wtomb_environ           005b6ad0 f   LIBCMTD:wtombenv.obj
 0002:00120c00       ___unDName                 005b6c00 f   LIBCMTD:undname.obj
 0002:00120d10       ?Constructor@HeapManager@@QAEXP6APAXI@ZP6AXPAX@Z@Z 005b6d10 f i LIBCMTD:undname.obj
 0002:00120d60       ?Destructor@HeapManager@@QAEXXZ 005b6d60 f i LIBCMTD:undname.obj
 0002:00120dc0       ___unDNameEx               005b6dc0 f   LIBCMTD:undname.obj
 0002:00120ed0       ??0UnDecorator@@QAE@PADPBDHP6APADJ@ZK@Z 005b6ed0 f i LIBCMTD:undname.obj
 0002:00120f90       ??BUnDecorator@@QAEPADXZ   005b6f90 f i LIBCMTD:undname.obj
 0002:00121250       ?dbGetString@DName@@QBEPADXZ 005b7250 f   LIBCMTD:undname.obj
 0002:00121280       ?getDecoratedName@UnDecorator@@CA?AVDName@@XZ 005b7280 f   LIBCMTD:undname.obj
 0002:00121660       ?getSymbolName@UnDecorator@@CA?AVDName@@XZ 005b7660 f i LIBCMTD:undname.obj
 0002:001216f0       ?getZName@UnDecorator@@CA?AVDName@@_N0@Z 005b76f0 f   LIBCMTD:undname.obj
 0002:00121a40       ?getOperatorName@UnDecorator@@CA?AVDName@@_NPA_N@Z 005b7a40 f i LIBCMTD:undname.obj
 0002:00122600       ?getStringEncoding@UnDecorator@@CA?AVDName@@PADH@Z 005b8600 f   LIBCMTD:undname.obj
 0002:00122740       ?getScope@UnDecorator@@CA?AVDName@@XZ 005b8740 f   LIBCMTD:undname.obj
 0002:00122c10       ?getSignedDimension@UnDecorator@@CA?AVDName@@XZ 005b8c10 f   LIBCMTD:undname.obj
 0002:00122cb0       ?getDimension@UnDecorator@@CA?AVDName@@_N@Z 005b8cb0 f   LIBCMTD:undname.obj
 0002:00123010       ?getNumberOfDimensions@UnDecorator@@CAHXZ 005b9010 f   LIBCMTD:undname.obj
 0002:00123150       ?getTemplateName@UnDecorator@@CA?AVDName@@_N@Z 005b9150 f   LIBCMTD:undname.obj
 0002:00123380       ?getTemplateArgumentList@UnDecorator@@CA?AVDName@@XZ 005b9380 f   LIBCMTD:undname.obj
 0002:001236a0       ?getTemplateConstant@UnDecorator@@CA?AVDName@@XZ 005b96a0 f   LIBCMTD:undname.obj
 0002:00123c50       ?composeDeclaration@UnDecorator@@CA?AVDName@@ABV2@@Z 005b9c50 f i LIBCMTD:undname.obj
 0002:001257c0       ?getTypeEncoding@UnDecorator@@CAHXZ 005bb7c0 f i LIBCMTD:undname.obj
 0002:00126490       ?getBasedType@UnDecorator@@CA?AVDName@@XZ 005bc490 f   LIBCMTD:undname.obj
 0002:00126580       ?getScopedName@UnDecorator@@CA?AVDName@@XZ 005bc580 f   LIBCMTD:undname.obj
 0002:001266e0       ?getCallingConvention@UnDecorator@@CA?AVDName@@XZ 005bc6e0 f   LIBCMTD:undname.obj
 0002:00126890       ?getReturnType@UnDecorator@@CA?AVDName@@PAV2@@Z 005bc890 f   LIBCMTD:undname.obj
 0002:001268f0       ?getDataType@UnDecorator@@CA?AVDName@@PAV2@@Z 005bc8f0 f   LIBCMTD:undname.obj
 0002:00126a50       ?getPrimaryDataType@UnDecorator@@CA?AVDName@@ABV2@@Z 005bca50 f   LIBCMTD:undname.obj
 0002:00126da0       ?getArgumentTypes@UnDecorator@@CA?AVDName@@XZ 005bcda0 f   LIBCMTD:undname.obj
 0002:00126f50       ?getArgumentList@UnDecorator@@CA?AVDName@@XZ 005bcf50 f   LIBCMTD:undname.obj
 0002:001270f0       ?getThrowTypes@UnDecorator@@CA?AVDName@@XZ 005bd0f0 f   LIBCMTD:undname.obj
 0002:001271d0       ?getBasicDataType@UnDecorator@@CA?AVDName@@ABV2@@Z 005bd1d0 f   LIBCMTD:undname.obj
 0002:001278e0       ?getECSUDataType@UnDecorator@@CA?AVDName@@XZ 005bd8e0 f   LIBCMTD:undname.obj
 0002:00127b30       ?getECSUName@UnDecorator@@CA?AVDName@@XZ 005bdb30 f i LIBCMTD:undname.obj
 0002:00127b50       ?getEnumType@UnDecorator@@CA?AVDName@@XZ 005bdb50 f i LIBCMTD:undname.obj
 0002:00127cf0       ?getFunctionIndirectType@UnDecorator@@CA?AVDName@@ABV2@@Z 005bdcf0 f   LIBCMTD:undname.obj
 0002:00128240       ?getPtrRefType@UnDecorator@@CA?AVDName@@ABV2@0D@Z 005be240 f   LIBCMTD:undname.obj
 0002:00128400       ?getExtendedDataIndirectType@UnDecorator@@CA?AVDName@@AADAA_NH@Z 005be400 f   LIBCMTD:undname.obj
 0002:00128690       ?getDataIndirectType@UnDecorator@@CA?AVDName@@ABV2@D0H@Z 005be690 f   LIBCMTD:undname.obj
 0002:00128f50       ?getPtrRefDataType@UnDecorator@@CA?AVDName@@ABV2@H@Z 005bef50 f i LIBCMTD:undname.obj
 0002:001290e0       ?getArrayType@UnDecorator@@CA?AVDName@@ABV2@@Z 005bf0e0 f i LIBCMTD:undname.obj
 0002:001293a0       ?getLexicalFrame@UnDecorator@@CA?AVDName@@XZ 005bf3a0 f i LIBCMTD:undname.obj
 0002:001293f0       ?getThisType@UnDecorator@@CA?AVDName@@XZ 005bf3f0 f i LIBCMTD:undname.obj
 0002:00129430       ?getPointerType@UnDecorator@@CA?AVDName@@ABV2@0@Z 005bf430 f i LIBCMTD:undname.obj
 0002:00129460       ?getPointerTypeArray@UnDecorator@@CA?AVDName@@ABV2@0@Z 005bf460 f i LIBCMTD:undname.obj
 0002:00129490       ?getReferenceType@UnDecorator@@CA?AVDName@@ABV2@0@Z 005bf490 f i LIBCMTD:undname.obj
 0002:001294c0       ?getDisplacement@UnDecorator@@CA?AVDName@@XZ 005bf4c0 f i LIBCMTD:undname.obj
 0002:001294e0       ?getCallIndex@UnDecorator@@CA?AVDName@@XZ 005bf4e0 f i LIBCMTD:undname.obj
 0002:00129500       ?getGuardNumber@UnDecorator@@CA?AVDName@@XZ 005bf500 f i LIBCMTD:undname.obj
 0002:00129520       ?getVbTableType@UnDecorator@@CA?AVDName@@ABV2@@Z 005bf520 f i LIBCMTD:undname.obj
 0002:00129540       ?getVCallThunkType@UnDecorator@@CA?AVDName@@XZ 005bf540 f i LIBCMTD:undname.obj
 0002:001295c0       ?getVfTableType@UnDecorator@@CA?AVDName@@ABV2@@Z 005bf5c0 f i LIBCMTD:undname.obj
 0002:001297f0       ?getStorageConvention@UnDecorator@@CA?AVDName@@XZ 005bf7f0 f i LIBCMTD:undname.obj
 0002:00129810       ?getDataIndirectType@UnDecorator@@CA?AVDName@@XZ 005bf810 f i LIBCMTD:undname.obj
 0002:00129850       ?getVdispMapType@UnDecorator@@CA?AVDName@@ABV2@@Z 005bf850 f i LIBCMTD:undname.obj
 0002:001298e0       ?getExternalDataType@UnDecorator@@CA?AVDName@@ABV2@@Z 005bf8e0 f i LIBCMTD:undname.obj
 0002:001299a0       ?doMSKeywords@UnDecorator@@SAHXZ 005bf9a0 f i LIBCMTD:undname.obj
 0002:001299c0       ?doPtr64@UnDecorator@@SAHXZ 005bf9c0 f i LIBCMTD:undname.obj
 0002:001299e0       ?doFunctionReturns@UnDecorator@@SAHXZ 005bf9e0 f i LIBCMTD:undname.obj
 0002:00129a00       ?doAllocationModel@UnDecorator@@SAHXZ 005bfa00 f i LIBCMTD:undname.obj
 0002:00129a20       ?doAllocationLanguage@UnDecorator@@SAHXZ 005bfa20 f i LIBCMTD:undname.obj
 0002:00129a40       ?doThisTypes@UnDecorator@@SAHXZ 005bfa40 f i LIBCMTD:undname.obj
 0002:00129a60       ?doAccessSpecifiers@UnDecorator@@SAHXZ 005bfa60 f i LIBCMTD:undname.obj
 0002:00129a80       ?doThrowTypes@UnDecorator@@SAHXZ 005bfa80 f i LIBCMTD:undname.obj
 0002:00129aa0       ?doMemberTypes@UnDecorator@@SAHXZ 005bfaa0 f i LIBCMTD:undname.obj
 0002:00129ac0       ?doNameOnly@UnDecorator@@SAHXZ 005bfac0 f i LIBCMTD:undname.obj
 0002:00129ae0       ?doTypeOnly@UnDecorator@@SAHXZ 005bfae0 f i LIBCMTD:undname.obj
 0002:00129b00       ?haveTemplateParameters@UnDecorator@@SAHXZ 005bfb00 f i LIBCMTD:undname.obj
 0002:00129b20       ?doEcsu@UnDecorator@@SAHXZ 005bfb20 f i LIBCMTD:undname.obj
 0002:00129b40       ?doEllipsis@UnDecorator@@SAHXZ 005bfb40 f i LIBCMTD:undname.obj
 0002:00129b60       ?UScore@UnDecorator@@SAPBDW4Tokens@@@Z 005bfb60 f   LIBCMTD:undname.obj
 0002:00129ba0       ?doUnderScore@UnDecorator@@SAHXZ 005bfba0 f i LIBCMTD:undname.obj
 0002:00129bc0       ??2@YAPAXIAAVHeapManager@@H@Z 005bfbc0 f i LIBCMTD:undname.obj
 0002:00129be0       ?getMemory@HeapManager@@QAEPAXIH@Z 005bfbe0 f   LIBCMTD:undname.obj
 0002:00129d30       ??0Block@HeapManager@@QAE@XZ 005bfd30 f i LIBCMTD:undname.obj
 0002:00129d50       ??H@YA?AVDName@@DABV0@@Z   005bfd50 f i LIBCMTD:undname.obj
 0002:00129d90       ??H@YA?AVDName@@W4DNameStatus@@ABV0@@Z 005bfd90 f i LIBCMTD:undname.obj
 0002:00129dd0       ??H@YA?AVDName@@PBDABV0@@Z 005bfdd0 f i LIBCMTD:undname.obj
 0002:00129e10       ??0DName@@QAE@XZ           005bfe10 f i LIBCMTD:undname.obj
 0002:00129f00       ??0DName@@QAE@D@Z          005bff00 f   LIBCMTD:undname.obj
 0002:0012a010       ??0DName@@QAE@ABV0@@Z      005c0010 f i LIBCMTD:undname.obj
 0002:0012a040       ??0DName@@QAE@PAV0@@Z      005c0040 f   LIBCMTD:undname.obj
 0002:0012a1c0       ??0DName@@QAE@PBD@Z        005c01c0 f   LIBCMTD:undname.obj
 0002:0012a2e0       ??0DName@@QAE@AAPBDD@Z     005c02e0 f   LIBCMTD:undname.obj
 0002:0012a650       ?doNoIdentCharCheck@UnDecorator@@SAHXZ 005c0650 f i LIBCMTD:undname.obj
 0002:0012a670       ??0DName@@QAE@_K@Z         005c0670 f   LIBCMTD:undname.obj
 0002:0012a800       ??0DName@@QAE@_J@Z         005c0800 f   LIBCMTD:undname.obj
 0002:0012a9e0       ??0DName@@QAE@W4DNameStatus@@@Z 005c09e0 f   LIBCMTD:undname.obj
 0002:0012ab40       ?isValid@DName@@QBEHXZ     005c0b40 f i LIBCMTD:undname.obj
 0002:0012ab70       ?isEmpty@DName@@QBEHXZ     005c0b70 f i LIBCMTD:undname.obj
 0002:0012ab90       ?status@DName@@QBE?AW4DNameStatus@@XZ 005c0b90 f i LIBCMTD:undname.obj
 0002:0012abb0       ?setPtrRef@DName@@QAEAAV1@XZ 005c0bb0 f i LIBCMTD:undname.obj
 0002:0012abe0       ?isPtrRef@DName@@QBEHXZ    005c0be0 f i LIBCMTD:undname.obj
 0002:0012ac00       ?isUDC@DName@@QBEHXZ       005c0c00 f i LIBCMTD:undname.obj
 0002:0012ac50       ?setIsUDC@DName@@QAEXXZ    005c0c50 f i LIBCMTD:undname.obj
 0002:0012ac90       ?isUDTThunk@DName@@QBEHXZ  005c0c90 f i LIBCMTD:undname.obj
 0002:0012ace0       ?setIsArray@DName@@QAEXXZ  005c0ce0 f i LIBCMTD:undname.obj
 0002:0012ad10       ?isArray@DName@@QBEHXZ     005c0d10 f i LIBCMTD:undname.obj
 0002:0012ad30       ?isNoTE@DName@@QBEHXZ      005c0d30 f i LIBCMTD:undname.obj
 0002:0012ad50       ?setIsNoTE@DName@@QAEXXZ   005c0d50 f i LIBCMTD:undname.obj
 0002:0012ad80       ?isPinPtr@DName@@QBEHXZ    005c0d80 f i LIBCMTD:undname.obj
 0002:0012ada0       ?setIsPinPtr@DName@@QAEXXZ 005c0da0 f i LIBCMTD:undname.obj
 0002:0012add0       ?isComArray@DName@@QBEHXZ  005c0dd0 f i LIBCMTD:undname.obj
 0002:0012adf0       ?setIsComArray@DName@@QAEXXZ 005c0df0 f i LIBCMTD:undname.obj
 0002:0012ae20       ?isVCallThunk@DName@@QBEHXZ 005c0e20 f i LIBCMTD:undname.obj
 0002:0012ae40       ?setIsVCallThunk@DName@@QAEXXZ 005c0e40 f i LIBCMTD:undname.obj
 0002:0012ae70       ?length@DName@@QBEHXZ      005c0e70 f i LIBCMTD:undname.obj
 0002:0012aeb0       ?getLastChar@DName@@QBEDXZ 005c0eb0 f i LIBCMTD:undname.obj
 0002:0012aef0       ?getString@DName@@QBEPADPADH@Z 005c0ef0 f i LIBCMTD:undname.obj
 0002:0012afa0       ?getString@DName@@QBEPADPAD0@Z 005c0fa0 f i LIBCMTD:undname.obj
 0002:0012aff0       ??HDName@@QBE?AV0@D@Z      005c0ff0 f   LIBCMTD:undname.obj
 0002:0012b040       ??HDName@@QBE?AV0@PBD@Z    005c1040 f   LIBCMTD:undname.obj
 0002:0012b090       ??HDName@@QBE?AV0@ABV0@@Z  005c1090 f   LIBCMTD:undname.obj
 0002:0012b0e0       ??HDName@@QBE?AV0@PAV0@@Z  005c10e0 f   LIBCMTD:undname.obj
 0002:0012b130       ??HDName@@QBE?AV0@W4DNameStatus@@@Z 005c1130 f   LIBCMTD:undname.obj
 0002:0012b180       ?append@DName@@AAEXPAVDNameNode@@@Z 005c1180 f   LIBCMTD:undname.obj
 0002:0012b230       ??YDName@@QAEAAV0@D@Z      005c1230 f   LIBCMTD:undname.obj
 0002:0012b2e0       ??YDName@@QAEAAV0@PBD@Z    005c12e0 f   LIBCMTD:undname.obj
 0002:0012b3a0       ??YDName@@QAEAAV0@ABV0@@Z  005c13a0 f   LIBCMTD:undname.obj
 0002:0012b420       ??YDName@@QAEAAV0@PAV0@@Z  005c1420 f   LIBCMTD:undname.obj
 0002:0012b500       ??YDName@@QAEAAV0@W4DNameStatus@@@Z 005c1500 f   LIBCMTD:undname.obj
 0002:0012b580       ??_5DName@@QAEAAV0@ABV0@@Z 005c1580 f   LIBCMTD:undname.obj
 0002:0012b5f0       ??4DName@@QAEAAV0@D@Z      005c15f0 f i LIBCMTD:undname.obj
 0002:0012b700       ??4DName@@QAEAAV0@PBD@Z    005c1700 f   LIBCMTD:undname.obj
 0002:0012b810       ??4DName@@QAEAAV0@ABV0@@Z  005c1810 f   LIBCMTD:undname.obj
 0002:0012b840       ??4DName@@QAEAAV0@PAV0@@Z  005c1840 f   LIBCMTD:undname.obj
 0002:0012b9c0       ??4DName@@QAEAAV0@W4DNameStatus@@@Z 005c19c0 f   LIBCMTD:undname.obj
 0002:0012bb00       ?doPchar@DName@@AAEXPBDH@Z 005c1b00 f   LIBCMTD:undname.obj
 0002:0012bc90       ?isFull@Replicator@@QBEHXZ 005c1c90 f i LIBCMTD:undname.obj
 0002:0012bcb0       ??0Replicator@@QAE@XZ      005c1cb0 f i LIBCMTD:undname.obj
 0002:0012bcd0       ??YReplicator@@QAEAAV0@ABVDName@@@Z 005c1cd0 f   LIBCMTD:undname.obj
 0002:0012bd80       ??AReplicator@@QBE?AVDName@@H@Z 005c1d80 f   LIBCMTD:undname.obj
 0002:0012be00       ??0DNameNode@@IAE@XZ       005c1e00 f   LIBCMTD:undname.obj
 0002:0012be20       ??0charNode@@QAE@D@Z       005c1e20 f   LIBCMTD:undname.obj
 0002:0012be60       ?length@charNode@@UBEHXZ   005c1e60 f i LIBCMTD:undname.obj
 0002:0012be80       ?getLastChar@charNode@@UBEDXZ 005c1e80 f i LIBCMTD:undname.obj
 0002:0012bea0       ?getString@charNode@@UBEPADPAD0@Z 005c1ea0 f i LIBCMTD:undname.obj
 0002:0012bee0       ??0pcharNode@@QAE@PBDH@Z   005c1ee0 f   LIBCMTD:undname.obj
 0002:0012bfa0       ?length@pcharNode@@UBEHXZ  005c1fa0 f i LIBCMTD:undname.obj
 0002:0012bfc0       ?getLastChar@pcharNode@@UBEDXZ 005c1fc0 f i LIBCMTD:undname.obj
 0002:0012c010       ?getString@pcharNode@@UBEPADPAD0@Z 005c2010 f i LIBCMTD:undname.obj
 0002:0012c050       ?getStringHelper@@YAPADPAD00H@Z 005c2050 f i LIBCMTD:undname.obj
 0002:0012c0a0       ??0pDNameNode@@QAE@PAVDName@@@Z 005c20a0 f   LIBCMTD:undname.obj
 0002:0012c120       ?length@pDNameNode@@UBEHXZ 005c2120 f i LIBCMTD:undname.obj
 0002:0012c160       ?getLastChar@pDNameNode@@UBEDXZ 005c2160 f i LIBCMTD:undname.obj
 0002:0012c1a0       ?getString@pDNameNode@@UBEPADPAD0@Z 005c21a0 f i LIBCMTD:undname.obj
 0002:0012c1f0       ??0DNameStatusNode@@AAE@W4DNameStatus@@@Z 005c21f0 f   LIBCMTD:undname.obj
 0002:0012c250       ?length@DNameStatusNode@@UBEHXZ 005c2250 f i LIBCMTD:undname.obj
 0002:0012c270       ?getLastChar@DNameStatusNode@@UBEDXZ 005c2270 f i LIBCMTD:undname.obj
 0002:0012c2a0       ?getString@DNameStatusNode@@UBEPADPAD0@Z 005c22a0 f i LIBCMTD:undname.obj
 0002:0012c2f0       ?make@DNameStatusNode@@SAPAV1@W4DNameStatus@@@Z 005c22f0 f i LIBCMTD:undname.obj
 0002:0012c3d0       ??0pairNode@@QAE@PAVDNameNode@@0@Z 005c23d0 f   LIBCMTD:undname.obj
 0002:0012c420       ?length@pairNode@@UBEHXZ   005c2420 f i LIBCMTD:undname.obj
 0002:0012c480       ?getLastChar@pairNode@@UBEDXZ 005c2480 f i LIBCMTD:undname.obj
 0002:0012c4e0       ?getString@pairNode@@UBEPADPAD0@Z 005c24e0 f i LIBCMTD:undname.obj
 0002:0012c660       ___crtCompareStringA       005c2660 f   LIBCMTD:a_cmp.obj
 0002:0012cd80       __strnicoll_l              005c2d80 f   LIBCMTD:strnicol.obj
 0002:0012d060       __strnicoll                005c3060 f   LIBCMTD:strnicol.obj
 0002:0012d0b0       ___crtsetenv               005c30b0 f   LIBCMTD:setenv.obj
 0002:0012d8d0       __purecall                 005c38d0 f   LIBCMTD:purevirt.obj
 0002:0012d920       __set_purecall_handler     005c3920 f   LIBCMTD:purevirt.obj
 0002:0012d970       __get_purecall_handler     005c3970 f   LIBCMTD:purevirt.obj
 0002:0012d990       __mbschr_l                 005c3990 f   LIBCMTD:mbschr.obj
 0002:0012db80       __mbschr                   005c3b80 f   LIBCMTD:mbschr.obj
 0002:0012dba0       _MultiByteToWideChar@24    005c3ba0 f   kernel32:KERNEL32.dll
 0002:0012dba6       _GetLastError@0            005c3ba6 f   kernel32:KERNEL32.dll
 0002:0012dbac       _ReadFile@20               005c3bac f   kernel32:KERNEL32.dll
 0002:0012dbb2       _CloseHandle@4             005c3bb2 f   kernel32:KERNEL32.dll
 0002:0012dbb8       _GetFileType@4             005c3bb8 f   kernel32:KERNEL32.dll
 0002:0012dbbe       _CreateFileA@28            005c3bbe f   kernel32:KERNEL32.dll
 0002:0012dbc4       _GetModuleHandleW@4        005c3bc4 f   kernel32:KERNEL32.dll
 0002:0012dbca       _Sleep@4                   005c3bca f   kernel32:KERNEL32.dll
 0002:0012dbd0       _InterlockedIncrement@4    005c3bd0 f   kernel32:KERNEL32.dll
 0002:0012dbd6       _InterlockedDecrement@4    005c3bd6 f   kernel32:KERNEL32.dll
 0002:0012dbdc       _GetProcAddress@8          005c3bdc f   kernel32:KERNEL32.dll
 0002:0012dbe2       _ExitProcess@4             005c3be2 f   kernel32:KERNEL32.dll
 0002:0012dbe8       _EnterCriticalSection@4    005c3be8 f   kernel32:KERNEL32.dll
 0002:0012dbee       _LeaveCriticalSection@4    005c3bee f   kernel32:KERNEL32.dll
 0002:0012dbf4       _WriteFile@20              005c3bf4 f   kernel32:KERNEL32.dll
 0002:0012dbfa       _WideCharToMultiByte@32    005c3bfa f   kernel32:KERNEL32.dll
 0002:0012dc00       _GetConsoleCP@0            005c3c00 f   kernel32:KERNEL32.dll
 0002:0012dc06       _GetConsoleMode@8          005c3c06 f   kernel32:KERNEL32.dll
 0002:0012dc0c       _GetModuleFileNameW@12     005c3c0c f   kernel32:KERNEL32.dll
 0002:0012dc12       _WriteConsoleW@20          005c3c12 f   kernel32:KERNEL32.dll
 0002:0012dc18       _GetStdHandle@4            005c3c18 f   kernel32:KERNEL32.dll
 0002:0012dc1e       _SetFilePointer@16         005c3c1e f   kernel32:KERNEL32.dll
 0002:0012dc24       _GetLocalTime@4            005c3c24 f   kernel32:KERNEL32.dll
 0002:0012dc2a       _GetCommandLineA@0         005c3c2a f   kernel32:KERNEL32.dll
 0002:0012dc30       _HeapValidate@12           005c3c30 f   kernel32:KERNEL32.dll
 0002:0012dc36       _IsBadReadPtr@8            005c3c36 f   kernel32:KERNEL32.dll
 0002:0012dc3c       _TerminateProcess@8        005c3c3c f   kernel32:KERNEL32.dll
 0002:0012dc42       _GetCurrentProcess@0       005c3c42 f   kernel32:KERNEL32.dll
 0002:0012dc48       _UnhandledExceptionFilter@4 005c3c48 f   kernel32:KERNEL32.dll
 0002:0012dc4e       _SetUnhandledExceptionFilter@4 005c3c4e f   kernel32:KERNEL32.dll
 0002:0012dc54       _IsDebuggerPresent@0       005c3c54 f   kernel32:KERNEL32.dll
 0002:0012dc5a       _RaiseException@16         005c3c5a f   kernel32:KERNEL32.dll
 0002:0012dc60       _DebugBreak@0              005c3c60 f   kernel32:KERNEL32.dll
 0002:0012dc66       _lstrlenA@4                005c3c66 f   kernel32:KERNEL32.dll
 0002:0012dc6c       _LoadLibraryA@4            005c3c6c f   kernel32:KERNEL32.dll
 0002:0012dc72       _SetStdHandle@8            005c3c72 f   kernel32:KERNEL32.dll
 0002:0012dc78       _SetHandleCount@4          005c3c78 f   kernel32:KERNEL32.dll
 0002:0012dc7e       _GetStartupInfoA@4         005c3c7e f   kernel32:KERNEL32.dll
 0002:0012dc84       _DeleteCriticalSection@4   005c3c84 f   kernel32:KERNEL32.dll
 0002:0012dc8a       _SetEndOfFile@4            005c3c8a f   kernel32:KERNEL32.dll
 0002:0012dc90       _HeapFree@12               005c3c90 f   kernel32:KERNEL32.dll
 0002:0012dc96       _HeapAlloc@12              005c3c96 f   kernel32:KERNEL32.dll
 0002:0012dc9c       _GetProcessHeap@0          005c3c9c f   kernel32:KERNEL32.dll
 0002:0012dca2       _InterlockedExchange@8     005c3ca2 f   kernel32:KERNEL32.dll
 0002:0012dca8       _GetModuleHandleA@4        005c3ca8 f   kernel32:KERNEL32.dll
 0002:0012dcae       _RtlUnwind@16              005c3cae f   kernel32:KERNEL32.dll
 0002:0012dcb4       _TlsGetValue@4             005c3cb4 f   kernel32:KERNEL32.dll
 0002:0012dcba       _TlsAlloc@0                005c3cba f   kernel32:KERNEL32.dll
 0002:0012dcc0       _TlsSetValue@8             005c3cc0 f   kernel32:KERNEL32.dll
 0002:0012dcc6       _GetCurrentThreadId@0      005c3cc6 f   kernel32:KERNEL32.dll
 0002:0012dccc       _TlsFree@4                 005c3ccc f   kernel32:KERNEL32.dll
 0002:0012dcd2       _SetLastError@4            005c3cd2 f   kernel32:KERNEL32.dll
 0002:0012dcd8       _GetCurrentThread@0        005c3cd8 f   kernel32:KERNEL32.dll
 0002:0012dcde       _GetModuleFileNameA@12     005c3cde f   kernel32:KERNEL32.dll
 0002:0012dce4       _GetACP@0                  005c3ce4 f   kernel32:KERNEL32.dll
 0002:0012dcea       _GetOEMCP@0                005c3cea f   kernel32:KERNEL32.dll
 0002:0012dcf0       _GetCPInfo@8               005c3cf0 f   kernel32:KERNEL32.dll
 0002:0012dcf6       _IsValidCodePage@4         005c3cf6 f   kernel32:KERNEL32.dll
 0002:0012dcfc       _FatalAppExitA@8           005c3cfc f   kernel32:KERNEL32.dll
 0002:0012dd02       _SetConsoleCtrlHandler@8   005c3d02 f   kernel32:KERNEL32.dll
 0002:0012dd08       _FreeLibrary@4             005c3d08 f   kernel32:KERNEL32.dll
 0002:0012dd0e       _InitializeCriticalSectionAndSpinCount@8 005c3d0e f   kernel32:KERNEL32.dll
 0002:0012dd14       _WriteConsoleA@20          005c3d14 f   kernel32:KERNEL32.dll
 0002:0012dd1a       _GetConsoleOutputCP@0      005c3d1a f   kernel32:KERNEL32.dll
 0002:0012dd20       _LoadLibraryW@4            005c3d20 f   kernel32:KERNEL32.dll
 0002:0012dd26       _FlushFileBuffers@4        005c3d26 f   kernel32:KERNEL32.dll
 0002:0012dd2c       _GetTickCount@0            005c3d2c f   kernel32:KERNEL32.dll
 0002:0012dd32       _GetCurrentProcessId@0     005c3d32 f   kernel32:KERNEL32.dll
 0002:0012dd38       _GetSystemTimeAsFileTime@4 005c3d38 f   kernel32:KERNEL32.dll
 0002:0012dd3e       _FreeEnvironmentStringsA@4 005c3d3e f   kernel32:KERNEL32.dll
 0002:0012dd44       _GetEnvironmentStrings@0   005c3d44 f   kernel32:KERNEL32.dll
 0002:0012dd4a       _FreeEnvironmentStringsW@4 005c3d4a f   kernel32:KERNEL32.dll
 0002:0012dd50       _GetEnvironmentStringsW@0  005c3d50 f   kernel32:KERNEL32.dll
 0002:0012dd56       _HeapDestroy@4             005c3d56 f   kernel32:KERNEL32.dll
 0002:0012dd5c       _HeapCreate@12             005c3d5c f   kernel32:KERNEL32.dll
 0002:0012dd62       _VirtualFree@12            005c3d62 f   kernel32:KERNEL32.dll
 0002:0012dd68       _HeapSize@12               005c3d68 f   kernel32:KERNEL32.dll
 0002:0012dd6e       _HeapReAlloc@16            005c3d6e f   kernel32:KERNEL32.dll
 0002:0012dd74       _VirtualAlloc@16           005c3d74 f   kernel32:KERNEL32.dll
 0002:0012dd7a       _OutputDebugStringA@4      005c3d7a f   kernel32:KERNEL32.dll
 0002:0012dd80       _OutputDebugStringW@4      005c3d80 f   kernel32:KERNEL32.dll
 0002:0012dd86       _VirtualQuery@12           005c3d86 f   kernel32:KERNEL32.dll
 0002:0012dd8c       _LCMapStringA@24           005c3d8c f   kernel32:KERNEL32.dll
 0002:0012dd92       _LCMapStringW@24           005c3d92 f   kernel32:KERNEL32.dll
 0002:0012dd98       _GetStringTypeA@20         005c3d98 f   kernel32:KERNEL32.dll
 0002:0012dd9e       _GetStringTypeW@16         005c3d9e f   kernel32:KERNEL32.dll
 0002:0012dda4       _GetLocaleInfoW@16         005c3da4 f   kernel32:KERNEL32.dll
 0002:0012ddaa       _GetLocaleInfoA@16         005c3daa f   kernel32:KERNEL32.dll
 0002:0012ddb0       _GetTimeFormatA@24         005c3db0 f   kernel32:KERNEL32.dll
 0002:0012ddb6       _GetDateFormatA@24         005c3db6 f   kernel32:KERNEL32.dll
 0002:0012ddbc       _IsValidLocale@8           005c3dbc f   kernel32:KERNEL32.dll
 0002:0012ddc2       _EnumSystemLocalesA@8      005c3dc2 f   kernel32:KERNEL32.dll
 0002:0012ddc8       _GetUserDefaultLCID@0      005c3dc8 f   kernel32:KERNEL32.dll
 0002:0012ddce       _GetTimeZoneInformation@4  005c3dce f   kernel32:KERNEL32.dll
 0002:0012ddd4       _CompareStringA@24         005c3dd4 f   kernel32:KERNEL32.dll
 0002:0012ddda       _CompareStringW@24         005c3dda f   kernel32:KERNEL32.dll
 0002:0012dde0       _SetEnvironmentVariableA@8 005c3de0 f   kernel32:KERNEL32.dll
 0003:00000000       ___xc_a                    005c6000     LIBCMTD:crt0init.obj
 0003:00000104       ___xc_z                    005c6104     LIBCMTD:crt0init.obj
 0003:00000208       ___xi_a                    005c6208     LIBCMTD:crt0init.obj
 0003:00000528       ___xi_z                    005c6528     LIBCMTD:crt0init.obj
 0003:0000062c       ___xp_a                    005c662c     LIBCMTD:crt0init.obj
 0003:00000940       ___xp_z                    005c6940     LIBCMTD:crt0init.obj
 0003:00000a44       ___xt_a                    005c6a44     LIBCMTD:crt0init.obj
 0003:00000b48       ___xt_z                    005c6b48     LIBCMTD:crt0init.obj
 0003:00000f10       ??_C@_0BE@JFDHFCKA@malloc_annex_b?3?5Buf?$AA@ 005c6f10     annexb.obj
 0003:00000f28       ??_C@_0CK@DLIBKJCI@Memory?5allocation?5for?5Annex_B?5fi@ 005c6f28     annexb.obj
 0003:00000f5c       ??_C@_0CK@KCBDMLBB@?5Panic?3?5Error?5in?5next?5start?5code@ 005c6f5c     annexb.obj
 0003:00000f90       ??_C@_0HC@PFJMBOPJ@get_annex_b_NALU?3?5The?5leading_ze@ 005c6f90     annexb.obj
 0003:00001018       ??_C@_0EJ@MGPMDKIK@get_annex_b_NALU?3?5no?5Start?5Code?5@ 005c7018     annexb.obj
 0003:00001070       ??_C@_0CI@JPLINDCK@get_annex_b_NALU?5can?8t?5read?5star@ 005c7070     annexb.obj
 0003:000010a0       ??_C@_0CI@IMCANKGF@open_annex_b?3?5cannot?5allocate?5IO@ 005c70a0     annexb.obj
 0003:000010d0       ??_C@_0CJ@LGLAEONG@Cannot?5open?5Annex?5B?5ByteStream?5f@ 005c70d0     annexb.obj
 0003:00001104       ??_C@_0CP@JMEJCDGF@open_annex_b?3?5tried?5to?5open?5Anne@ 005c7104     annexb.obj
 0003:000015d4       ??_C@_0CJ@EAPDHPMB@arideco_create_decoding_environm@ 005c75d4     biaridecod.obj
 0003:00001608       ??_C@_0CB@PHABOPHG@Error?5freeing?5dep?5?$CINULL?5pointer?$CJ@ 005c7608     biaridecod.obj
 0003:00001cf0       __real@4059000000000000    005c7cf0     blk_prediction.obj
 0003:00001cfc       __real@3f800000            005c7cfc     blk_prediction.obj
 0003:00001d00       __real@3ff0147ae147ae14    005c7d00     blk_prediction.obj
 0003:00001d10       __real@3fefd70a3d70a3d7    005c7d10     blk_prediction.obj
 0003:00001d20       __real@0000000000000000    005c7d20     blk_prediction.obj
 0003:0000361c       ??_C@_0CF@LCKHGAEJ@create_contexts_MotionInfo?3?5deco@ 005c961c     cabac.obj
 0003:00003648       ??_C@_0CG@LNMAHLPL@create_contexts_TextureInfo?3?5dec@ 005c9648     cabac.obj
 0003:00003914       ??_C@_0BK@HLILOINJ@GetConfigFileContent?3?5buf?$AA@ 005c9914     config_common.obj
 0003:00003938       ??_C@_0EI@KEDCOHCB@?6Unreasonable?5Filesize?5?$CFld?5repor@ 005c9938     config_common.obj
 0003:00003990       ??_C@_0CH@COJCOOLD@Cannot?5fseek?5in?5configuration?5fi@ 005c9990     config_common.obj
 0003:000039c0       ??_C@_0CD@NPMEPGJC@Cannot?5open?5configuration?5file?5?$CF@ 005c99c0     config_common.obj
 0003:000039ec       ??_C@_01KDCPPGHE@r?$AA@    005c99ec     config_common.obj
 0003:000039f0       ??_C@_0DJ@BIGPFMKM@Unknown?5value?5type?5in?5the?5map?5de@ 005c99f0     config_common.obj
 0003:00003a34       ??_C@_03DLDNIBIK@?$CFlf?$AA@ 005c9a34     config_common.obj
 0003:00003a38       ??_C@_01LFCBOECM@?4?$AA@   005c9a38     config_common.obj
 0003:00003a40       ??_C@_0EK@LEFCLLDK@?5Parsing?5error?3?5Expected?5numeric@ 005c9a40     config_common.obj
 0003:00003a98       ??_C@_02DPKJAMEF@?$CFd?$AA@ 005c9a98     config_common.obj
 0003:00003aa0       ??_C@_0EO@OFIANDKE@?5Parsing?5error?5in?5config?5file?3?5?8@ 005c9aa0     config_common.obj
 0003:00003b00       ??_C@_01NEMOKFLO@?$DN?$AA@ 005c9b00     config_common.obj
 0003:00003b08       ??_C@_0EE@IHJOJNMI@?6?7Parsing?5error?5in?5config?5file?3?5@ 005c9b08     config_common.obj
 0003:00003b60       ??_C@_0FO@HOKGMICA@Error?5in?5input?5parameter?5?$CFs?4?5Che@ 005c9b60     config_common.obj
 0003:00003bd0       ??_C@_0FM@MPMDNINP@Error?5in?5input?5parameter?5?$CFs?4?5Che@ 005c9bd0     config_common.obj
 0003:00003c40       ??_C@_0FO@HDMBIFCL@Error?5in?5input?5parameter?5?$CFs?4?5Che@ 005c9c40     config_common.obj
 0003:00003cb0       ??_C@_0FK@DLJBJMGP@Error?5in?5input?5parameter?5?$CFs?4?5Che@ 005c9cb0     config_common.obj
 0003:00003d1c       ??_C@_0BF@FHMMBFDK@Parameter?5?$CFs?5?$DN?5?$CF?42f?6?$AA@ 005c9d1c     config_common.obj
 0003:00003d38       ??_C@_0BD@KGPBNMBJ@Parameter?5?$CFs?5?$DN?5?$CFs?6?$AA@ 005c9d38     config_common.obj
 0003:00003d50       ??_C@_0BD@LPJIGJOM@Parameter?5?$CFs?5?$DN?5?$CFd?6?$AA@ 005c9d50     config_common.obj
 0003:00003d68       ??_C@_0CI@MJMGFDGE@?$CK?5?5?5?5?5?5?5?5?5?5?5?5?5?5?5?$CFs?5?5?5?5?5?5?5?5?5?5?5?5?5?5@ 005c9d68     config_common.obj
 0003:00003d98       ??_C@_0DI@JKEBJCEB@?$CK?$CK?$CK?$CK?$CK?$CK?$CK?$CK?$CK?$CK?$CK?$CK?$CK?$CK?$CK?$CK?$CK?$CK?$CK?$CK?$CK?$CK?$CK?$CK?$CK?$CK?$CK?$CK?$CK?$CK?$CK?$CK@ 005c9d98     config_common.obj
 0003:00003ddc       ??_C@_08NJMDPLLI@DPBPLUS1?$AA@ 005c9ddc     configfile.obj
 0003:00003de8       ??_C@_08MANIMKPJ@DPBPLUS0?$AA@ 005c9de8     configfile.obj
 0003:00003df4       ??_C@_0BA@OMGPEGIH@DecodeAllLayers?$AA@ 005c9df4     configfile.obj
 0003:00003e08       ??_C@_09DKIFJMMK@DecFrmNum?$AA@ 005c9e08     configfile.obj
 0003:00003e14       ??_C@_0BH@HLLJPDAP@IntraProfileDeblocking?$AA@ 005c9e14     configfile.obj
 0003:00003e30       ??_C@_06GHFEKJM@Silent?$AA@ 005c9e30     configfile.obj
 0003:00003e38       ??_C@_06MAPCOLHD@POCGap?$AA@ 005c9e38     configfile.obj
 0003:00003e40       ??_C@_09DIFGHNJ@RefPOCGap?$AA@ 005c9e40     configfile.obj
 0003:00003e4c       ??_C@_0M@PELFBGNA@ConcealMode?$AA@ 005c9e4c     configfile.obj
 0003:00003e5c       ??_C@_0BB@NINCEDKK@DisplayDecParams?$AA@ 005c9e5c     configfile.obj
 0003:00003e70       ??_C@_08GAKPFPIG@POCScale?$AA@ 005c9e70     configfile.obj
 0003:00003e7c       ??_C@_09KHLNHNFK@RefOffset?$AA@ 005c9e7c     configfile.obj
 0003:00003e88       ??_C@_0L@DDEKBCDC@FileFormat?$AA@ 005c9e88     configfile.obj
 0003:00003e98       ??_C@_07BHAOBCGO@WriteUV?$AA@ 005c9e98     configfile.obj
 0003:00003ea4       ??_C@_07ECCHODOO@RefFile?$AA@ 005c9ea4     configfile.obj
 0003:00003eb0       ??_C@_0L@CGIOOGDC@OutputFile?$AA@ 005c9eb0     configfile.obj
 0003:00003ec0       ??_C@_09KABCHINI@InputFile?$AA@ 005c9ec0     configfile.obj
 0003:00004170       ??_C@_0DCH@MOCGNNLB@?6?5?5?5ldecod?5?$FL?9h?$FN?5?$FL?9d?5defdec?4cfg?$FN?5@ 005ca170     configfile.obj
 0003:00004538       ??_C@_0BD@HCMNNGMM@Decoder?5Parameters?$AA@ 005ca538     configfile.obj
 0003:00004550       ??_C@_0EP@OLLBPOFI@Error?5in?5command?5line?0?5ac?5?$CFd?0?5ar@ 005ca550     configfile.obj
 0003:000045b0       ??_C@_0CB@KJGNEHDE@Parsing?5command?5line?5string?5?8?$CFs?8@ 005ca5b0     configfile.obj
 0003:000045d8       ??_C@_0BD@PEINJIPL@Configure?3?5content?$AA@ 005ca5d8     configfile.obj
 0003:000045f0       ??_C@_02IKJAKOAK@?9P?$AA@  005ca5f0     configfile.obj
 0003:000045f4       ??_C@_02BPBEIKKI@?9p?$AA@  005ca5f4     configfile.obj
 0003:000045f8       ??_C@_04INMDHCNB@?9MPR?$AA@ 005ca5f8     configfile.obj
 0003:00004600       ??_C@_04IADILPKN@?9mpr?$AA@ 005ca600     configfile.obj
 0003:00004608       ??_C@_02FONBJBNF@?9N?$AA@  005ca608     configfile.obj
 0003:0000460c       ??_C@_02MLFFLFHH@?9n?$AA@  005ca60c     configfile.obj
 0003:00004610       ??_C@_02KBLNPNMJ@?9S?$AA@  005ca610     configfile.obj
 0003:00004614       ??_C@_02DEDJNJGL@?9s?$AA@  005ca614     configfile.obj
 0003:00004618       ??_C@_02EHMKKAJE@?9O?$AA@  005ca618     configfile.obj
 0003:0000461c       ??_C@_02NCEOIEDG@?9o?$AA@  005ca61c     configfile.obj
 0003:00004620       ??_C@_02LIKGMMII@?9R?$AA@  005ca620     configfile.obj
 0003:00004624       ??_C@_02CNCCOICK@?9r?$AA@  005ca624     configfile.obj
 0003:00004628       ??_C@_02BBJAAHBC@?9I?$AA@  005ca628     configfile.obj
 0003:0000462c       ??_C@_02IEBECDLA@?9i?$AA@  005ca62c     configfile.obj
 0003:00004630       ??_C@_0BG@LDDNJJKB@Parsing?5Configfile?5?$CFs?$AA@ 005ca630     configfile.obj
 0003:0000464c       ??_C@_02JGAIBLNN@?9F?$AA@  005ca64c     configfile.obj
 0003:00004650       ??_C@_02DIMDPHP@?9f?$AA@   005ca650     configfile.obj
 0003:00004654       ??_C@_01EEMJAFIK@?6?$AA@   005ca654     configfile.obj
 0003:00004658       ??_C@_0BH@FLINEGGN@Parsing?5Configfile?5?$CFs?6?$AA@ 005ca658     configfile.obj
 0003:00004674       ??_C@_04MLLLIHIP@null?$AA@ 005ca674     configfile.obj
 0003:0000467c       ??_C@_02DBLKFNPN@?9d?$AA@  005ca67c     configfile.obj
 0003:00004680       ??_C@_0BP@MODHJKPC@Setting?5Default?5Parameters?4?4?4?6?$AA@ 005ca680     configfile.obj
 0003:000046a8       ??_C@_02JNAPBCPB@?9h?$AA@  005ca6a8     configfile.obj
 0003:000046ac       ??_C@_0CO@KOEPGPCN@JM?518?5?$CIFRExt?$CJ?3?5compiled?5Jan?5?58?52@ 005ca6ac     configfile.obj
 0003:000046e4       ??_C@_02EJEOCNCO@?9v?$AA@  005ca6e4     configfile.obj
 0003:000046e8       ??_C@_0M@MNLGEHCI@decoder?4cfg?$AA@ 005ca6e8     configfile.obj
 0003:000046f8       ??_C@_0CK@OPJHLLGN@init_conf?3?5error?5reading?5from?5co@ 005ca6f8     configfile.obj
 0003:00008014       ??_C@_0BI@KKKLFHPJ@?$CFd?5frames?5are?5decoded?4?6?$AA@ 005ce014     decoder_test.obj
 0003:00008030       ??_C@_0CB@BBLEKNBE@Error?5in?5decoding?5process?3?50x?$CFx?6@ 005ce030     decoder_test.obj
 0003:00008058       ??_C@_0BM@FCFACNBA@Open?5encoder?5failed?3?50x?$CFx?$CB?6?$AA@ 005ce058     decoder_test.obj
 0003:0000807c       ??_C@_0CP@NELMGOEB@?5Input?5reference?5file?5?5?5?5?5?5?5?5?5?5?5@ 005ce07c     decoder_test.obj
 0003:000080b4       ??_C@_0CP@FKBJONNK@?5Output?5decoded?5YUV?5?5?5?5?5?5?5?5?5?5?5?5?5@ 005ce0b4     decoder_test.obj
 0003:000080ec       ??_C@_0CP@EIHOJGGB@?5Input?5H?4264?5bitstream?5?5?5?5?5?5?5?5?5?5@ 005ce0ec     decoder_test.obj
 0003:00008128       ??_C@_0EM@HEEHCKCF@?9?9?9?9?9?9?9?9?9?9?9?9?9?9?9?9?9?9?9?9?9?9?9?9?9?9?9?9?9?9?9?9@ 005ce128     decoder_test.obj
 0003:00008188       ??_C@_0EG@OHEELACN@?9?9?9?9?9?9?9?9?9?9?9?9?9?9?9?9?9?9?9?9?9?9?9?9?9?9?9?9?9?5JM@ 005ce188     decoder_test.obj
 0003:000081dc       ??_C@_04GEINCFMC@18?41?$AA@ 005ce1dc     decoder_test.obj
 0003:000081e4       ??_C@_07PPPFLAOH@?$CIFRExt?$CJ?$AA@ 005ce1e4     decoder_test.obj
 0003:000081f0       ??_C@_0N@PFLMKJCD@test_rec?4yuv?$AA@ 005ce1f0     decoder_test.obj
 0003:00008200       ??_C@_0N@EPGIJBIP@test_dec?4yuv?$AA@ 005ce200     decoder_test.obj
 0003:00008210       ??_C@_08NOJOJJKM@test?4264?$AA@ 005ce210     decoder_test.obj
 0003:0000821c       ??_C@_0BO@FHNODLLE@error?5writing?5to?5output?5file?4?$AA@ 005ce21c     decoder_test.obj
 0003:000084dc       ??_C@_0BJ@JMNDJMIC@ercInit?3?5erc_object_list?$AA@ 005ce4dc     erc_api.obj
 0003:000084fc       ??_C@_0BC@FLFDEEEL@ercOpen?3?5errorVar?$AA@ 005ce4fc     erc_api.obj
 0003:00008514       ??_C@_0BP@HGOIOIEI@ercReset?3?5errorVar?9?$DOvCondition?$AA@ 005ce514     erc_api.obj
 0003:0000853c       ??_C@_0BP@OPAKIOEJ@ercReset?3?5errorVar?9?$DOuCondition?$AA@ 005ce53c     erc_api.obj
 0003:00008564       ??_C@_0CI@PPCHBNH@ercReset?3?5errorVar?9?$DOprevFrameYCo@ 005ce564     erc_api.obj
 0003:00008594       ??_C@_0BP@OFBABMIO@ercReset?3?5errorVar?9?$DOyCondition?$AA@ 005ce594     erc_api.obj
 0003:000085bc       ??_C@_0BN@MKGDDJEL@ercReset?3?5errorVar?9?$DOsegments?$AA@ 005ce5bc     erc_api.obj
 0003:00008f68       ??_C@_0BN@MPAMGNEI@ercConcealInterFrame?3?5predMB?$AA@ 005cef68     erc_do_p.obj
 0003:00008f8c       ??_C@_1CA@BKMNKBNL@?$AAr?$AAe?$AAf?$AA_?$AAp?$AAi?$AAc?$AA?5?$AA?$CB?$AA?$DN?$AA?5?$AAN?$AAU?$AAL?$AAL?$AA?$AA@ 005cef8c     erc_do_p.obj
 0003:00008fb8       ??_C@_1EO@HHPKFAFB@?$AAe?$AA?3?$AA?2?$AAj?$AAm?$AA1?$AA8?$AA?4?$AA1?$AA?$CL?$AAy?$AAu?$AA1?$AA?2?$AAj?$AAm?$AA?2?$AAl?$AAd?$AAe?$AAc?$AAo?$AAd?$AA?2?$AAs?$AAr?$AAc?$AA?2?$AAe?$AAr?$AAc?$AA_@ 005cefb8     erc_do_p.obj
 0003:00009018       ??_C@_0BA@ICFKIEIF@Missing?5POC?$DN?$CFd?6?$AA@ 005cf018     erc_do_p.obj
 0003:0000902c       ??_C@_1DK@CKLDLDPH@?$AAc?$AAo?$AAn?$AAc?$AAe?$AAa?$AAl?$AA_?$AAf?$AAr?$AAo?$AAm?$AA_?$AAp?$AAi?$AAc?$AAt?$AAu?$AAr?$AAe?$AA?5?$AA?$CB?$AA?$DN?$AA?5?$AAN?$AAU?$AAL?$AAL?$AA?$AA@ 005cf02c     erc_do_p.obj
 0003:000098b4       ??_C@_0CJ@BABHPHIH@Illegal?5slice_group_map_type?5?$CFd?5@ 005cf8b4     fmo.obj
 0003:000098e8       ??_C@_0ED@GLEFPKF@cannot?5allocated?5?$CFd?5bytes?5for?5p_@ 005cf8e8     fmo.obj
 0003:00009938       ??_C@_0EE@HLENKPFA@wrong?5pps?9?$DOpic_size_in_map_units@ 005cf938     fmo.obj
 0003:0000998c       ??_C@_0DN@DFLJFGJP@cannot?5allocate?5?$CFd?5bytes?5for?5p_V@ 005cf98c     fmo.obj
 0003:000099d8       ??_C@_1EC@OKEALDDB@?$AAp?$AA_?$AAV?$AAi?$AAd?$AA?9?$AA?$DO?$AAM?$AAb?$AAT?$AAo?$AAS?$AAl?$AAi?$AAc?$AAe?$AAG?$AAr?$AAo?$AAu?$AAp?$AAM?$AAa?$AAp?$AA?5?$AA?$CB?$AA?$DN?$AA?5?$AAN?$AAU?$AAL?$AAL@ 005cf9d8     fmo.obj
 0003:00009a28       ??_C@_1DO@JPPGHHMK@?$AAm?$AAb?$AA?5?$AA?$DM?$AA?5?$AA?$CI?$AAi?$AAn?$AAt?$AA?$CJ?$AA?5?$AAp?$AA_?$AAV?$AAi?$AAd?$AA?9?$AA?$DO?$AAP?$AAi?$AAc?$AAS?$AAi?$AAz?$AAe?$AAI?$AAn?$AAM?$AAb?$AAs?$AA?$AA@ 005cfa28     fmo.obj
 0003:00009a78       ??_C@_1EE@DEDONOM@?$AAe?$AA?3?$AA?2?$AAj?$AAm?$AA1?$AA8?$AA?4?$AA1?$AA?$CL?$AAy?$AAu?$AA1?$AA?2?$AAj?$AAm?$AA?2?$AAl?$AAd?$AAe?$AAc?$AAo?$AAd?$AA?2?$AAs?$AAr?$AAc?$AA?2?$AAf?$AAm?$AAo?$AA?4@ 005cfa78     fmo.obj
 0003:00009f3c       ??_C@_0BE@LGAIEIJD@SH?3?5colour_plane_id?$AA@ 005cff3c     header.obj
 0003:00009f54       ??_C@_0BJ@MFCAIHCF@SH?3?5pic_parameter_set_id?$AA@ 005cff54     header.obj
 0003:00009f74       ??_C@_0P@JAMIAMAF@SH?3?5slice_type?$AA@ 005cff74     header.obj
 0003:00009f88       ??_C@_0BG@ONLCIICK@SH?3?5first_mb_in_slice?$AA@ 005cff88     header.obj
 0003:00009fa4       ??_C@_0BN@CAKDHHKA@SH?3?5slice_group_change_cycle?$AA@ 005cffa4     header.obj
 0003:00009fc8       ??_C@_0BL@GCBKMPNE@SH?3?5slice_beta_offset_div2?$AA@ 005cffc8     header.obj
 0003:00009fe8       ??_C@_0BP@FNPJIHAM@SH?3?5slice_alpha_c0_offset_div2?$AA@ 005cffe8     header.obj
 0003:0000a010       ??_C@_0CC@FGBFLFON@SH?3?5disable_deblocking_filter_id@ 005d0010     header.obj
 0003:0000a038       ??_C@_0CN@LAGLJHOI@slice_qs_delta?5makes?5slice_qs_y?5@ 005d0038     header.obj
 0003:0000a070       ??_C@_0BD@OLCKCOOP@SH?3?5slice_qs_delta?$AA@ 005d0070     header.obj
 0003:0000a088       ??_C@_0BH@FHKPLMPN@SH?3?5sp_for_switch_flag?$AA@ 005d0088     header.obj
 0003:0000a0a4       ??_C@_0CN@KOBJMMAL@slice_qp_delta?5makes?5slice_qp_y?5@ 005d00a4     header.obj
 0003:0000a0dc       ??_C@_0BD@GFKFCJAM@SH?3?5slice_qp_delta?$AA@ 005d00dc     header.obj
 0003:0000a0f4       ??_C@_0BD@DBGJONAD@SH?3?5cabac_init_idc?$AA@ 005d00f4     header.obj
 0003:0000a10c       ??_C@_0CB@EEJDKDAG@SH?3?5num_ref_idx_l1_active_minus1@ 005d010c     header.obj
 0003:0000a134       ??_C@_0CB@OKPLDCJH@SH?3?5num_ref_idx_l0_active_minus1@ 005d0134     header.obj
 0003:0000a15c       ??_C@_0BO@HMBJNKCG@SH?3?5num_ref_idx_override_flag?$AA@ 005d015c     header.obj
 0003:0000a180       ??_C@_0CA@BLHBKPP@SH?3?5direct_spatial_mv_pred_flag?$AA@ 005d0180     header.obj
 0003:0000a1a8       ??_C@_0BG@IDHOBDE@SH?3?5redundant_pic_cnt?$AA@ 005d01a8     header.obj
 0003:0000a1c4       ??_C@_0BL@OANMCKFA@SH?3?5delta_pic_order_cnt?$FL1?$FN?$AA@ 005d01c4     header.obj
 0003:0000a1e4       ??_C@_0BL@OBBOEAGH@SH?3?5delta_pic_order_cnt?$FL0?$FN?$AA@ 005d01e4     header.obj
 0003:0000a204       ??_C@_0BP@NHECBHLK@SH?3?5delta_pic_order_cnt_bottom?$AA@ 005d0204     header.obj
 0003:0000a22c       ??_C@_0BG@MMPMOOLO@SH?3?5pic_order_cnt_lsb?$AA@ 005d022c     header.obj
 0003:0000a248       ??_C@_0P@IJABAPDH@SH?3?5idr_pic_id?$AA@ 005d0248     header.obj
 0003:0000a260       ??_C@_1JE@MLJEJCNB@?$AAc?$AAu?$AAr?$AAr?$AAS?$AAl?$AAi?$AAc?$AAe?$AA?9?$AA?$DO?$AAf?$AAi?$AAe?$AAl?$AAd?$AA_?$AAp?$AAi?$AAc?$AA_?$AAf?$AAl?$AAa?$AAg?$AA?5?$AA?$DN?$AA?$DN?$AA?5?$AA1?$AA?5?$AA?$CG@ 005d0260     header.obj
 0003:0000a318       ??_C@_1JE@OJIFJHL@?$AAc?$AAu?$AAr?$AAr?$AAS?$AAl?$AAi?$AAc?$AAe?$AA?9?$AA?$DO?$AAf?$AAi?$AAe?$AAl?$AAd?$AA_?$AAp?$AAi?$AAc?$AA_?$AAf?$AAl?$AAa?$AAg?$AA?5?$AA?$DN?$AA?$DN?$AA?5?$AA1?$AA?5?$AA?$CG@ 005d0318     header.obj
 0003:0000a3cc       ??_C@_1DO@BCEJLCJO@?$AAc?$AAu?$AAr?$AAr?$AAS?$AAl?$AAi?$AAc?$AAe?$AA?9?$AA?$DO?$AAf?$AAi?$AAe?$AAl?$AAd?$AA_?$AAp?$AAi?$AAc?$AA_?$AAf?$AAl?$AAa?$AAg?$AA?5?$AA?$DN?$AA?$DN?$AA?5?$AA0?$AA?$AA@ 005d03cc     header.obj
 0003:0000a418       ??_C@_0BG@NIPAGGKK@SH?3?5bottom_field_flag?$AA@ 005d0418     header.obj
 0003:0000a434       ??_C@_0BD@MBKFCFCJ@SH?3?5field_pic_flag?$AA@ 005d0434     header.obj
 0003:0000a44c       ??_C@_1DE@PFBHFPAJ@?$AAc?$AAu?$AAr?$AAr?$AAS?$AAl?$AAi?$AAc?$AAe?$AA?9?$AA?$DO?$AAf?$AAr?$AAa?$AAm?$AAe?$AA_?$AAn?$AAu?$AAm?$AA?5?$AA?$DN?$AA?$DN?$AA?5?$AA0?$AA?$AA@ 005d044c     header.obj
 0003:0000a490       ??_C@_1EK@LGIKMMML@?$AAe?$AA?3?$AA?2?$AAj?$AAm?$AA1?$AA8?$AA?4?$AA1?$AA?$CL?$AAy?$AAu?$AA1?$AA?2?$AAj?$AAm?$AA?2?$AAl?$AAd?$AAe?$AAc?$AAo?$AAd?$AA?2?$AAs?$AAr?$AAc?$AA?2?$AAh?$AAe?$AAa?$AAd@ 005d0490     header.obj
 0003:0000a4e8       ??_C@_0O@KFEEJAPM@SH?3?5frame_num?$AA@ 005d04e8     header.obj
 0003:0000a4f8       ??_C@_0BJ@DMNJDJAK@SH?3?5long_term_pic_idx_l1?$AA@ 005d04f8     header.obj
 0003:0000a518       ??_C@_0BP@HGNIPNNG@SH?3?5abs_diff_pic_num_minus1_l1?$AA@ 005d0518     header.obj
 0003:0000a540       ??_C@_0CE@JNCMAPIF@SH?3?5modification_of_pic_nums_idc@ 005d0540     header.obj
 0003:0000a56c       ??_C@_0CE@LFFLEJCG@SH?3?5ref_pic_list_reordering_flag@ 005d056c     header.obj
 0003:0000a598       ??_C@_0BJ@CFMCAIEL@SH?3?5long_term_pic_idx_l0?$AA@ 005d0598     header.obj
 0003:0000a5b8       ??_C@_0BP@GPMDMMJH@SH?3?5abs_diff_pic_num_minus1_l0?$AA@ 005d05b8     header.obj
 0003:0000a5e0       ??_C@_0CE@IEDHDOME@SH?3?5modification_of_pic_nums_idc@ 005d05e0     header.obj
 0003:0000a60c       ??_C@_0CE@KMEAHIGH@SH?3?5ref_pic_list_reordering_flag@ 005d060c     header.obj
 0003:0000a638       ??_C@_0CA@JIJNLAKO@SH?3?5abs_diff_view_idx_minus1_l1?$AA@ 005d0638     header.obj
 0003:0000a660       ??_C@_0CA@IBIGIBOP@SH?3?5abs_diff_view_idx_minus1_l0?$AA@ 005d0660     header.obj
 0003:0000a688       ??_C@_0CG@BHBPDFMG@SH?3?5ref_pic_list_modification_fl@ 005d0688     header.obj
 0003:0000a6b8       ??_C@_0BF@EMICLEMM@SH?3?5chroma_offset_l1?$AA@ 005d06b8     header.obj
 0003:0000a6d4       ??_C@_0BF@LHFJPALK@SH?3?5chroma_weight_l1?$AA@ 005d06d4     header.obj
 0003:0000a6f0       ??_C@_0BK@DLHOOCEN@SH?3?5chroma_weight_flag_l1?$AA@ 005d06f0     header.obj
 0003:0000a710       ??_C@_0BD@JFLLACOD@SH?3?5luma_offset_l1?$AA@ 005d0710     header.obj
 0003:0000a728       ??_C@_0BD@GOGAEGJF@SH?3?5luma_weight_l1?$AA@ 005d0728     header.obj
 0003:0000a740       ??_C@_0BI@DLLGOLJH@SH?3?5luma_weight_flag_l1?$AA@ 005d0740     header.obj
 0003:0000a75c       ??_C@_0BF@FFJJIFIN@SH?3?5chroma_offset_l0?$AA@ 005d075c     header.obj
 0003:0000a778       ??_C@_0BF@KOECMBPL@SH?3?5chroma_weight_l0?$AA@ 005d0778     header.obj
 0003:0000a794       ??_C@_0BK@CCGFNDAM@SH?3?5chroma_weight_flag_l0?$AA@ 005d0794     header.obj
 0003:0000a7b4       ??_C@_0BD@IMKADDKC@SH?3?5luma_offset_l0?$AA@ 005d07b4     header.obj
 0003:0000a7cc       ??_C@_0BD@HHHLHHNE@SH?3?5luma_weight_l0?$AA@ 005d07cc     header.obj
 0003:0000a7e4       ??_C@_0BI@CCKNNKNG@SH?3?5luma_weight_flag_l0?$AA@ 005d07e4     header.obj
 0003:0000a800       ??_C@_0BN@ONCKOBM@SH?3?5chroma_log2_weight_denom?$AA@ 005d0800     header.obj
 0003:0000a824       ??_C@_0BL@MKLBOPDB@SH?3?5luma_log2_weight_denom?$AA@ 005d0824     header.obj
 0003:0000a844       ??_C@_0CA@JGFGJFKA@SH?3?5max_long_term_pic_idx_plus1?$AA@ 005d0844     header.obj
 0003:0000a86c       ??_C@_0BI@LNPJOBCJ@SH?3?5long_term_frame_idx?$AA@ 005d086c     header.obj
 0003:0000a888       ??_C@_0BG@JCFEBNBD@SH?3?5long_term_pic_num?$AA@ 005d0888     header.obj
 0003:0000a8a4       ??_C@_0CC@GEOOOJJG@SH?3?5difference_of_pic_nums_minus@ 005d08a4     header.obj
 0003:0000a8cc       ??_C@_0CI@PNALNBKI@SH?3?5memory_management_control_op@ 005d08cc     header.obj
 0003:0000a8fc       ??_C@_0CE@HFOLPFMJ@SH?3?5adaptive_ref_pic_buffering_f@ 005d08fc     header.obj
 0003:0000a928       ??_C@_0BN@JGDAJJMA@SH?3?5long_term_reference_flag?$AA@ 005d0928     header.obj
 0003:0000a94c       ??_C@_0CB@FLNLNPMI@SH?3?5no_output_of_prior_pics_flag@ 005d094c     header.obj
 0003:0000a974       ??_C@_19MNEDNEPB@?$AA1?$AA?$DN?$AA?$DN?$AA0?$AA?$AA@ 005d0974     header.obj
 0003:0000a980       ??_C@_0CL@DCCOIJAN@frame_num?5not?5equal?5to?5zero?5in?5I@ 005d0980     header.obj
 0003:0000a9b4       ??_C@_0CK@DOKABKFJ@max_frame_num?5?5?5?5?5?5?5?5?5?5?5?5?5?5?5?5?5?5?5@ 005d09b4     header.obj
 0003:0000a9e8       ??_C@_0CK@BIFIJIDF@idr_flag?5?5?5?5?5?5?5?5?5?5?5?5?5?5?5?5?5?5?5?5?5?5?5?5@ 005d09e8     header.obj
 0003:0000aa1c       ??_C@_0CK@MAPEJBNK@delta_pic_order_cnt?$FL1?$FN?5?5?5?5?5?5?5?5?5?5@ 005d0a1c     header.obj
 0003:0000aa50       ??_C@_0CK@NHNMPFBK@delta_pic_order_cnt?$FL0?$FN?5?5?5?5?5?5?5?5?5?5@ 005d0a50     header.obj
 0003:0000aa88       ??_C@_0EA@NGMCPCCF@bottom_field_pic_order_in_frame_@ 005d0a88     header.obj
 0003:0000aad4       ??_C@_0BF@OAPFDIEC@POC?5in?5SLice?5Header?6?$AA@ 005d0ad4     header.obj
 0003:0000aaf0       ??_C@_0CK@OHEKPMDE@offset_for_ref_frame?$FL1?$FN?5?5?5?5?5?5?5?5?5@ 005d0af0     header.obj
 0003:0000ab24       ??_C@_0CK@HIJAHPKK@offset_for_ref_frame?$FL0?$FN?5?5?5?5?5?5?5?5?5@ 005d0b24     header.obj
 0003:0000ab58       ??_C@_0CK@DIDNCOKN@offset_for_top_to_bottom_field?5?5@ 005d0b58     header.obj
 0003:0000ab8c       ??_C@_0CK@MHLKAHAJ@offset_for_non_ref_pic?5?5?5?5?5?5?5?5?5?5@ 005d0b8c     header.obj
 0003:0000abc0       ??_C@_0CK@KMJDBCOH@delta_pic_order_always_zero_flag@ 005d0bc0     header.obj
 0003:0000abf4       ??_C@_0CK@MOCBGOM@num_ref_frames_in_pic_order_cnt_@ 005d0bf4     header.obj
 0003:0000ac28       ??_C@_0CK@COONFJEI@pic_order_cnt_type?5?5?5?5?5?5?5?5?5?5?5?5?5?5@ 005d0c28     header.obj
 0003:0000ac5c       ??_C@_0CK@IMKLPBKF@log2_max_pic_order_cnt_lsb_minus@ 005d0c5c     header.obj
 0003:0000ac90       ??_C@_0CK@BCKLGPCP@log2_max_frame_num_minus4?5?5?5?5?5?5?5@ 005d0c90     header.obj
 0003:0000acc4       ??_C@_08MJPNNCGO@POC?5SPS?6?$AA@ 005d0cc4     header.obj
 0003:0000acd0       ??_C@_0CK@NMDLOCBA@bottom_field_flag?5?5?5?5?5?5?5?5?5?5?5?5?5?5?5@ 005d0cd0     header.obj
 0003:0000ad04       ??_C@_0CK@HMECJOGB@field_pic_flag?5?5?5?5?5?5?5?5?5?5?5?5?5?5?5?5?5?5@ 005d0d04     header.obj
 0003:0000ad38       ??_C@_0CK@NJFGODAH@frame_num?5?5?5?5?5?5?5?5?5?5?5?5?5?5?5?5?5?5?5?5?5?5?5@ 005d0d38     header.obj
 0003:0000ad6c       ??_C@_0CK@OAKOOKGC@bottompoc?5?5?5?5?5?5?5?5?5?5?5?5?5?5?5?5?5?5?5?5?5?5?5@ 005d0d6c     header.obj
 0003:0000ada0       ??_C@_0CK@NODDIEMF@toppoc?5?5?5?5?5?5?5?5?5?5?5?5?5?5?5?5?5?5?5?5?5?5?5?5?5?5@ 005d0da0     header.obj
 0003:0000add4       ??_C@_0BA@FCDIFKJO@?6POC?5locals?4?4?4?6?$AA@ 005d0dd4     header.obj
 0003:0000c3c0       ??_C@_1FA@KCLCAADH@?$AAc?$AAu?$AAr?$AAr?$AAS?$AAl?$AAi?$AAc?$AAe?$AA?9?$AA?$DO?$AAc?$AAu?$AAr?$AAr?$AAe?$AAn?$AAt?$AA_?$AAs?$AAl?$AAi?$AAc?$AAe?$AA_?$AAn?$AAr?$AA?5?$AA?$DN?$AA?$DN?$AA?5?$AAi@ 005d23c0     image.obj
 0003:0000c420       ??_C@_1CM@IHIPJFID@?$AAc?$AAu?$AAr?$AAr?$AAe?$AAn?$AAt?$AA_?$AAh?$AAe?$AAa?$AAd?$AAe?$AAr?$AA?5?$AA?$CB?$AA?$DN?$AA?5?$AAE?$AAO?$AAS?$AA?$AA@ 005d2420     image.obj
 0003:0000c458       ??_C@_1HC@KEPABDMK@?$AAp?$AA_?$AAV?$AAi?$AAd?$AA?9?$AA?$DO?$AAi?$AAS?$AAl?$AAi?$AAc?$AAe?$AAN?$AAu?$AAm?$AAO?$AAf?$AAC?$AAu?$AAr?$AAr?$AAP?$AAi?$AAc?$AA?5?$AA?$DM?$AA?5?$AAp?$AA_?$AAV?$AAi@ 005d2458     image.obj
 0003:0000c4e0       ??_C@_1HM@CNOBCIKC@?$AAp?$AAp?$AAS?$AAl?$AAi?$AAc?$AAe?$AAL?$AAi?$AAs?$AAt?$AA?$FL?$AAp?$AA_?$AAV?$AAi?$AAd?$AA?9?$AA?$DO?$AAi?$AAS?$AAl?$AAi?$AAc?$AAe?$AAN?$AAu?$AAm?$AAO?$AAf?$AAC?$AAu@ 005d24e0     image.obj
 0003:0000c578       ??_C@_1EO@FFINEMHB@?$AAp?$AAp?$AAS?$AAl?$AAi?$AAc?$AAe?$AAL?$AAi?$AAs?$AAt?$AA?$FL?$AAp?$AA_?$AAV?$AAi?$AAd?$AA?9?$AA?$DO?$AAi?$AAS?$AAl?$AAi?$AAc?$AAe?$AAN?$AAu?$AAm?$AAO?$AAf?$AAC?$AAu@ 005d2578     image.obj
 0003:0000c5d8       ??_C@_1EI@KIOAFNGN@?$AAe?$AA?3?$AA?2?$AAj?$AAm?$AA1?$AA8?$AA?4?$AA1?$AA?$CL?$AAy?$AAu?$AA1?$AA?2?$AAj?$AAm?$AA?2?$AAl?$AAd?$AAe?$AAc?$AAo?$AAd?$AA?2?$AAs?$AAr?$AAc?$AA?2?$AAi?$AAm?$AAa?$AAg@ 005d25d8     image.obj
 0003:0000c630       ??_C@_0BP@CLDGJKLO@init_picture?3?5tone_mapping_lut?$AA@ 005d2630     image.obj
 0003:0000c658       ??_C@_0CB@FNAKIIJH@p_Vid?9?$DOstructure?5not?5initialized@ 005d2658     image.obj
 0003:0000c680       ??_C@_0DA@MPCOPPG@An?5unintentional?5loss?5of?5picture@ 005d2680     image.obj
 0003:0000c6c0       ??_C@_1EI@PBBACDLK@?$AAp?$AA_?$AAV?$AAi?$AAd?$AA?9?$AA?$DO?$AAp?$AAp?$AAS?$AAl?$AAi?$AAc?$AAe?$AAL?$AAi?$AAs?$AAt?$AA?$FL?$AAj?$AA?$FN?$AA?9?$AA?$DO?$AAv?$AAi?$AAe?$AAw?$AA_?$AAi?$AAd?$AA?5?$AA?$DN@ 005d26c0     image.obj
 0003:0000c718       ??_C@_0GH@LDMCHJFM@Maximum?5number?5of?5supported?5slic@ 005d2718     image.obj
 0003:0000c798       ??_C@_0FA@HIBDIKFI@reading?5only?5from?5formats?5of?58?0?5@ 005d2798     image.obj
 0003:0000c7f8       ??_C@_0GP@MLEMOBPG@Source?5picture?5has?5higher?5bit?5de@ 005d27f8     image.obj
 0003:0000c880       ??_C@_0DA@PELLEKJH@?$CF04d?$CIP?$CJ?5?5?$CF8d?5?$CF5d?5?$CF5d?5?$CF7?44f?5?$CF7?44f@ 005d2880     image.obj
 0003:0000c8bc       ??_C@_0DB@GMKNBIKK@Warning?3?5could?5not?5read?5from?5rec@ 005d28bc     image.obj
 0003:0000c8f8       ??_C@_0FK@BJPJKMIJ@Warning?3?5Could?5not?5seek?5to?5frame@ 005d28f8     image.obj
 0003:0000c964       ??_C@_0O@FJGGMLDO@find_snr?3?5buf?$AA@ 005d2964     image.obj
 0003:0000c974       ??_C@_05NHNIEHIH@4?34?34?$AA@ 005d2974     image.obj
 0003:0000c97c       ??_C@_05KEOJLPNN@4?32?32?$AA@ 005d297c     image.obj
 0003:0000c984       ??_C@_05JGNPNNFP@4?32?30?$AA@ 005d2984     image.obj
 0003:0000c98c       ??_C@_05DMNGBFNE@4?30?30?$AA@ 005d298c     image.obj
 0003:0000c998       __real@4024000000000000    005d2998     image.obj
 0003:0000c9a8       ??_C@_0GC@PPMHLAK@RefPicList1?$FL?5num_ref_idx_l1_acti@ 005d29a8     image.obj
 0003:0000ca20       ??_C@_0DG@DLAMONKE@RefPicList1?$FL?5?$CFd?5?$FN?5is?5equal?5to?5?8n@ 005d2a20     image.obj
 0003:0000ca60       ??_C@_0GC@PGDCGAIH@RefPicList0?$FL?5num_ref_idx_l0_acti@ 005d2a60     image.obj
 0003:0000cad8       ??_C@_0DG@BBCENFMG@RefPicList0?$FL?5?$CFd?5?$FN?5is?5equal?5to?5?8n@ 005d2ad8     image.obj
 0003:0000cb18       ??_C@_0DO@HKFPFKGE@Found?5NALU?5type?5?$CFd?0?5len?5?$CFd?5undef@ 005d2b18     image.obj
 0003:0000cb64       ??_C@_0CK@HHCPIDEM@Found?5SVC?5extension?5NALU?5?$CI?$CFd?$CJ?4?5I@ 005d2b64     image.obj
 0003:0000cb98       ??_C@_0CH@IFADHMNH@Found?5Subsequence?5SPS?5NALU?4?5Igno@ 005d2b98     image.obj
 0003:0000cbc8       ??_C@_0DK@OKHBLEIH@found?5data?5partition?5C?5without?5m@ 005d2bc8     image.obj
 0003:0000cc10       ??_C@_0DK@GKIBKDJI@found?5data?5partition?5B?5without?5m@ 005d2c10     image.obj
 0003:0000cc58       ??_C@_0BO@PDOGGCN@NALU?3SLICE_C?5redudand_pic_cnt?$AA@ 005d2c58     image.obj
 0003:0000cc80       ??_C@_0EF@MIAEEHFL@Warning?3?5got?5a?5data?5partition?5C?5@ 005d2c80     image.obj
 0003:0000ccd4       ??_C@_0BE@JGOLEKHG@NALU?3?5DP_C?5slice_id?$AA@ 005d2cd4     image.obj
 0003:0000ccec       ??_C@_0BN@MKJLDAHE@NALU?3?5DP_B?5redundant_pic_cnt?$AA@ 005d2cec     image.obj
 0003:0000cd10       ??_C@_0EF@HPAFEIDP@Waning?3?5got?5a?5data?5partition?5B?5w@ 005d2d10     image.obj
 0003:0000cd64       ??_C@_0BE@FHGFJFLG@NALU?3?5DP_B?5slice_id?$AA@ 005d2d64     image.obj
 0003:0000cd7c       ??_C@_0DI@LKINOHKE@received?5data?5partition?5with?5CAB@ 005d2d7c     image.obj
 0003:0000cdc0       ??_C@_0BE@MOIHPDLH@NALU?3?5DP_A?5slice_id?$AA@ 005d2dc0     image.obj
 0003:0000cdd8       ??_C@_1FO@PAKEGPJD@?$AAp?$AA_?$AAV?$AAi?$AAd?$AA?9?$AA?$DO?$AAa?$AAc?$AAt?$AAi?$AAv?$AAe?$AA_?$AAs?$AAu?$AAb?$AAs?$AAe?$AAt?$AA_?$AAs?$AAp?$AAs?$AA?9?$AA?$DO?$AAn?$AAu?$AAm?$AA_?$AAv?$AAi@ 005d2dd8     image.obj
 0003:0000ce48       ??_C@_1HE@JCFPFJNC@?$AAc?$AAu?$AAr?$AAr?$AAS?$AAl?$AAi?$AAc?$AAe?$AA?9?$AA?$DO?$AAv?$AAi?$AAe?$AAw?$AA_?$AAi?$AAd?$AA?5?$AA?$DN?$AA?$DN?$AA?5?$AAc?$AAu?$AAr?$AAr?$AAS?$AAl?$AAi?$AAc?$AAe?$AA?9@ 005d2e48     image.obj
 0003:0000ced4       ??_C@_0DH@KFPJBCNO@Warning?3?5Decoding?5does?5not?5start@ 005d2ed4     image.obj
 0003:0000cf18       ??_C@_0BD@PJCJNMPB@svc_extension_flag?$AA@ 005d2f18     image.obj
 0003:0000cf30       ??_C@_0CA@JHPOAFBL@Completed?5Decoding?5frame?5?$CF05d?4?$AN?$AA@ 005d2f30     image.obj
 0003:0000cf58       ??_C@_0DH@BGBCNFE@?$CF05d?$CI?$CFs?$CF5d?5?$CF5d?5?$CF5d?5?5?5?5?5?5?5?5?5?5?5?5?5?5@ 005d2f58     image.obj
 0003:0000cf9c       ??_C@_0CO@IMGOGIO@?$CF05d?$CI?$CFs?$CF5d?5?$CF5d?5?$CF5d?5?$CF8?44f?5?$CF8?44f?5?$CF@ 005d2f9c     image.obj
 0003:0000cfd4       ??_C@_02DKCKIIND@?$CFs?$AA@ 005d2fd4     image.obj
 0003:0000cfd8       ??_C@_05BODIFKGB@?$HM?5b?5?$CJ?$AA@ 005d2fd8     image.obj
 0003:0000cfe0       ??_C@_05LOAKPFFP@?$HM?5B?5?$CJ?$AA@ 005d2fe0     image.obj
 0003:0000cfe8       ??_C@_05NHHJOIEB@?$HMSI?5?$CJ?$AA@ 005d2fe8     image.obj
 0003:0000cff0       ??_C@_05PKGIPAFE@?$HMSP?5?$CJ?$AA@ 005d2ff0     image.obj
 0003:0000cff8       ??_C@_05EEBKGKEL@?$HM?5P?5?$CJ?$AA@ 005d2ff8     image.obj
 0003:0000d000       ??_C@_05GJALHCFO@?$HM?5I?5?$CJ?$AA@ 005d3000     image.obj
 0003:0000d008       ??_C@_05FIDGADIB@?$HMIDR?$CJ?$AA@ 005d3008     image.obj
 0003:0000d010       ??_C@_08MKPJGDCN@?$CJ?5?5?5?5?5?5?5?$AA@ 005d3010     image.obj
 0003:0000d01c       ??_C@_03KAFOLEDB@?5b?5?$AA@ 005d301c     image.obj
 0003:0000d020       ??_C@_03JIBDPCNB@?5B?5?$AA@ 005d3020     image.obj
 0003:0000d024       ??_C@_03ONMMBCEC@SI?5?$AA@ 005d3024     image.obj
 0003:0000d028       ??_C@_03PODLIKLN@SP?5?$AA@ 005d3028     image.obj
 0003:0000d02c       ??_C@_03IHLBIFMP@?5P?5?$AA@ 005d302c     image.obj
 0003:0000d030       ??_C@_03JEEGBNDA@?5I?5?$AA@ 005d3030     image.obj
 0003:0000d034       ??_C@_03MHLJCNJO@IDR?$AA@  005d3034     image.obj
 0003:0000d038       ??_C@_0CG@KJDAIPCG@copy_dec_picture_JV?3?5tone_mappin@ 005d3038     image.obj
 0003:0000d068       ??_C@_1II@PHJFHNNC@?$AAp?$AA_?$AAV?$AAi?$AAd?$AA?9?$AA?$DO?$AAa?$AAc?$AAt?$AAi?$AAv?$AAe?$AA_?$AAs?$AAu?$AAb?$AAs?$AAe?$AAt?$AA_?$AAs?$AAp?$AAs?$AA?9?$AA?$DO?$AAn?$AAu?$AAm?$AA_?$AAv?$AAi@ 005d3068     image.obj
 0003:0000d10c       ??_C@_05BOPBHOPK@1080p?$AA@ 005d310c     img_io.obj
 0003:0000d114       ??_C@_04HLKKMADI@720p?$AA@ 005d3114     img_io.obj
 0003:0000d11c       ??_C@_03BMIECJFN@sd3?$AA@  005d311c     img_io.obj
 0003:0000d120       ??_C@_03FJPBIBM@sd2?$AA@   005d3120     img_io.obj
 0003:0000d124       ??_C@_03COLCELNP@sd1?$AA@  005d3124     img_io.obj
 0003:0000d128       ??_C@_03KBJBFIOA@vga?$AA@  005d3128     img_io.obj
 0003:0000d12c       ??_C@_03IDIJEEIA@cif?$AA@  005d312c     img_io.obj
 0003:0000d130       ??_C@_03NDJABDBP@sif?$AA@  005d3130     img_io.obj
 0003:0000d134       ??_C@_04ICEFLJJO@qvga?$AA@ 005d3134     img_io.obj
 0003:0000d13c       ??_C@_05DFNLDBEE@qqvga?$AA@ 005d313c     img_io.obj
 0003:0000d144       ??_C@_04KAFNKFPO@qcif?$AA@ 005d3144     img_io.obj
 0003:0000d49c       ??_C@_02GIIHKPLE@ip?$AA@   005d349c     img_io.obj
 0003:0000d4a0       ??_C@_02GMFJEGEM@_?4?$AA@  005d34a0     img_io.obj
 0003:0000d4a4       ??_C@_01FJMABOPO@x?$AA@    005d34a4     img_io.obj
 0003:0000d4a8       ??_C@_01IDAFKMJL@_?$AA@    005d34a8     img_io.obj
 0003:0000d4ac       ??_C@_01LPLHEDKD@d?$AA@    005d34ac     img_io.obj
 0003:0000d4b0       ??_C@_01FGNFDNOH@?$CF?$AA@ 005d34b0     img_io.obj
 0003:0000d4b4       ??_C@_0CE@EJDMHNKO@OpenFrameFile?3?5cannot?5open?5file?5@ 005d34b4     img_io.obj
 0003:0000d4e0       ??_C@_03HNBMBCHK@?$CF?$CKd?$AA@ 005d34e0     img_io.obj
 0003:0000d4e4       ??_C@_04PEJMDNKC@?$CF0?$CKd?$AA@ 005d34e4     img_io.obj
 0003:0000d4ec       ??_C@_0BN@HKMALDOA@Input?5file?5?$CFs?5does?5not?5exist?$AA@ 005d34ec     img_io.obj
 0003:0000d510       ??_C@_0DM@GEHKPOPN@No?5input?5sequence?5name?5was?5provi@ 005d3510     img_io.obj
 0003:0000d558       ??_C@_03LJGCHEIJ@avi?$AA@  005d3558     img_io.obj
 0003:0000d55c       ??_C@_03EOEHCLKG@tif?$AA@  005d355c     img_io.obj
 0003:0000d560       ??_C@_03FNOJMHE@rgb?$AA@   005d3560     img_io.obj
 0003:0000d564       ??_C@_03ODNDLLDO@yuv?$AA@  005d3564     img_io.obj
 0003:0000dabc       ??_C@_0DG@HEHKAEPL@Rescaling?5not?5supported?5in?5big?5e@ 005d3abc     input.obj
 0003:0000dafc       ??_C@_0CB@KFIJLEIB@AllocateFrameMemory?3?5p_Vid?9?$DOibuf@ 005d3afc     input.obj
 0003:0000db24       ??_C@_0CA@IIFHFNCM@AllocateFrameMemory?3?5p_Vid?9?$DObuf?$AA@ 005d3b24     input.obj
 0003:0000db4c       ??_C@_0BL@FMIMPGDK@Unsupported?5pixel?5format?4?6?$AA@ 005d3b4c     input.obj
 0003:0000de0c       ??_C@_0CP@KMGNEECK@illegal?516x16?5intra?5prediction?5m@ 005d3e0c     intra16x16_pred.obj
 0003:0000de44       ??_C@_0CL@EEHMBOEG@invalid?516x16?5intra?5pred?5Mode?5VE@ 005d3e44     intra16x16_pred.obj
 0003:0000de78       ??_C@_0CK@NFEGOACL@invalid?516x16?5intra?5pred?5Mode?5HO@ 005d3e78     intra16x16_pred.obj
 0003:0000deac       ??_C@_0CH@BACDEDCM@invalid?516x16?5intra?5pred?5Mode?5PL@ 005d3eac     intra16x16_pred.obj
 0003:0000e6bc       ??_C@_0CO@KBONPIIC@Error?3?5illegal?5intra_4x4?5predict@ 005d46bc     intra4x4_pred.obj
 0003:0000e6f8       ??_C@_0EC@NEEGCDCD@warning?3?5Intra_4x4_Vertical?5pred@ 005d46f8     intra4x4_pred.obj
 0003:0000e748       ??_C@_0EE@ENGMHJNN@warning?3?5Intra_4x4_Horizontal?5pr@ 005d4748     intra4x4_pred.obj
 0003:0000e7a0       ??_C@_0EN@HHDCDLHL@warning?3?5Intra_4x4_Diagonal_Down@ 005d47a0     intra4x4_pred.obj
 0003:0000e800       ??_C@_0EM@OBINBKFI@warning?3?5Intra_4x4_Diagonal_Down@ 005d4800     intra4x4_pred.obj
 0003:0000e860       ??_C@_0EI@FAICCFJK@warning?3?5Intra_4x4_Vertical_Righ@ 005d4860     intra4x4_pred.obj
 0003:0000e8b8       ??_C@_0EH@FDNCFBCJ@warning?3?5Intra_4x4_Vertical_Left@ 005d48b8     intra4x4_pred.obj
 0003:0000e910       ??_C@_0EH@LIIEBPH@warning?3?5Intra_4x4_Horizontal_Up@ 005d4910     intra4x4_pred.obj
 0003:0000e968       ??_C@_0EJ@OJCACMPA@warning?3?5Intra_4x4_Horizontal_Do@ 005d4968     intra4x4_pred.obj
 0003:0000f19c       ??_C@_0CO@HGLOMDHL@Error?3?5illegal?5intra_8x8?5predict@ 005d519c     intra8x8_pred.obj
 0003:0000f1d8       ??_C@_0EC@FMAJLJKB@warning?3?5Intra_8x8_Vertical?5pred@ 005d51d8     intra8x8_pred.obj
 0003:0000f228       ??_C@_0EE@FEADHBAB@warning?3?5Intra_8x8_Horizontal?5pr@ 005d5228     intra8x8_pred.obj
 0003:0000f280       ??_C@_0EN@PMDPNLM@warning?3?5Intra_8x8_Diagonal_Down@ 005d5280     intra8x8_pred.obj
 0003:0000f2e0       ??_C@_0EM@BHICHPBA@warning?3?5Intra_8x8_Diagonal_Down@ 005d52e0     intra8x8_pred.obj
 0003:0000f340       ??_C@_0EI@LEBNKNKL@warning?3?5Intra_8x8_Vertical_Righ@ 005d5340     intra8x8_pred.obj
 0003:0000f398       ??_C@_0EH@JKMPHLHL@warning?3?5Intra_8x8_Horizontal_Up@ 005d5398     intra8x8_pred.obj
 0003:0000f3f0       ??_C@_0EJ@LIBKLDEC@warning?3?5Intra_8x8_Horizontal_Do@ 005d53f0     intra8x8_pred.obj
 0003:0000fe44       ??_C@_0CF@JLLFNDPK@illegal?5chroma?5intra?5prediction?5@ 005d5e44     intra_chroma_pred.obj
 0003:0000fe70       ??_C@_0DD@DBDKHHGO@unexpected?5HOR_PRED_8?5chroma?5int@ 005d5e70     intra_chroma_pred.obj
 0003:0000feb0       ??_C@_0DE@ELDJAFGE@unexpected?5VERT_PRED_8?5chroma?5in@ 005d5eb0     intra_chroma_pred.obj
 0003:0000fef0       ??_C@_0DA@ILDFPBAD@unexpected?5PLANE_8?5chroma?5intra?5@ 005d5ef0     intra_chroma_pred.obj
 0003:00010930       ??_C@_0EP@DJBFLGND@read_one_frame?5?$CINOT?5IMPLEMENTED?$CJ@ 005d6930     io_raw.obj
 0003:00010990       ??_C@_0EL@JIPKKMPD@read_one_frame?3?5cannot?5advance?5f@ 005d6990     io_raw.obj
 0003:000109f0       ??_C@_0EH@KEGIJCI@read_one_frame?3?5cannot?5read?5?$CFd?5b@ 005d69f0     io_raw.obj
 0003:00010a48       ??_C@_0DM@KFKIHJKI@read_one_frame?3?5cannot?5fseek?5to?5@ 005d6a48     io_raw.obj
 0003:00010e38       ??_C@_0ED@EDJADPJB@ReadTIFFImage?5only?5supports?5pic_@ 005d6e38     io_tiff.obj
 0003:00010e88       ??_C@_0CO@JNAOAJNF@ReadTIFFImage?3?5?5Unsupported?5Colo@ 005d6e88     io_tiff.obj
 0003:00010ec0       ??_C@_0EF@OAJKODPB@ReadTIFFImage?5only?5supports?5pic_@ 005d6ec0     io_tiff.obj
 0003:00010f18       ??_C@_0FG@MGDNMPGF@ReadTIFFImage?3?5?5Tiff?5width?5?$CI?$CFu?$CJ?5@ 005d6f18     io_tiff.obj
 0003:00010f80       ??_C@_0FI@DKGGLIGJ@ReadTIFFImage?3?5?5Tiff?5height?5?$CI?$CFu?$CJ@ 005d6f80     io_tiff.obj
 0003:00010fec       ??_C@_0CI@LDPHMCJB@ReadTIFFImage?3?5?5file?5name?5is?5too@ 005d6fec     io_tiff.obj
 0003:0001101c       ??_C@_07KEALOLFI@?$CFs?$CF?$CKd?$CFs?$AA@ 005d701c     io_tiff.obj
 0003:00011028       ??_C@_08GPBBFCJH@?$CFs?$CF0?$CKd?$CFs?$AA@ 005d7028     io_tiff.obj
 0003:00011038       ??_C@_0GH@IFDODCIH@ReadTIFFImage?3?5?5RGB?5input?5file?5h@ 005d7038     io_tiff.obj
 0003:000110b8       ??_C@_1EM@DJFFKAGD@?$AA?$CI?$AAw?$AAi?$AAd?$AAt?$AAh?$AA?5?$AA?$CG?$AA?5?$AA1?$AA?$CJ?$AA?5?$AA?$DN?$AA?$DN?$AA?5?$AA0?$AA?5?$AA?$CG?$AA?$CG?$AA?5?$AA?$CI?$AAh?$AAe?$AAi?$AAg?$AAh?$AAt?$AA?5?$AA?$CG?$AA?5?$AA1?$AA?$CJ@ 005d70b8     io_tiff.obj
 0003:00011114       ??_C@_17ENLBLDPN@?$AAb?$AAu?$AAf?$AA?$AA@ 005d7114     io_tiff.obj
 0003:00011120       ??_C@_1O@JOABEBCL@?$AAs?$AAo?$AAu?$AAr?$AAc?$AAe?$AA?$AA@ 005d7120     io_tiff.obj
 0003:00011130       ??_C@_1BG@DMHIACHC@?$AAi?$AAn?$AAp?$AAu?$AAt?$AA_?$AAf?$AAi?$AAl?$AAe?$AA?$AA@ 005d7130     io_tiff.obj
 0003:0001114c       ??_C@_1M@IHGMHCNB@?$AAp?$AA_?$AAI?$AAn?$AAp?$AA?$AA@ 005d714c     io_tiff.obj
 0003:00011160       ??_C@_1EO@KNPIGIFJ@?$AAe?$AA?3?$AA?2?$AAj?$AAm?$AA1?$AA8?$AA?4?$AA1?$AA?$CL?$AAy?$AAu?$AA1?$AA?2?$AAj?$AAm?$AA?2?$AAl?$AAc?$AAo?$AAm?$AAm?$AAo?$AAn?$AA?2?$AAs?$AAr?$AAc?$AA?2?$AAi?$AAo?$AA_@ 005d7160     io_tiff.obj
 0003:000111c0       ??_C@_19JIFMCCAP@?$AAp?$AAa?$AAt?$AAh?$AA?$AA@ 005d71c0     io_tiff.obj
 0003:000111cc       ??_C@_13DKOGBHCI@?$AAt?$AA?$AA@ 005d71cc     io_tiff.obj
 0003:000111d0       ??_C@_0CM@MCPFIGPO@First?5two?5bytes?5indicate?3?5?5Not?5a@ 005d71d0     io_tiff.obj
 0003:00011204       ??_C@_0BM@DCDIAJNM@Couldn?8t?5open?5to?5read?3?5?5?$CFs?6?$AA@ 005d7204     io_tiff.obj
 0003:00011228       ??_C@_1BI@LLNMJHFO@?$AAo?$AAf?$AAf?$AAs?$AAe?$AAt?$AA?5?$AA?$DN?$AA?$DN?$AA?5?$AA1?$AA?$AA@ 005d7228     io_tiff.obj
 0003:00011244       ??_C@_1BI@BBNFFPNF@?$AAo?$AAf?$AAf?$AAs?$AAe?$AAt?$AA?5?$AA?$DN?$AA?$DN?$AA?5?$AA3?$AA?$AA@ 005d7244     io_tiff.obj
 0003:00011260       ??_C@_0CB@KEMKCFLL@Only?5Orientation?51?5is?5supported?6@ 005d7260     io_tiff.obj
 0003:00011288       ??_C@_1BI@KJGJDILA@?$AAo?$AAf?$AAf?$AAs?$AAe?$AAt?$AA?5?$AA?$DN?$AA?$DN?$AA?5?$AA2?$AA?$AA@ 005d7288     io_tiff.obj
 0003:000112a4       ??_C@_0CI@KFKPMBMB@Only?5uncompressed?5TIFF?5files?5sup@ 005d72a4     io_tiff.obj
 0003:000112d4       ??_C@_0CJ@JLDBKAPB@Only?58?5or?516?5BitsPerSample?5is?5su@ 005d72d4     io_tiff.obj
 0003:00011308       ??_C@_0DA@MGANJHNG@BitsPerSample?5must?5be?5the?5same?5f@ 005d7308     io_tiff.obj
 0003:00011344       ??_C@_0CE@MPNBAOEI@BitsPerSample?5?$CIonly?5?$FL3?$FN?5supporte@ 005d7344     io_tiff.obj
 0003:00011370       ??_C@_0EF@IIHBABDG@readDirectoryEntry?3?5?5ImageLength@ 005d7370     io_tiff.obj
 0003:000113c4       ??_C@_1BG@GMLJGOJE@?$AAc?$AAo?$AAu?$AAn?$AAt?$AA?5?$AA?$DN?$AA?$DN?$AA?5?$AA1?$AA?$AA@ 005d73c4     io_tiff.obj
 0003:000113e0       ??_C@_1HA@LMNMFBFK@?$AAt?$AAy?$AAp?$AAe?$AA?5?$AA?$DN?$AA?$DN?$AA?5?$AAT?$AA_?$AAS?$AAH?$AAO?$AAR?$AAT?$AA?5?$AA?$HM?$AA?$HM?$AA?5?$AAt?$AAy?$AAp?$AAe?$AA?5?$AA?$DN?$AA?$DN?$AA?5?$AAT?$AA_?$AAL?$AAO?$AAN@ 005d73e0     io_tiff.obj
 0003:00011468       ??_C@_0CB@OFGCMMEH@ImageFileHeader?4arbitrary?5?$CB?$DN?542?6@ 005d7468     io_tiff.obj
 0003:00011490       ??_C@_0CI@FJKCIGAD@ERROR?3?5RGB_YUV_initialize?3?5vr?$CLvg@ 005d7490     io_tiff.obj
 0003:000114c0       ??_C@_0CI@DOLHELFD@ERROR?3?5RGB_YUV_initialize?3?5ur?$CLug@ 005d74c0     io_tiff.obj
 0003:000114f0       ??_C@_0CO@CJKLFOMH@ERROR?3?5RGB_YUV_initialize?3?5yr?$CLyg@ 005d74f0     io_tiff.obj
 0003:00011528       __real@3ff0000000000000    005d7528     io_tiff.obj
 0003:00011538       __real@40cc1c1c1c1c1c1c    005d7538     io_tiff.obj
 0003:00011548       __real@40cb7b7b7b7b7b7b    005d7548     io_tiff.obj
 0003:00011558       __real@40d0000000000000    005d7558     io_tiff.obj
 0003:00011568       __real@3fe0000000000000    005d7568     io_tiff.obj
 0003:00011578       __real@4070000000000000    005d7578     io_tiff.obj
 0003:00011584       ??_C@_0DB@PJOLBHJK@RGB_YUV_initialize?3?5?5Unsupported@ 005d7584     io_tiff.obj
 0003:0001252c       ??_C@_03OFAPEBGM@?$CFs?6?$AA@ 005d852c     ldecod.obj
 0003:00012530       ??_C@_0DK@JKFLBGMM@AllocPartition?3?5Memory?5allocatio@ 005d8530     ldecod.obj
 0003:00012578       ??_C@_0DH@MKLCMMEC@AllocPartition?3?5Memory?5allocatio@ 005d8578     ldecod.obj
 0003:000125bc       ??_C@_0DM@CJEEKIOK@AllocPartition?3?5Memory?5allocatio@ 005d85bc     ldecod.obj
 0003:00012608       ??_C@_1EI@OJFCLENF@?$AAd?$AAp?$AA?9?$AA?$DO?$AAb?$AAi?$AAt?$AAs?$AAt?$AAr?$AAe?$AAa?$AAm?$AA?9?$AA?$DO?$AAs?$AAt?$AAr?$AAe?$AAa?$AAm?$AAB?$AAu?$AAf?$AAf?$AAe?$AAr?$AA?5?$AA?$CB?$AA?$DN?$AA?5?$AAN@ 005d8608     ldecod.obj
 0003:00012660       ??_C@_1CM@NFKMJIPJ@?$AAd?$AAp?$AA?9?$AA?$DO?$AAb?$AAi?$AAt?$AAs?$AAt?$AAr?$AAe?$AAa?$AAm?$AA?5?$AA?$CB?$AA?$DN?$AA?5?$AAN?$AAU?$AAL?$AAL?$AA?$AA@ 005d8660     ldecod.obj
 0003:00012694       ??_C@_1BG@FCIFGNML@?$AAd?$AAp?$AA?5?$AA?$CB?$AA?$DN?$AA?5?$AAN?$AAU?$AAL?$AAL?$AA?$AA@ 005d8694     ldecod.obj
 0003:000126b0       ??_C@_1EK@NDIIEEKN@?$AAe?$AA?3?$AA?2?$AAj?$AAm?$AA1?$AA8?$AA?4?$AA1?$AA?$CL?$AAy?$AAu?$AA1?$AA?2?$AAj?$AAm?$AA?2?$AAl?$AAd?$AAe?$AAc?$AAo?$AAd?$AA?2?$AAs?$AAr?$AAc?$AA?2?$AAl?$AAd?$AAe?$AAc@ 005d86b0     ldecod.obj
 0003:00012708       ??_C@_0CC@GIJAAFJC@malloc_slice?3?5currSlice?9?$DOlistX?$FLi@ 005d8708     ldecod.obj
 0003:00012730       ??_C@_0DN@MLIELCMM@Memory?5allocation?5for?5Slice?5data@ 005d8730     ldecod.obj
 0003:0001277c       ??_C@_0CH@ICMEKEPF@init_global_buffers?3?5p_Vid?9?$DOsibl@ 005d877c     ldecod.obj
 0003:000127ac       ??_C@_0BM@DCNNBBAJ@init_global_buffers?3?5PicPos?$AA@ 005d87ac     ldecod.obj
 0003:000127d0       ??_C@_0CG@MDBAIDJM@init_global_buffers?3?5cps?9?$DOintra_@ 005d87d0     ldecod.obj
 0003:00012800       ??_C@_0CJ@PLJCHHIL@init_global_buffers?3?5cps?9?$DOintra_@ 005d8800     ldecod.obj
 0003:00012834       ??_C@_0CC@CCMCGJGM@init_global_buffers?3?5cps?9?$DOmb_dat@ 005d8834     ldecod.obj
 0003:0001285c       ??_C@_0CF@ICBKKMCE@init_global_buffers?3?5cps?9?$DOmb_dat@ 005d885c     ldecod.obj
 0003:00012888       ??_C@_0EI@JEBKMNPK@?5?5?5?5?5?5?5?5?5?5?5?5?5?5?5?5?5?5?5?5?5?5?5?5?5?5?5?5?5?5?5?5@ 005d8888     ldecod.obj
 0003:000128e0       ??_C@_0DO@IBAHBFM@?5Input?5reference?5file?5?5?5?5?5?5?5?5?5?5?5@ 005d88e0     ldecod.obj
 0003:0001292c       ??_C@_0BE@LHKFBLIA@Error?5open?5file?5?$CFs?5?$AA@ 005d892c     ldecod.obj
 0003:00012944       ??_C@_02JMMFPCED@?$CC?$CC?$AA@ 005d8944     ldecod.obj
 0003:00012948       ??_C@_0BG@PMEFGEFE@alloc_decoder?3?5p_Dec?6?$AA@ 005d8948     ldecod.obj
 0003:00012964       ??_C@_0CH@KKHBOBNG@alloc_video_params?3?5p_Vid?9?$DOppSli@ 005d8964     ldecod.obj
 0003:00012994       ??_C@_0CN@EIILBBPE@alloc_video_params?3?5?$CI?$CKp_Vid?$CJ?9?$DOse@ 005d8994     ldecod.obj
 0003:000129cc       ??_C@_0CI@JJJOJJCL@alloc_video_params?3p_Vid?9?$DOp_Laye@ 005d89cc     ldecod.obj
 0003:000129fc       ??_C@_0CJ@CBHKFFPN@alloc_video_params?3p_Vid?9?$DOp_Enco@ 005d89fc     ldecod.obj
 0003:00012a30       ??_C@_0CK@EEMFPBCN@alloc_video_params?3?5p_Vid?9?$DOp_Dpb@ 005d8a30     ldecod.obj
 0003:00012a64       ??_C@_0BP@BFAECD@alloc_video_params?3?5p_Vid?9?$DOsnr?$AA@ 005d8a64     ldecod.obj
 0003:00012a8c       ??_C@_0CF@KKBDCJNG@alloc_video_params?3?5p_Vid?9?$DOold_s@ 005d8a8c     ldecod.obj
 0003:00012ab8       ??_C@_0BK@NKJILEP@alloc_video_params?3?5p_Vid?$AA@ 005d8ab8     ldecod.obj
 0003:00012ad8       ??_C@_0BE@NJGMNDGN@alloc_params?3?5p_Inp?$AA@ 005d8ad8     ldecod.obj
 0003:00012af0       ??_C@_0FE@DIBGAHBF@?$CF3d?5?$CF2d?5?$CF2d?5?$CF2?42f?5?$CF2?42f?5?$CF2?42f?5?$CF5@ 005d8af0     ldecod.obj
 0003:00012b54       ??_C@_0M@PLLKGGAP@dataDec?4txt?$AA@ 005d8b54     ldecod.obj
 0003:00012b64       ??_C@_06HOIKJFEI@?$CF6?43f?$HM?$AA@ 005d8b64     ldecod.obj
 0003:00012b6c       ??_C@_07CCIBMFPP@?5CABAC?$HM?$AA@ 005d8b6c     ldecod.obj
 0003:00012b78       ??_C@_07EFILCMGA@?5CAVLC?$HM?$AA@ 005d8b78     ldecod.obj
 0003:00012b84       ??_C@_05ICPNIEHG@?5?$CFs?5?$HM?$AA@ 005d8b84     ldecod.obj
 0003:00012b8c       ??_C@_09JANHLLAO@?$CF4dx?$CF?94d?$HM?$AA@ 005d8b8c     ldecod.obj
 0003:00012b98       ??_C@_05PAFOBIMB@?$CF3d?5?$HM?$AA@ 005d8b98     ldecod.obj
 0003:00012ba0       ??_C@_08HNEKEKBN@?$CF20?420s?$HM?$AA@ 005d8ba0     ldecod.obj
 0003:00012bac       ??_C@_09PKAGLDNN@?5?$CF?51?45s?5?$HM?$AA@ 005d8bac     ldecod.obj
 0003:00012bb8       ??_C@_09FLFJJODA@?$HM?5?$CF1?45s?5?$HM?$AA@ 005d8bb8     ldecod.obj
 0003:00012bc4       ??_C@_08OJIEHKBJ@?$HM?$CFs?1?$CF?94s?$AA@ 005d8bc4     ldecod.obj
 0003:00012bd0       ??_C@_0HH@HILNACPD@?$HM?5?5?5ver?5?5?$HM?5Date?5?5?$HM?5Time?5?5?$HM?5?5?5?5Se@ 005d8bd0     ldecod.obj
 0003:00012c60       ??_C@_0HH@OABPIEGL@?5?9?9?9?9?9?9?9?9?9?9?9?9?9?9?9?9?9?9?9?9?9?9?9?9?9?9?9?9?9?9?9@ 005d8c60     ldecod.obj
 0003:00012cf0       ??_C@_0FO@MJGNJALO@?$HM?5?5Decoder?5statistics?4?5This?5file@ 005d8cf0     ldecod.obj
 0003:00012d60       ??_C@_0HG@EFNDFADM@?5?9?9?9?9?9?9?9?9?9?9?9?9?9?9?9?9?9?9?9?9?9?9?9?9?9?9?9?9?9?9?9@ 005d8d60     ldecod.obj
 0003:00012df0       ??_C@_0CB@OJFOPDMK@Error?5open?5file?5?$CFs?5for?5appending@ 005d8df0     ldecod.obj
 0003:00012e18       ??_C@_01MCMALHOG@a?$AA@    005d8e18     ldecod.obj
 0003:00012e1c       ??_C@_0CP@INMKGLHL@?5Output?5status?5file?5?5?5?5?5?5?5?5?5?5?5?5?5@ 005d8e1c     ldecod.obj
 0003:00012e54       ??_C@_07LPOPFGBC@log?4dec?$AA@ 005d8e54     ldecod.obj
 0003:00012e60       ??_C@_0DO@LHBONEEF@?5Total?5decoding?5time?5?3?5?$CF?43f?5sec?5@ 005d8e60     ldecod.obj
 0003:00012eb0       ??_C@_0EN@DNDPMKFN@?6?9?9?9?9?9?9?9?9?9?9?9?9?9?9?9?9?9?9?9?9?9?9?9?5Decodin@ 005d8eb0     ldecod.obj
 0003:00012f0c       ??_C@_0BN@DAHAHDAF@?5Exit?5JM?5?$CFs?5decoder?0?5ver?5?$CFs?5?$AA@ 005d8f0c     ldecod.obj
 0003:00012f30       ??_C@_0L@OBGBAKNB@18?5?$CIFRExt?$CJ?$AA@ 005d8f30     ldecod.obj
 0003:00012f40       ??_C@_0DN@JENBILEN@?5Total?5decoding?5time?5?3?5?$CF?43f?5sec?5@ 005d8f40     ldecod.obj
 0003:00012f90       __real@3f50624dd2f1a9fc    005d8f90     ldecod.obj
 0003:00012fa0       __real@408f400000000000    005d8fa0     ldecod.obj
 0003:00012fac       ??_C@_0BO@IMCDHOFA@?5SNR?5V?$CIdB?$CJ?5?5?5?5?5?5?5?5?5?5?5?3?5?$CF5?42f?6?$AA@ 005d8fac     ldecod.obj
 0003:00012fd0       ??_C@_0BO@LJMOMIAD@?5SNR?5U?$CIdB?$CJ?5?5?5?5?5?5?5?5?5?5?5?3?5?$CF5?42f?6?$AA@ 005d8fd0     ldecod.obj
 0003:00012ff4       ??_C@_0BO@GOHIBBEP@?5SNR?5Y?$CIdB?$CJ?5?5?5?5?5?5?5?5?5?5?5?3?5?$CF5?42f?6?$AA@ 005d8ff4     ldecod.obj
 0003:00013018       ??_C@_0EM@ODCAHPLD@?9?9?9?9?9?9?9?9?9?9?9?9?9?9?9?9?9?9?9?9?5Average?5SNR@ 005d9018     ldecod.obj
 0003:00013074       ??_C@_0BC@CJFBEDBH@?$CFs_ViewId?$CF04d?4yuv?$AA@ 005d9074     ldecod.obj
 0003:0001308c       ??_C@_03JODACOMD@nul?$AA@  005d908c     ldecod.obj
 0003:000137d8       ??_C@_1EE@PNBAIKCA@?$AAM?$AAb?$AAQ?$AA?9?$AA?$DO?$AAl?$AAu?$AAm?$AAa?$AA_?$AAt?$AAr?$AAa?$AAn?$AAs?$AAf?$AAo?$AAr?$AAm?$AA_?$AAs?$AAi?$AAz?$AAe?$AA_?$AA8?$AAx?$AA8?$AA_?$AAf?$AAl?$AAa@ 005d97d8     loop_filter_mbaff.obj
 0003:00013830       ??_C@_1GA@FKNNIOHM@?$AAe?$AA?3?$AA?2?$AAj?$AAm?$AA1?$AA8?$AA?4?$AA1?$AA?$CL?$AAy?$AAu?$AA1?$AA?2?$AAj?$AAm?$AA?2?$AAl?$AAd?$AAe?$AAc?$AAo?$AAd?$AA?2?$AAs?$AAr?$AAc?$AA?2?$AAl?$AAo?$AAo?$AAp@ 005d9830     loop_filter_mbaff.obj
 0003:000141f8       ??_C@_1FC@LEFKEBL@?$AAe?$AA?3?$AA?2?$AAj?$AAm?$AA1?$AA8?$AA?4?$AA1?$AA?$CL?$AAy?$AAu?$AA1?$AA?2?$AAj?$AAm?$AA?2?$AAl?$AAd?$AAe?$AAc?$AAo?$AAd?$AA?2?$AAs?$AAr?$AAc?$AA?2?$AAl?$AAo?$AAo?$AAp@ 005da1f8     loopFilter.obj
 0003:0001589c       ??_C@_0CC@JIMBNHHL@mb_qp_delta?5is?5out?5of?5range?5?$CI?$CFd?$CJ@ 005db89c     macroblock.obj
 0003:000158c8       ??_C@_1HM@BKOPFLGK@?$AAc?$AAu?$AAr?$AAr?$AAS?$AAl?$AAi?$AAc?$AAe?$AA?9?$AA?$DO?$AAn?$AAa?$AAl?$AA_?$AAs?$AAt?$AAa?$AAr?$AAt?$AAc?$AAo?$AAd?$AAe?$AA_?$AAf?$AAo?$AAl?$AAl?$AAo?$AAw?$AAs@ 005db8c8     macroblock.obj
 0003:00015960       ??_C@_1FC@BAPMIPAL@?$AAe?$AA?3?$AA?2?$AAj?$AAm?$AA1?$AA8?$AA?4?$AA1?$AA?$CL?$AAy?$AAu?$AA1?$AA?2?$AAj?$AAm?$AA?2?$AAl?$AAd?$AAe?$AAc?$AAo?$AAd?$AA?2?$AAs?$AAr?$AAc?$AA?2?$AAm?$AAa?$AAc?$AAr@ 005db960     macroblock.obj
 0003:000159c4       ??_C@_0CB@OHKMBDDD@Unsupported?5entropy?5coding?5mode?6@ 005db9c4     macroblock.obj
 0003:000159ec       ??_C@_0BI@JHJKJNFK@Unsupported?5slice?5type?6?$AA@ 005db9ec     macroblock.obj
 0003:00017250       ??_C@_0ED@CNDBJNMB@temporal?5direct?5error?3?5colocated@ 005dd250     mb_prediction.obj
 0003:000172a0       ??_C@_1BI@HCOFINIH@?$AAp?$AAr?$AAe?$AAd?$AA_?$AAd?$AAi?$AAr?$AA?$DM?$AA?$DN?$AA2?$AA?$AA@ 005dd2a0     mb_prediction.obj
 0003:000172c0       ??_C@_1FK@MFEBBIP@?$AAp?$AA_?$AAV?$AAi?$AAd?$AA?9?$AA?$DO?$AAa?$AAc?$AAt?$AAi?$AAv?$AAe?$AA_?$AAs?$AAp?$AAs?$AA?9?$AA?$DO?$AAd?$AAi?$AAr?$AAe?$AAc?$AAt?$AA_?$AA8?$AAx?$AA8?$AA_?$AAi?$AAn@ 005dd2c0     mb_prediction.obj
 0003:00017330       ??_C@_1FI@PCBKIJLB@?$AAe?$AA?3?$AA?2?$AAj?$AAm?$AA1?$AA8?$AA?4?$AA1?$AA?$CL?$AAy?$AAu?$AA1?$AA?2?$AAj?$AAm?$AA?2?$AAl?$AAd?$AAe?$AAc?$AAo?$AAd?$AA?2?$AAs?$AAr?$AAc?$AA?2?$AAm?$AAb?$AA_?$AAp@ 005dd330     mb_prediction.obj
 0003:0001897c       ??_C@_0CB@MAKAMPDI@illegal?5chroma?5intra?5pred?5mode?$CB?6@ 005de97c     mb_read.obj
 0003:000189a4       ??_C@_0CB@IDAOBOKE@Partition?5Mode?5is?5not?5supported?6@ 005de9a4     mb_read.obj
 0003:00018c70       ??_C@_0FP@NLHBDIFC@Warning?3?5max_dec_frame_buffering@ 005dec70     mbuffer.obj
 0003:00018ce4       ??_C@_0CP@DNMLOFK@max_dec_frame_buffering?5larger?5t@ 005dece4     mbuffer.obj
 0003:00018d1c       ??_C@_0BA@NGEPANNA@undefined?5level?$AA@ 005ded1c     mbuffer.obj
 0003:00018d30       ??_C@_0DK@LJHPCLBI@Max?4?5number?5of?5reference?5frames?5@ 005ded30     mbuffer.obj
 0003:00018d78       ??_C@_0BK@DGFABNKJ@init_dpb?3?5p_Dpb?9?$DOfs_ilref?$AA@ 005ded78     mbuffer.obj
 0003:00018d98       ??_C@_0BK@DGANFAFJ@init_dpb?3?5p_Dpb?9?$DOfs_ltref?$AA@ 005ded98     mbuffer.obj
 0003:00018db8       ??_C@_0BI@HPHDDDAH@init_dpb?3?5p_Dpb?9?$DOfs_ref?$AA@ 005dedb8     mbuffer.obj
 0003:00018dd4       ??_C@_0BE@JMGIIONO@init_dpb?3?5p_Dpb?9?$DOfs?$AA@ 005dedd4     mbuffer.obj
 0003:00018df0       ??_C@_0GM@LEKAMPNN@DPB?5size?5at?5specified?5level?5is?5s@ 005dedf0     mbuffer.obj
 0003:00018e74       ??_C@_0BN@MCABELFJ@re_init_dpb?3?5p_Dpb?9?$DOfs_ltref?$AA@ 005dee74     mbuffer.obj
 0003:00018e98       ??_C@_0BL@NMAJPPKP@re_init_dpb?3?5p_Dpb?9?$DOfs_ref?$AA@ 005dee98     mbuffer.obj
 0003:00018eb8       ??_C@_0BH@PAJOOHON@re_init_dpb?3?5p_Dpb?9?$DOfs?$AA@ 005deeb8     mbuffer.obj
 0003:00018ed4       ??_C@_0BF@DKEIKMHM@alloc_frame_store?3?5f?$AA@ 005deed4     mbuffer.obj
 0003:00018ef0       ??_C@_0CJ@BCLHDAJE@alloc_storable_picture?3?5motion?9?$DO@ 005deef0     mbuffer.obj
 0003:00018f24       ??_C@_0CE@EAAOIGFH@alloc_storable_picture?3?5s?9?$DOlistX@ 005def24     mbuffer.obj
 0003:00018f50       ??_C@_0BK@PINNMKAL@alloc_storable_picture?3?5s?$AA@ 005def50     mbuffer.obj
 0003:00018f70       ??_C@_0BG@BMNBKADG@init_lists?3?5fs_listlt?$AA@ 005def70     mbuffer.obj
 0003:00018f8c       ??_C@_0BF@PMKHPDCM@init_lists?3?5fs_list0?$AA@ 005def8c     mbuffer.obj
 0003:00018fa8       ??_C@_0BF@OFLMMCGN@init_lists?3?5fs_list1?$AA@ 005defa8     mbuffer.obj
 0003:00018fc4       ??_C@_0CN@FNFEGECC@Invalid?5modification_of_pic_nums@ 005defc4     mbuffer.obj
 0003:00018ffc       ??_C@_0DL@LBBOJABC@duplicate?5frame_num?5in?5short?9ter@ 005deffc     mbuffer.obj
 0003:00019044       ??_C@_0CM@GHOAKFHF@Display?5order?5might?5not?5be?5corre@ 005df044     mbuffer.obj
 0003:00019078       ??_C@_1BA@CCCCEONE@?$AAp?$AA?$CB?$AA?$DN?$AAN?$AAU?$AAL?$AAL?$AA?$AA@ 005df078     mbuffer.obj
 0003:00019090       ??_C@_1EM@IJDALFOM@?$AAe?$AA?3?$AA?2?$AAj?$AAm?$AA1?$AA8?$AA?4?$AA1?$AA?$CL?$AAy?$AAu?$AA1?$AA?2?$AAj?$AAm?$AA?2?$AAl?$AAd?$AAe?$AAc?$AAo?$AAd?$AA?2?$AAs?$AAr?$AAc?$AA?2?$AAm?$AAb?$AAu?$AAf@ 005df090     mbuffer.obj
 0003:000190ec       ??_C@_1BK@IPJPKOPN@?$AA?$CB?$AAp?$AA?9?$AA?$DO?$AAi?$AAd?$AAr?$AA_?$AAf?$AAl?$AAa?$AAg?$AA?$AA@ 005df0ec     mbuffer.obj
 0003:0001910c       ??_C@_0DG@NJLGAPEH@invalid?5memory_management_contro@ 005df10c     mbuffer.obj
 0003:00019150       ??_C@_0EF@MCKIPADK@memory_management_control_operat@ 005df150     mbuffer.obj
 0003:000191a8       ??_C@_1EG@BIDEIPJL@?$AAp?$AA?9?$AA?$DO?$AAa?$AAd?$AAa?$AAp?$AAt?$AAi?$AAv?$AAe?$AA_?$AAr?$AAe?$AAf?$AA_?$AAp?$AAi?$AAc?$AA_?$AAb?$AAu?$AAf?$AAf?$AAe?$AAr?$AAi?$AAn?$AAg?$AA_?$AAf?$AAl@ 005df1a8     mbuffer.obj
 0003:000191fc       ??_C@_1BC@GJPNAKOL@?$AAf?$AAs?$AA?$CB?$AA?$DN?$AAN?$AAU?$AAL?$AAL?$AA?$AA@ 005df1fc     mbuffer.obj
 0003:00019214       ??_C@_0BJ@PGDGHKJD@invalid?5frame?5store?5type?$AA@ 005df214     mbuffer.obj
 0003:00019234       ??_C@_0CG@JEBBDJBC@output?5POC?5must?5be?5in?5ascending?5@ 005df234     mbuffer.obj
 0003:00019264       ??_C@_0CA@IBPPBMFL@Cannot?5output?5frame?0?5DPB?5empty?4?$AA@ 005df264     mbuffer.obj
 0003:00019290       ??_C@_1FC@KLNHPALJ@?$AAp?$AA_?$AAD?$AAp?$AAb?$AA?9?$AA?$DO?$AAf?$AAs?$AA?$FL?$AAi?$AA?$FN?$AA?9?$AA?$DO?$AAv?$AAi?$AAe?$AAw?$AA_?$AAi?$AAd?$AA?5?$AA?$DN?$AA?$DN?$AA?5?$AAp?$AA_?$AAD?$AAp?$AAb?$AA?9?$AA?$DO@ 005df290     mbuffer.obj
 0003:000192f4       ??_C@_1DO@BINBIKDM@?$AA?$CB?$AA?$CC?$AAD?$AAP?$AAB?$AA?5?$AAu?$AAs?$AAe?$AAd?$AA_?$AAs?$AAi?$AAz?$AAe?$AA?5?$AAi?$AAs?$AA?5?$AAn?$AAo?$AAt?$AA?5?$AAe?$AAq?$AAu?$AAa?$AAl?$AA?$CB?$AA?$CC?$AA?$AA@ 005df2f4     mbuffer.obj
 0003:00019340       ??_C@_0BM@BDHBGGCN@DPB?5used_size?5is?5not?5equal?$CB?$AA@ 005df340     mbuffer.obj
 0003:00019368       ??_C@_0EC@IOIPDDLL@alloc_ref_pic_list_reordering_bu@ 005df368     mbuffer.obj
 0003:000193b8       ??_C@_0DL@HOLCFGOC@alloc_ref_pic_list_reordering_bu@ 005df3b8     mbuffer.obj
 0003:00019400       ??_C@_0EB@IJEKNAJ@alloc_ref_pic_list_reordering_bu@ 005df400     mbuffer.obj
 0003:00019450       ??_C@_0EG@JFLIMIHD@alloc_ref_pic_list_reordering_bu@ 005df450     mbuffer.obj
 0003:000194a8       ??_C@_0EC@JHJEACPK@alloc_ref_pic_list_reordering_bu@ 005df4a8     mbuffer.obj
 0003:000194f8       ??_C@_0DL@GHKJGHKD@alloc_ref_pic_list_reordering_bu@ 005df4f8     mbuffer.obj
 0003:00019540       ??_C@_0EB@BBIPJMEI@alloc_ref_pic_list_reordering_bu@ 005df540     mbuffer.obj
 0003:00019590       ??_C@_0EG@IMKDPJDC@alloc_ref_pic_list_reordering_bu@ 005df590     mbuffer.obj
 0003:000195e4       ??_C@_0DB@DCJNMAHH@A?5gap?5in?5frame?5number?5is?5found?0?5@ 005df5e4     mbuffer.obj
 0003:00019620       ??_C@_0CG@HOCMHHPE@Error?3?5iVOIdx?3?5?$CFd?5is?5not?5less?5th@ 005df620     mbuffer.obj
 0003:00019650       ??_C@_1DC@MCGJEBBP@?$AAf?$AAs?$AA?9?$AA?$DO?$AAb?$AAo?$AAt?$AAt?$AAo?$AAm?$AA_?$AAf?$AAi?$AAe?$AAl?$AAd?$AA?5?$AA?$DN?$AA?$DN?$AA?5?$AAN?$AAU?$AAL?$AAL?$AA?$AA@ 005df650     mbuffer.obj
 0003:0001968c       ??_C@_1CM@ENIHIBOB@?$AAf?$AAs?$AA?9?$AA?$DO?$AAt?$AAo?$AAp?$AA_?$AAf?$AAi?$AAe?$AAl?$AAd?$AA?5?$AA?$DN?$AA?$DN?$AA?5?$AAN?$AAU?$AAL?$AAL?$AA?$AA@ 005df68c     mbuffer.obj
 0003:000196c0       ??_C@_1CE@EINKBPGE@?$AAf?$AAs?$AA?9?$AA?$DO?$AAf?$AAr?$AAa?$AAm?$AAe?$AA?5?$AA?$DN?$AA?$DN?$AA?5?$AAN?$AAU?$AAL?$AAL?$AA?$AA@ 005df6c0     mbuffer.obj
 0003:000196f0       ??_C@_1EO@FIKAKCFC@?$AAf?$AAs?$AA?9?$AA?$DO?$AAb?$AAo?$AAt?$AAt?$AAo?$AAm?$AA_?$AAf?$AAi?$AAe?$AAl?$AAd?$AA?9?$AA?$DO?$AAb?$AAo?$AAt?$AAt?$AAo?$AAm?$AA_?$AAp?$AAo?$AAc?$AA?5?$AA?$CB?$AA?$DN?$AA?5@ 005df6f0     mbuffer.obj
 0003:00019750       ??_C@_1EC@FPGACODB@?$AAf?$AAs?$AA?9?$AA?$DO?$AAt?$AAo?$AAp?$AA_?$AAf?$AAi?$AAe?$AAl?$AAd?$AA?9?$AA?$DO?$AAt?$AAo?$AAp?$AA_?$AAp?$AAo?$AAc?$AA?5?$AA?$CB?$AA?$DN?$AA?5?$AAp?$AA?9?$AA?$DO?$AAp?$AAo?$AAc@ 005df750     mbuffer.obj
 0003:000197a0       ??_C@_1DO@EGBJKDIF@?$AAf?$AAs?$AA?9?$AA?$DO?$AAf?$AAr?$AAa?$AAm?$AAe?$AA?9?$AA?$DO?$AAf?$AAr?$AAa?$AAm?$AAe?$AA_?$AAp?$AAo?$AAc?$AA?5?$AA?$CB?$AA?$DN?$AA?5?$AAp?$AA?9?$AA?$DO?$AAp?$AAo?$AAc?$AA?$AA@ 005df7a0     mbuffer.obj
 0003:00019a8c       ??_C@_0CG@LCKCADBB@field?5for?5long?5term?5marking?5not?5@ 005dfa8c     mbuffer_common.obj
 0003:00019abc       ??_C@_0DK@PEABNDEI@Warning?3?5reference?5field?5for?5lon@ 005dfabc     mbuffer_common.obj
 0003:00019b08       ??_C@_0ED@EGEKAMMG@Warning?3?5assigning?5long_term_fra@ 005dfb08     mbuffer_common.obj
 0003:00019b58       ??_C@_0DK@IPIHEPDG@Warning?3?5reference?5frame?5for?5lon@ 005dfb58     mbuffer_common.obj
 0003:00019ba0       ??_C@_0CK@NBDODBPL@Cannot?5determine?5smallest?5POC?0?5D@ 005dfba0     mbuffer_common.obj
 0003:00019bd4       ??_C@_1CC@FCJFMILM@?$AAs?$AAt?$AAr?$AAu?$AAc?$AAt?$AAu?$AAr?$AAe?$AA?$CB?$AA?$DN?$AAF?$AAR?$AAA?$AAM?$AAE?$AA?$AA@ 005dfbd4     mbuffer_common.obj
 0003:00019c00       ??_C@_1FM@KMBNFJMD@?$AAe?$AA?3?$AA?2?$AAj?$AAm?$AA1?$AA8?$AA?4?$AA1?$AA?$CL?$AAy?$AAu?$AA1?$AA?2?$AAj?$AAm?$AA?2?$AAl?$AAc?$AAo?$AAm?$AAm?$AAo?$AAn?$AA?2?$AAs?$AAr?$AAc?$AA?2?$AAm?$AAb?$AAu@ 005dfc00     mbuffer_common.obj
 0003:00019f0c       ??_C@_0BO@LMEKMIAN@init_lists?3?5fs_listinterview0?$AA@ 005dff0c     mbuffer_mvc.obj
 0003:00019f30       ??_C@_0BO@KFFBPJEM@init_lists?3?5fs_listinterview1?$AA@ 005dff30     mbuffer_mvc.obj
 0003:00019f58       ??_C@_0GP@CDNJHKOB@RefPicList0?$FL?5num_ref_idx_l0_acti@ 005dff58     mbuffer_mvc.obj
 0003:0001a6a0       ??_C@_1FA@LHBBENBG@?$AAe?$AA?3?$AA?2?$AAj?$AAm?$AA1?$AA8?$AA?4?$AA1?$AA?$CL?$AAy?$AAu?$AA1?$AA?2?$AAj?$AAm?$AA?2?$AAl?$AAd?$AAe?$AAc?$AAo?$AAd?$AA?2?$AAs?$AAr?$AAc?$AA?2?$AAm?$AAc?$AA_?$AAd@ 005e06a0     mc_direct.obj
 0003:0001adf0       ??_C@_1FI@MOHKGKLJ@?$AAe?$AA?3?$AA?2?$AAj?$AAm?$AA1?$AA8?$AA?4?$AA1?$AA?$CL?$AAy?$AAu?$AA1?$AA?2?$AAj?$AAm?$AA?2?$AAl?$AAd?$AAe?$AAc?$AAo?$AAd?$AA?2?$AAs?$AAr?$AAc?$AA?2?$AAm?$AAc?$AA_?$AAp@ 005e0df0     mc_prediction.obj
 0003:0001ae60       ??_C@_1JC@NMFBPIHH@?$AAv?$AAe?$AAr?$AAt?$AA_?$AAb?$AAl?$AAo?$AAc?$AAk?$AA_?$AAs?$AAi?$AAz?$AAe?$AA?5?$AA?$DM?$AA?$DN?$AAp?$AA_?$AAV?$AAi?$AAd?$AA?9?$AA?$DO?$AAi?$AAC?$AAh?$AAr?$AAo?$AAm?$AAa@ 005e0e60     mc_prediction.obj
 0003:0001af10       ??_C@_0GC@FJKPELBD@WARNING?$CB?5Vertical?5motion?5vector?5@ 005e0f10     mc_prediction.obj
 0003:0001af88       ??_C@_0GJ@GHJKJOBI@WARNING?$CB?5Horizontal?5motion?5vecto@ 005e0f88     mc_prediction.obj
 0003:0001b2a4       ??_C@_0CB@KHNOLJDP@init_top_bot_planes?3?5imgBotField@ 005e12a4     memalloc.obj
 0003:0001b2cc       ??_C@_0CB@IMELKGNH@init_top_bot_planes?3?5imgTopField@ 005e12cc     memalloc.obj
 0003:0001b2f4       ??_C@_0BA@EJMMBNFL@malloc?5failed?4?6?$AA@ 005e12f4     memalloc.obj
 0003:0001b308       ??_C@_0BH@LCCNMJHJ@get_mem2Ddist?3?5array2D?$AA@ 005e1308     memalloc.obj
 0003:0001b324       ??_C@_0BF@IDEIJFJI@get_mem2Dlm?3?5array2D?$AA@ 005e1324     memalloc.obj
 0003:0001b340       ??_C@_0CN@HJFILFIL@free_mem2Ddist?3?5trying?5to?5free?5u@ 005e1340     memalloc.obj
 0003:0001b378       ??_C@_0CL@DGDMAJFC@free_mem2Dlm?3?5trying?5to?5free?5unu@ 005e1378     memalloc.obj
 0003:0001b3ac       ??_C@_0BF@HNIPFADL@get_mem2Dmp?3?5array2D?$AA@ 005e13ac     memalloc.obj
 0003:0001b3c8       ??_C@_0BF@OBECNLHK@get_mem3Dmp?3?5array3D?$AA@ 005e13c8     memalloc.obj
 0003:0001b3e4       ??_C@_0CL@HONDNMJM@free_mem2Dmp?3?5trying?5to?5free?5unu@ 005e13e4     memalloc.obj
 0003:0001b418       ??_C@_0CL@LBENMLFE@free_mem3Dmp?3?5trying?5to?5free?5unu@ 005e1418     memalloc.obj
 0003:0001b44c       ??_C@_0BI@PCHMJBDF@get_mem2Dquant?3?5array2D?$AA@ 005e144c     memalloc.obj
 0003:0001b468       ??_C@_0BI@HEBIDAEB@get_mem3Dquant?3?5array3D?$AA@ 005e1468     memalloc.obj
 0003:0001b484       ??_C@_0BI@FBMFFKIP@get_mem4Dquant?3?5array4D?$AA@ 005e1484     memalloc.obj
 0003:0001b4a0       ??_C@_0BI@NHKBPLPL@get_mem5Dquant?3?5array5D?$AA@ 005e14a0     memalloc.obj
 0003:0001b4bc       ??_C@_0BF@JLKAFFKG@get_mem2Dwp?3?5array2D?$AA@ 005e14bc     memalloc.obj
 0003:0001b4d8       ??_C@_0CL@KGBIHPBB@free_mem2Dwp?3?5trying?5to?5free?5unu@ 005e14d8     memalloc.obj
 0003:0001b50c       ??_C@_0CO@MLPDNAPB@free_mem2Dquant?3?5trying?5to?5free?5@ 005e150c     memalloc.obj
 0003:0001b544       ??_C@_0CO@EGHLCNBD@free_mem3Dquant?3?5trying?5to?5free?5@ 005e1544     memalloc.obj
 0003:0001b57c       ??_C@_0CO@FACDNADP@free_mem4Dquant?3?5trying?5to?5free?5@ 005e157c     memalloc.obj
 0003:0001b5b4       ??_C@_0CO@NNKLCNNN@free_mem5Dquant?3?5trying?5to?5free?5@ 005e15b4     memalloc.obj
 0003:0001b5ec       ??_C@_0BH@BPNMNHKO@get_mem2D_spp?3?5array2D?$AA@ 005e15ec     memalloc.obj
 0003:0001b608       ??_C@_0BH@LAHGCMAI@get_mem3D_spp?3?5array3D?$AA@ 005e1608     memalloc.obj
 0003:0001b624       ??_C@_0BF@JFDKJKHI@get_mem2Dmv?3?5array2D?$AA@ 005e1624     memalloc.obj
 0003:0001b640       ??_C@_0BF@JPHBBDJ@get_mem3Dmv?3?5array3D?$AA@ 005e1640     memalloc.obj
 0003:0001b65c       ??_C@_0BG@DGGFFIBP@get_mem4Dpel?3?5array4D?$AA@ 005e165c     memalloc.obj
 0003:0001b678       ??_C@_0BF@PFLICGDN@get_mem5Dmv?3?5array5D?$AA@ 005e1678     memalloc.obj
 0003:0001b694       ??_C@_0BF@ILJPLNLP@get_mem6Dmv?3?5array6D?$AA@ 005e1694     memalloc.obj
 0003:0001b6b0       ??_C@_0BF@BHFCDGPO@get_mem7Dmv?3?5array7D?$AA@ 005e16b0     memalloc.obj
 0003:0001b6cc       ??_C@_0CN@FBIMHJEL@free_mem2D_spp?3?5trying?5to?5free?5u@ 005e16cc     memalloc.obj
 0003:0001b704       ??_C@_0CN@NBHMGOFE@free_mem3D_spp?3?5trying?5to?5free?5u@ 005e1704     memalloc.obj
 0003:0001b73c       ??_C@_0CL@DHJMMLKD@free_mem2Dmv?3?5trying?5to?5free?5unu@ 005e173c     memalloc.obj
 0003:0001b770       ??_C@_0CL@PIACNMGL@free_mem3Dmv?3?5trying?5to?5free?5unu@ 005e1770     memalloc.obj
 0003:0001b7a4       ??_C@_0CL@PLELLBNA@free_mem4Dmv?3?5trying?5to?5free?5unu@ 005e17a4     memalloc.obj
 0003:0001b7d8       ??_C@_0CL@DENFKGBI@free_mem5Dmv?3?5trying?5to?5free?5unu@ 005e17d8     memalloc.obj
 0003:0001b80c       ??_C@_0CL@LPAGJIAB@free_mem6Dmv?3?5trying?5to?5free?5unu@ 005e180c     memalloc.obj
 0003:0001b840       ??_C@_0CL@HAJIIPMJ@free_mem7Dmv?3?5trying?5to?5free?5unu@ 005e1840     memalloc.obj
 0003:0001b874       ??_C@_0BG@DCJCEHP@get_mem1Dpel?3?5array1D?$AA@ 005e1874     memalloc.obj
 0003:0001b890       ??_C@_0BG@BABCPAFP@get_mem2Dpel?3?5array2D?$AA@ 005e1890     memalloc.obj
 0003:0001b8ac       ??_C@_0BK@HIDDDFHN@get_mem2Dpel_pad?3?5array2D?$AA@ 005e18ac     memalloc.obj
 0003:0001b8cc       ??_C@_0BG@KICLEBIA@get_mem3Dpel?3?5array3D?$AA@ 005e18cc     memalloc.obj
 0003:0001b8e8       ??_C@_0BK@KOBDNPBC@get_mem3Dpel_pad?3?5array3D?$AA@ 005e18e8     memalloc.obj
 0003:0001b908       ??_C@_0BK@OBGCECNM@get_mem4Dpel_pad?3?5array4D?$AA@ 005e1908     memalloc.obj
 0003:0001b928       ??_C@_0BG@IOFMOJMA@get_mem5Dpel?3?5array5D?$AA@ 005e1928     memalloc.obj
 0003:0001b944       ??_C@_0BK@DHECKILD@get_mem5Dpel_pad?3?5array5D?$AA@ 005e1944     memalloc.obj
 0003:0001b964       ??_C@_0CM@HPBKOMNN@free_mem1Dpel?3?5trying?5to?5free?5un@ 005e1964     memalloc.obj
 0003:0001b998       ??_C@_0CM@BLPKJHCD@free_mem2Dpel?3?5trying?5to?5free?5un@ 005e1998     memalloc.obj
 0003:0001b9cc       ??_C@_0DA@ENOLGHMA@free_mem2Dpel_pad?3?5trying?5to?5fre@ 005e19cc     memalloc.obj
 0003:0001ba08       ??_C@_0CM@IOIKEDLG@free_mem3Dpel?3?5trying?5to?5free?5un@ 005e1a08     memalloc.obj
 0003:0001ba3c       ??_C@_0DA@OCKPPFIH@free_mem3Dpel_pad?3?5trying?5to?5fre@ 005e1a3c     memalloc.obj
 0003:0001ba78       ??_C@_0CM@NCDKGANP@free_mem4Dpel?3?5trying?5to?5free?5un@ 005e1a78     memalloc.obj
 0003:0001baac       ??_C@_0DA@BIJCAGNA@free_mem4Dpel_pad?3?5trying?5to?5fre@ 005e1aac     memalloc.obj
 0003:0001bae8       ??_C@_0CM@EHEKLEEK@free_mem5Dpel?3?5trying?5to?5free?5un@ 005e1ae8     memalloc.obj
 0003:0001bb1c       ??_C@_0DA@LHNGJEJH@free_mem5Dpel_pad?3?5trying?5to?5fre@ 005e1b1c     memalloc.obj
 0003:0001bb58       ??_C@_0BD@OKIKDBGE@get_mem2D?3?5array2D?$AA@ 005e1b58     memalloc.obj
 0003:0001bb70       ??_C@_0BG@EGCHNNON@get_mem2Dint?3?5array2D?$AA@ 005e1b70     memalloc.obj
 0003:0001bb8c       ??_C@_0BK@NPOEFAKI@get_mem2Dint_pad?3?5array2D?$AA@ 005e1b8c     memalloc.obj
 0003:0001bbac       ??_C@_0BI@BFAKOFKI@get_mem2Dint64?3?5array2D?$AA@ 005e1bac     memalloc.obj
 0003:0001bbc8       ??_C@_0BD@HAONBHDM@get_mem3D?3?5array3D?$AA@ 005e1bc8     memalloc.obj
 0003:0001bbe0       ??_C@_0BD@BDKOIDG@get_mem4D?3?5array4D?$AA@ 005e1be0     memalloc.obj
 0003:0001bbf8       ??_C@_0BG@POBOGMDC@get_mem3Dint?3?5array3D?$AA@ 005e1bf8     memalloc.obj
 0003:0001bc14       ??_C@_0BI@JDGOEENM@get_mem3Dint64?3?5array3D?$AA@ 005e1c14     memalloc.obj
 0003:0001bc30       ??_C@_0BK@PAPCKBFJ@get_mem2Ddistblk?3?5array2D?$AA@ 005e1c30     memalloc.obj
 0003:0001bc50       ??_C@_0BK@CGNCELDG@get_mem3Ddistblk?3?5array3D?$AA@ 005e1c50     memalloc.obj
 0003:0001bc70       ??_C@_0BK@GJKDNGPI@get_mem4Ddistblk?3?5array4D?$AA@ 005e1c70     memalloc.obj
 0003:0001bc90       ??_C@_0BG@GAFAHFKN@get_mem4Dint?3?5array4D?$AA@ 005e1c90     memalloc.obj
 0003:0001bcac       ??_C@_0BI@LGLDCOBC@get_mem4Dint64?3?5array4D?$AA@ 005e1cac     memalloc.obj
 0003:0001bcc8       ??_C@_0BG@NIGJMEHC@get_mem5Dint?3?5array5D?$AA@ 005e1cc8     memalloc.obj
 0003:0001bce4       ??_C@_0CJ@KLJDKCLA@free_mem2D?3?5trying?5to?5free?5unuse@ 005e1ce4     memalloc.obj
 0003:0001bd18       ??_C@_0CM@CMBCDKDG@free_mem2Dint?3?5trying?5to?5free?5un@ 005e1d18     memalloc.obj
 0003:0001bd4c       ??_C@_0DA@NFJGNCLF@free_mem2Dint_pad?3?5trying?5to?5fre@ 005e1d4c     memalloc.obj
 0003:0001bd88       ??_C@_0CO@NGMGOPBM@free_mem2Dint64?3?5trying?5to?5free?5@ 005e1d88     memalloc.obj
 0003:0001bdc0       ??_C@_0CJ@JNGBDCED@free_mem3D?3?5trying?5to?5free?5unuse@ 005e1dc0     memalloc.obj
 0003:0001bdf4       ??_C@_0CJ@BNLMMAJK@free_mem4D?3?5trying?5to?5free?5unuse@ 005e1df4     memalloc.obj
 0003:0001be28       ??_C@_0CM@LJGCOOKD@free_mem3Dint?3?5trying?5to?5free?5un@ 005e1e28     memalloc.obj
 0003:0001be5c       ??_C@_0CO@FLEOBCPO@free_mem3Dint64?3?5trying?5to?5free?5@ 005e1e5c     memalloc.obj
 0003:0001be94       ??_C@_0DA@BLIFCIBJ@free_mem3Ddistblk?3?5trying?5to?5fre@ 005e1e94     memalloc.obj
 0003:0001bed0       ??_C@_0CM@OFNCMNMK@free_mem4Dint?3?5trying?5to?5free?5un@ 005e1ed0     memalloc.obj
 0003:0001bf04       ??_C@_0CO@ENBGOPNC@free_mem4Dint64?3?5trying?5to?5free?5@ 005e1f04     memalloc.obj
 0003:0001bf3c       ??_C@_0DA@OBLINLEO@free_mem4Ddistblk?3?5trying?5to?5fre@ 005e1f3c     memalloc.obj
 0003:0001bf78       ??_C@_0CM@HAKCBJFP@free_mem5Dint?3?5trying?5to?5free?5un@ 005e1f78     memalloc.obj
 0003:0001bfac       ??_C@_0BO@CNHOCHGK@Could?5not?5allocate?5memory?3?5?$CFs?$AA@ 005e1fac     memalloc.obj
 0003:0001bfd0       ??_C@_0BJ@KPAODJLH@get_mem2Duint16?3?5array2D?$AA@ 005e1fd0     memalloc.obj
 0003:0001bff0       ??_C@_0BJ@EBJOOFGB@get_mem3Duint16?3?5array3D?$AA@ 005e1ff0     memalloc.obj
 0003:0001c010       ??_C@_0BJ@KFPPPJIA@get_mem4Duint16?3?5array4D?$AA@ 005e2010     memalloc.obj
 0003:0001c030       ??_C@_0BI@HIEGMAFO@get_mem2Dshort?3?5array2D?$AA@ 005e2030     memalloc.obj
 0003:0001c04c       ??_C@_0BI@POCCGBCK@get_mem3Dshort?3?5array3D?$AA@ 005e204c     memalloc.obj
 0003:0001c068       ??_C@_0BI@NLPPALOE@get_mem4Dshort?3?5array4D?$AA@ 005e2068     memalloc.obj
 0003:0001c084       ??_C@_0BI@FNJLKKJA@get_mem5Dshort?3?5array5D?$AA@ 005e2084     memalloc.obj
 0003:0001c0a0       ??_C@_0BI@MEHEPEN@get_mem6Dshort?3?5array6D?$AA@ 005e20a0     memalloc.obj
 0003:0001c0bc       ??_C@_0BI@IKCDOODJ@get_mem7Dshort?3?5array7D?$AA@ 005e20bc     memalloc.obj
 0003:0001c0d8       ??_C@_0CP@GCMFOBFI@free_mem2Duint16?3?5trying?5to?5free@ 005e20d8     memalloc.obj
 0003:0001c110       ??_C@_0CP@CMEMOKPB@free_mem3Duint16?3?5trying?5to?5free@ 005e2110     memalloc.obj
 0003:0001c148       ??_C@_0CP@BOICNOOP@free_mem4Duint16?3?5trying?5to?5free@ 005e2148     memalloc.obj
 0003:0001c180       ??_C@_0CO@LCFCHGFM@free_mem2Dshort?3?5trying?5to?5free?5@ 005e2180     memalloc.obj
 0003:0001c1b8       ??_C@_0CO@DPNKILLO@free_mem3Dshort?3?5trying?5to?5free?5@ 005e21b8     memalloc.obj
 0003:0001c1f0       ??_C@_0CO@CJICHGJC@free_mem4Dshort?3?5trying?5to?5free?5@ 005e21f0     memalloc.obj
 0003:0001c228       ??_C@_0CO@KEAKILHA@free_mem5Dshort?3?5trying?5to?5free?5@ 005e2228     memalloc.obj
 0003:0001c260       ??_C@_0CO@OJOCILBH@free_mem6Dshort?3?5trying?5to?5free?5@ 005e2260     memalloc.obj
 0003:0001c298       ??_C@_0CO@GEGKHGPF@free_mem7Dshort?3?5trying?5to?5free?5@ 005e2298     memalloc.obj
 0003:0001c2d0       ??_C@_0BJ@LLFLNMAL@get_mem2Ddouble?3?5array2D?$AA@ 005e22d0     memalloc.obj
 0003:0001c2f0       ??_C@_0BK@CBIKINGI@get_mem1Dodouble?3?5array2D?$AA@ 005e22f0     memalloc.obj
 0003:0001c310       ??_C@_0BK@ICNMALMB@get_mem2Dodouble?3?5array2D?$AA@ 005e2310     memalloc.obj
 0003:0001c330       ??_C@_0BK@FEPMOBKO@get_mem3Dodouble?3?5array3D?$AA@ 005e2330     memalloc.obj
 0003:0001c350       ??_C@_0BP@KEFPIGCN@get_offset_mem2Dshort?3?5array2D?$AA@ 005e2350     memalloc.obj
 0003:0001c378       ??_C@_0BH@MAAIOFCA@get_mem3Doint?3?5array3D?$AA@ 005e2378     memalloc.obj
 0003:0001c394       ??_C@_0CP@JBOFPHKK@free_mem2Ddouble?3?5trying?5to?5free@ 005e2394     memalloc.obj
 0003:0001c3cc       ??_C@_0DA@JKIFKDLP@free_mem1Dodouble?3?5trying?5to?5fre@ 005e23cc     memalloc.obj
 0003:0001c408       ??_C@_0DA@LADJBDDH@free_mem2Dodouble?3?5trying?5to?5fre@ 005e2408     memalloc.obj
 0003:0001c444       ??_C@_0DA@BPHNIBHA@free_mem3Dodouble?3?5trying?5to?5fre@ 005e2444     memalloc.obj
 0003:0001c480       ??_C@_0CN@OACIGMNM@free_mem3Doint?3?5trying?5to?5free?5u@ 005e2480     memalloc.obj
 0003:0001c4b8       ??_C@_0CN@GANIHLMD@free_mem2Doint?3?5trying?5to?5free?5u@ 005e24b8     memalloc.obj
 0003:0001c4f0       ??_C@_0DF@MKOHOFDN@free_offset_mem2Dshort?3?5trying?5t@ 005e24f0     memalloc.obj
 0003:0001c530       ??_C@_0BG@NPECGGOB@get_mem2Dolm?3?5array2D?$AA@ 005e2530     memalloc.obj
 0003:0001c54c       ??_C@_0CM@JFGNKCHD@free_mem2Dolm?3?5trying?5to?5free?5un@ 005e254c     memalloc.obj
 0003:0001c580       ??_C@_0DA@LEMBLKFO@free_mem2Ddistblk?3?5trying?5to?5fre@ 005e2580     memalloc.obj
 0003:0001cafc       ??_C@_1CG@LAHGCGDB@?$AAl?$AAa?$AAs?$AAt?$AA_?$AAb?$AAy?$AAt?$AAe?$AA_?$AAp?$AAo?$AAs?$AA?5?$AA?$CB?$AA?$DN?$AA?5?$AA0?$AA?$AA@ 005e2afc     nal.obj
 0003:0001cb30       ??_C@_1EE@JBPMHMHP@?$AAe?$AA?3?$AA?2?$AAj?$AAm?$AA1?$AA8?$AA?4?$AA1?$AA?$CL?$AAy?$AAu?$AA1?$AA?2?$AAj?$AAm?$AA?2?$AAl?$AAd?$AAe?$AAc?$AAo?$AAd?$AA?2?$AAs?$AAr?$AAc?$AA?2?$AAn?$AAa?$AAl?$AA?4@ 005e2b30     nal.obj
 0003:0001cb84       ??_C@_0CJ@BCHCPOGM@?5Panic?3?5All?5zero?5data?5sequence?5i@ 005e2b84     nal.obj
 0003:0001cff4       ??_C@_0CO@GJOJEEGO@Found?5NALU?5with?5forbidden_bit?5se@ 005e2ff4     nalu.obj
 0003:0001d02c       ??_C@_0CO@EKHGLMHA@Invalid?5startcode?5emulation?5prev@ 005e302c     nalu.obj
 0003:0001d064       ??_C@_0DG@GFCGPGOL@Error?5while?5getting?5the?5NALU?5in?5@ 005e3064     nalu.obj
 0003:0001d0a4       ??_C@_03GOLBDMPC@RTP?$AA@  005e30a4     nalu.obj
 0003:0001d0a8       ??_C@_07JDMGKAFO@Annex?5B?$AA@ 005e30a8     nalu.obj
 0003:0001d0b4       ??_C@_1BK@LPFONCHB@?$AAn?$AAa?$AAl?$AAu?$AA?5?$AA?$CB?$AA?$DN?$AA?5?$AAN?$AAU?$AAL?$AAL?$AA?$AA@ 005e30b4     nalu.obj
 0003:0001d0d8       ??_C@_1EG@GDANGHBN@?$AAe?$AA?3?$AA?2?$AAj?$AAm?$AA1?$AA8?$AA?4?$AA1?$AA?$CL?$AAy?$AAu?$AA1?$AA?2?$AAj?$AAm?$AA?2?$AAl?$AAd?$AAe?$AAc?$AAo?$AAd?$AA?2?$AAs?$AAr?$AAc?$AA?2?$AAn?$AAa?$AAl?$AAu@ 005e30d8     nalu.obj
 0003:0001d12c       ??_C@_0CA@CKIIOIFP@Warning?3?5zero_byte?5shall?5exist?6?$AA@ 005e312c     nalu.obj
 0003:0001d154       ??_C@_0CA@BADKDFIN@warning?3?5zero_byte?5shall?5exist?6?$AA@ 005e3154     nalu.obj
 0003:0001d17c       ??_C@_0DH@ICKKJEGO@Nalu?5Header?5MVC?5Extension?3?5reser@ 005e317c     nalu.obj
 0003:0001d1c0       ??_C@_0BB@DCCGJMHD@reserved_one_bit?$AA@ 005e31c0     nalu.obj
 0003:0001d1d4       ??_C@_0BA@NILLKHKG@inter_view_flag?$AA@ 005e31d4     nalu.obj
 0003:0001d1e8       ??_C@_0BA@EHFBJBFL@anchor_pic_flag?$AA@ 005e31e8     nalu.obj
 0003:0001d1fc       ??_C@_0M@GOPAIBCK@temporal_id?$AA@ 005e31fc     nalu.obj
 0003:0001d20c       ??_C@_07CIPOFCHJ@view_id?$AA@ 005e320c     nalu.obj
 0003:0001d218       ??_C@_0M@OJNFCBND@priority_id?$AA@ 005e3218     nalu.obj
 0003:0001d228       ??_C@_0N@DCIAIIKO@non_idr_flag?$AA@ 005e3228     nalu.obj
 0003:0001d4d4       ??_C@_0BC@PABMENLA@AllocNALU?3?5n?9?$DObuf?$AA@ 005e34d4     nalucommon.obj
 0003:0001d4ec       ??_C@_0N@KIKDAKAL@AllocNALU?3?5n?$AA@ 005e34ec     nalucommon.obj
 0003:0001d7c8       ??_C@_0EO@MPHFEGJI@writing?5only?5to?5formats?5of?58?0?516@ 005e37c8     output.obj
 0003:0001d828       ??_C@_0CN@GOCGFACD@write_out_picture?3?5error?5writing@ 005e3828     output.obj
 0003:0001d860       ??_C@_0CN@EBHMEAHF@write_out_picture?3?5error?5writing@ 005e3860     output.obj
 0003:0001d898       ??_C@_0BH@JKJFDLFM@write_out_picture?3?5buf?$AA@ 005e3898     output.obj
 0003:0001d8b4       ??_C@_1BM@GBGPBKEJ@?$AAf?$AAs?$AA?9?$AA?$DO?$AAi?$AAs?$AA_?$AAu?$AAs?$AAe?$AAd?$AA?$DM?$AA3?$AA?$AA@ 005e38b4     output.obj
 0003:0001d8d8       ??_C@_1EK@LNENPENM@?$AAe?$AA?3?$AA?2?$AAj?$AAm?$AA1?$AA8?$AA?4?$AA1?$AA?$CL?$AAy?$AAu?$AA1?$AA?2?$AAj?$AAm?$AA?2?$AAl?$AAd?$AAe?$AAc?$AAo?$AAd?$AA?2?$AAs?$AAr?$AAc?$AA?2?$AAo?$AAu?$AAt?$AAp@ 005e38d8     output.obj
 0003:0001ddf4       ??_C@_0BB@DEMGKGIP@?5?5?5?3?5delta_sl?5?5?5?$AA@ 005e3df4     parset.obj
 0003:0001de08       ??_C@_0CB@HACLOKBL@SPS?3?5vui_parameters_present_flag@ 005e3e08     parset.obj
 0003:0001de30       ??_C@_0BO@BJPFIEN@SPS?3?5frame_crop_bottom_offset?$AA@ 005e3e30     parset.obj
 0003:0001de54       ??_C@_0BL@LEOJJIAB@SPS?3?5frame_crop_top_offset?$AA@ 005e3e54     parset.obj
 0003:0001de74       ??_C@_0BN@IFJBJLL@SPS?3?5frame_crop_right_offset?$AA@ 005e3e74     parset.obj
 0003:0001de98       ??_C@_0BM@COIMIEPD@SPS?3?5frame_crop_left_offset?$AA@ 005e3e98     parset.obj
 0003:0001debc       ??_C@_0BJ@GHNCGBAK@SPS?3?5frame_cropping_flag?$AA@ 005e3ebc     parset.obj
 0003:0001dedc       ??_C@_0BP@ECINLNPG@SPS?3?5direct_8x8_inference_flag?$AA@ 005e3edc     parset.obj
 0003:0001df04       ??_C@_0CC@KHFEFNJO@SPS?3?5mb_adaptive_frame_field_fla@ 005e3f04     parset.obj
 0003:0001df2c       ??_C@_0BJ@MDDIBOHO@SPS?3?5frame_mbs_only_flag?$AA@ 005e3f2c     parset.obj
 0003:0001df4c       ??_C@_0CE@NMGOCEPJ@SPS?3?5pic_height_in_map_units_min@ 005e3f4c     parset.obj
 0003:0001df78       ??_C@_0BN@LCADOBNG@SPS?3?5pic_width_in_mbs_minus1?$AA@ 005e3f78     parset.obj
 0003:0001df9c       ??_C@_0CK@EDBKKNJB@SPS?3?5gaps_in_frame_num_value_all@ 005e3f9c     parset.obj
 0003:0001dfd0       ??_C@_0BE@MLGMEOHJ@SPS?3?5num_ref_frames?$AA@ 005e3fd0     parset.obj
 0003:0001dfe8       ??_C@_0BN@HDHBDOLI@SPS?3?5offset_for_ref_frame?$FLi?$FN?$AA@ 005e3fe8     parset.obj
 0003:0001e00c       ??_C@_0CL@OGLIOFOK@SPS?3?5num_ref_frames_in_pic_order@ 005e400c     parset.obj
 0003:0001e040       ??_C@_0CE@GCHBMKHB@SPS?3?5offset_for_top_to_bottom_fi@ 005e4040     parset.obj
 0003:0001e06c       ??_C@_0BM@GGDDJGNF@SPS?3?5offset_for_non_ref_pic?$AA@ 005e406c     parset.obj
 0003:0001e090       ??_C@_0CG@PHLMHJBP@SPS?3?5delta_pic_order_always_zero@ 005e4090     parset.obj
 0003:0001e0c0       ??_C@_0CH@FAFMHFPC@SPS?3?5log2_max_pic_order_cnt_lsb_@ 005e40c0     parset.obj
 0003:0001e0f0       ??_C@_0BI@JLPBIMEG@SPS?3?5pic_order_cnt_type?$AA@ 005e40f0     parset.obj
 0003:0001e10c       ??_C@_0BP@EBJMCPJN@SPS?3?5log2_max_frame_num_minus4?$AA@ 005e410c     parset.obj
 0003:0001e134       ??_C@_0CD@FLDLLCEO@SPS?3?5seq_scaling_list_present_fl@ 005e4134     parset.obj
 0003:0001e160       ??_C@_0CF@BAPBDBBB@SPS?3?5seq_scaling_matrix_present_@ 005e4160     parset.obj
 0003:0001e18c       ??_C@_0CC@OFJCHLJG@SPS?3?5lossless_qpprime_y_zero_fla@ 005e418c     parset.obj
 0003:0001e1b4       ??_C@_0BN@FMAPLHNB@SPS?3?5bit_depth_chroma_minus8?$AA@ 005e41b4     parset.obj
 0003:0001e1d8       ??_C@_0BL@KFOGNPBN@SPS?3?5bit_depth_luma_minus8?$AA@ 005e41d8     parset.obj
 0003:0001e1f8       ??_C@_0CA@DHLLELEN@SPS?3?5separate_colour_plane_flag?$AA@ 005e41f8     parset.obj
 0003:0001e220       ??_C@_0BH@OOEJCOMG@SPS?3?5chroma_format_idc?$AA@ 005e4220     parset.obj
 0003:0001e23c       ??_C@_0BK@BAJHDIDA@SPS?3?5seq_parameter_set_id?$AA@ 005e423c     parset.obj
 0003:0001e25c       ??_C@_0P@LAMKBMKJ@SPS?3?5level_idc?$AA@ 005e425c     parset.obj
 0003:0001e270       ??_C@_0FM@GCLHIFFE@Warning?0?5reserved_zero?5flag?5not?5@ 005e4270     parset.obj
 0003:0001e2e0       ??_C@_0BJ@FIGONLAK@SPS?3?5reserved_zero_2bits?$AA@ 005e42e0     parset.obj
 0003:0001e300       ??_C@_0BL@EGJLPBGF@SPS?3?5constrained_set5_flag?$AA@ 005e4300     parset.obj
 0003:0001e320       ??_C@_0BL@OAOMPKNB@SPS?3?5constrained_set4_flag?$AA@ 005e4320     parset.obj
 0003:0001e340       ??_C@_0BL@CFELMEFP@SPS?3?5constrained_set3_flag?$AA@ 005e4340     parset.obj
 0003:0001e360       ??_C@_0BL@IDDMMPOL@SPS?3?5constrained_set2_flag?$AA@ 005e4360     parset.obj
 0003:0001e380       ??_C@_0BL@LCNENFHG@SPS?3?5constrained_set1_flag?$AA@ 005e4380     parset.obj
 0003:0001e3a0       ??_C@_0BL@BEKDNOMC@SPS?3?5constrained_set0_flag?$AA@ 005e43a0     parset.obj
 0003:0001e3c0       ??_C@_0CI@DBBBMKDB@Invalid?5Profile?5IDC?5?$CI?$CFd?$CJ?5encount@ 005e43c0     parset.obj
 0003:0001e3f0       ??_C@_0BB@BJMGEPEM@SPS?3?5profile_idc?$AA@ 005e43f0     parset.obj
 0003:0001e404       ??_C@_1BI@PMONFAFK@?$AAs?$AAp?$AAs?$AA?5?$AA?$CB?$AA?$DN?$AA?5?$AAN?$AAU?$AAL?$AAL?$AA?$AA@ 005e4404     parset.obj
 0003:0001e420       ??_C@_1EA@BDDGIELJ@?$AAp?$AA?9?$AA?$DO?$AAb?$AAi?$AAt?$AAs?$AAt?$AAr?$AAe?$AAa?$AAm?$AA?9?$AA?$DO?$AAs?$AAt?$AAr?$AAe?$AAa?$AAm?$AAB?$AAu?$AAf?$AAf?$AAe?$AAr?$AA?5?$AA?$CB?$AA?$DN?$AA?5?$AA0?$AA?$AA@ 005e4420     parset.obj
 0003:0001e46c       ??_C@_1CK@NFLHBHBP@?$AAp?$AA?9?$AA?$DO?$AAb?$AAi?$AAt?$AAs?$AAt?$AAr?$AAe?$AAa?$AAm?$AA?5?$AA?$CB?$AA?$DN?$AA?5?$AAN?$AAU?$AAL?$AAL?$AA?$AA@ 005e446c     parset.obj
 0003:0001e4a0       ??_C@_1BE@OLAJGFKC@?$AAp?$AA?5?$AA?$CB?$AA?$DN?$AA?5?$AAN?$AAU?$AAL?$AAL?$AA?$AA@ 005e44a0     parset.obj
 0003:0001e4b8       ??_C@_1EK@PPHFGGBL@?$AAe?$AA?3?$AA?2?$AAj?$AAm?$AA1?$AA8?$AA?4?$AA1?$AA?$CL?$AAy?$AAu?$AA1?$AA?2?$AAj?$AAm?$AA?2?$AAl?$AAd?$AAe?$AAc?$AAo?$AAd?$AA?2?$AAs?$AAr?$AAc?$AA?2?$AAp?$AAa?$AAr?$AAs@ 005e44b8     parset.obj
 0003:0001e510       ??_C@_0BN@PGCIOBLG@VUI?3?5max_dec_frame_buffering?$AA@ 005e4510     parset.obj
 0003:0001e534       ??_C@_0BI@PHDBCHEO@VUI?3?5num_reorder_frames?$AA@ 005e4534     parset.obj
 0003:0001e550       ??_C@_0CB@EEEIEOMC@VUI?3?5log2_max_mv_length_vertical@ 005e4550     parset.obj
 0003:0001e578       ??_C@_0CD@NCOAONNI@VUI?3?5log2_max_mv_length_horizont@ 005e4578     parset.obj
 0003:0001e5a4       ??_C@_0BL@KGPFLLHE@VUI?3?5max_bits_per_mb_denom?$AA@ 005e45a4     parset.obj
 0003:0001e5c4       ??_C@_0BN@BHIKPMNE@VUI?3?5max_bytes_per_pic_denom?$AA@ 005e45c4     parset.obj
 0003:0001e5e8       ??_C@_0CN@OCMOGDOB@VUI?3?5motion_vectors_over_pic_bou@ 005e45e8     parset.obj
 0003:0001e620       ??_C@_0CA@KAJINFEL@VUI?3?5bitstream_restriction_flag?$AA@ 005e4620     parset.obj
 0003:0001e648       ??_C@_0CA@HEIGIMPJ@VUI?3?5pic_struct_present_flag?5?5?5?$AA@ 005e4648     parset.obj
 0003:0001e670       ??_C@_0BI@HELCABBL@VUI?3?5low_delay_hrd_flag?$AA@ 005e4670     parset.obj
 0003:0001e68c       ??_C@_0CF@IOAPFBOC@VUI?3?5vcl_hrd_parameters_present_@ 005e468c     parset.obj
 0003:0001e6b8       ??_C@_0CF@GNINNKPN@VUI?3?5nal_hrd_parameters_present_@ 005e46b8     parset.obj
 0003:0001e6e4       ??_C@_0BL@EEHCCDAG@VUI?3?5fixed_frame_rate_flag?$AA@ 005e46e4     parset.obj
 0003:0001e704       ??_C@_0BA@PFCAAHFI@VUI?3?5time_scale?$AA@ 005e4704     parset.obj
 0003:0001e718       ??_C@_0BH@LDMEJBDK@VUI?3?5num_units_in_tick?$AA@ 005e4718     parset.obj
 0003:0001e734       ??_C@_0BO@KFABGFPB@VUI?3?5timing_info_present_flag?$AA@ 005e4734     parset.obj
 0003:0001e758       ??_C@_0CJ@JFFDDAHL@VUI?3?5chroma_sample_loc_type_bott@ 005e4758     parset.obj
 0003:0001e78c       ??_C@_0CG@MMGAMHEI@VUI?3?5chroma_sample_loc_type_top_@ 005e478c     parset.obj
 0003:0001e7bc       ??_C@_0CC@CFEDIFFD@VUI?3?5chroma_loc_info_present_fla@ 005e47bc     parset.obj
 0003:0001e7e4       ??_C@_0BJ@CHMJDENK@VUI?3?5matrix_coefficients?$AA@ 005e47e4     parset.obj
 0003:0001e804       ??_C@_0BO@FLOFFOAH@VUI?3?5transfer_characteristics?$AA@ 005e4804     parset.obj
 0003:0001e828       ??_C@_0BG@CDJAMCDB@VUI?3?5colour_primaries?$AA@ 005e4828     parset.obj
 0003:0001e844       ??_C@_0CE@NCPEFJKF@VUI?3?5color_description_present_f@ 005e4844     parset.obj
 0003:0001e870       ??_C@_0BL@IAMNPFGE@VUI?3?5video_full_range_flag?$AA@ 005e4870     parset.obj
 0003:0001e890       ??_C@_0BC@HOPNJOE@VUI?3?5video_format?$AA@ 005e4890     parset.obj
 0003:0001e8a8       ??_C@_0CE@LCDIEGGO@VUI?3?5video_signal_type_present_f@ 005e48a8     parset.obj
 0003:0001e8d4       ??_C@_0BP@LLJHLPL@VUI?3?5overscan_appropriate_flag?$AA@ 005e48d4     parset.obj
 0003:0001e8fc       ??_C@_0CA@HKPIFAFO@VUI?3?5overscan_info_present_flag?$AA@ 005e48fc     parset.obj
 0003:0001e924       ??_C@_0BA@CLPICGNB@VUI?3?5sar_height?$AA@ 005e4924     parset.obj
 0003:0001e938       ??_C@_0P@MAGOGOCE@VUI?3?5sar_width?$AA@ 005e4938     parset.obj
 0003:0001e94c       ??_C@_0BG@FEMENDLE@VUI?3?5aspect_ratio_idc?$AA@ 005e494c     parset.obj
 0003:0001e968       ??_C@_0CE@ONIDCFCB@VUI?3?5aspect_ratio_info_present_f@ 005e4968     parset.obj
 0003:0001e994       ??_C@_0BI@JHKLCHEI@VUI?3?5time_offset_length?$AA@ 005e4994     parset.obj
 0003:0001e9b0       ??_C@_0CE@KHEKPLDG@VUI?3?5dpb_output_delay_length_min@ 005e49b0     parset.obj
 0003:0001e9dc       ??_C@_0CF@NPDHPGAO@VUI?3?5cpb_removal_delay_length_mi@ 005e49dc     parset.obj
 0003:0001ea08       ??_C@_0CN@PMCFFOKF@VUI?3?5initial_cpb_removal_delay_l@ 005e4a08     parset.obj
 0003:0001ea40       ??_C@_0O@LIFOOIPO@VUI?3?5cbr_flag?$AA@ 005e4a40     parset.obj
 0003:0001ea50       ??_C@_0BL@FLNFHING@VUI?3?5cpb_size_value_minus1?$AA@ 005e4a50     parset.obj
 0003:0001ea70       ??_C@_0BL@PABELNDG@VUI?3?5bit_rate_value_minus1?$AA@ 005e4a70     parset.obj
 0003:0001ea90       ??_C@_0BE@ONCENDCF@VUI?3?5cpb_size_scale?$AA@ 005e4a90     parset.obj
 0003:0001eaa8       ??_C@_0BE@JCECPGEA@VUI?3?5bit_rate_scale?$AA@ 005e4aa8     parset.obj
 0003:0001eac0       ??_C@_0BE@ODGHFFC@VUI?3?5cpb_cnt_minus1?$AA@ 005e4ac0     parset.obj
 0003:0001ead8       ??_C@_0CD@HJNHEFKN@PPS?3?5second_chroma_qp_index_offs@ 005e4ad8     parset.obj
 0003:0001eb04       ??_C@_0CD@HFMPCFNG@PPS?3?5pic_scaling_list_present_fl@ 005e4b04     parset.obj
 0003:0001eb30       ??_C@_0CF@MHACBJBA@PPS?3?5pic_scaling_matrix_present_@ 005e4b30     parset.obj
 0003:0001eb5c       ??_C@_0BN@KHNBAEMF@PPS?3?5transform_8x8_mode_flag?$AA@ 005e4b5c     parset.obj
 0003:0001eb80       ??_C@_0CE@IGLIDJDE@PPS?3?5redundant_pic_cnt_present_f@ 005e4b80     parset.obj
 0003:0001ebac       ??_C@_0CB@KGHNLIKA@PPS?3?5constrained_intra_pred_flag@ 005e4bac     parset.obj
 0003:0001ebd4       ??_C@_0CM@HHGDPDIH@PPS?3?5deblocking_filter_control_p@ 005e4bd4     parset.obj
 0003:0001ec08       ??_C@_0BM@JJNGLMJH@PPS?3?5chroma_qp_index_offset?$AA@ 005e4c08     parset.obj
 0003:0001ec2c       ??_C@_0BJ@FHJEKILF@PPS?3?5pic_init_qs_minus26?$AA@ 005e4c2c     parset.obj
 0003:0001ec4c       ??_C@_0BJ@LMKDBDLG@PPS?3?5pic_init_qp_minus26?$AA@ 005e4c4c     parset.obj
 0003:0001ec6c       ??_C@_0BJ@KNBJEKJ@PPS?3?5weighted_bipred_idc?$AA@ 005e4c6c     parset.obj
 0003:0001ec8c       ??_C@_0BI@CAJLIHDB@PPS?3?5weighted_pred_flag?$AA@ 005e4c8c     parset.obj
 0003:0001eca8       ??_C@_0CK@ECKHDMBH@PPS?3?5num_ref_idx_l1_default_acti@ 005e4ca8     parset.obj
 0003:0001ecdc       ??_C@_0CK@MDICFJDA@PPS?3?5num_ref_idx_l0_default_acti@ 005e4cdc     parset.obj
 0003:0001ed10       ??_C@_0BC@MCMNICBC@slice_group_id?$FLi?$FN?$AA@ 005e4d10     parset.obj
 0003:0001ed28       ??_C@_0BN@DMBAGJKI@InterpretPPS?3?5slice_group_id?$AA@ 005e4d28     parset.obj
 0003:0001ed4c       ??_C@_0CC@BGJDKKLI@PPS?3?5pic_size_in_map_units_minus@ 005e4d4c     parset.obj
 0003:0001ed74       ??_C@_0CE@GJNCFIIL@PPS?3?5slice_group_change_rate_min@ 005e4d74     parset.obj
 0003:0001eda0       ??_C@_0CH@LKEHGDPD@PPS?3?5slice_group_change_directio@ 005e4da0     parset.obj
 0003:0001edd0       ??_C@_0BG@JKKHMHBB@PPS?3?5bottom_right?5?$FLi?$FN?$AA@ 005e4dd0     parset.obj
 0003:0001edec       ??_C@_0BC@JIGBMMOB@PPS?3?5top_left?5?$FLi?$FN?$AA@ 005e4dec     parset.obj
 0003:0001ee04       ??_C@_0BL@HGFAEDLL@PPS?3?5run_length_minus1?5?$FLi?$FN?$AA@ 005e4e04     parset.obj
 0003:0001ee24       ??_C@_0BK@GLBOOPHK@PPS?3?5slice_group_map_type?$AA@ 005e4e24     parset.obj
 0003:0001ee44       ??_C@_0BN@LLFBIFIJ@PPS?3?5num_slice_groups_minus1?$AA@ 005e4e44     parset.obj
 0003:0001ee68       ??_C@_0DC@JKHNJJAK@PPS?3?5bottom_field_pic_order_in_f@ 005e4e68     parset.obj
 0003:0001eea4       ??_C@_0BO@IEECAFEF@PPS?3?5entropy_coding_mode_flag?$AA@ 005e4ea4     parset.obj
 0003:0001eec8       ??_C@_0BK@OCMANFMI@PPS?3?5seq_parameter_set_id?$AA@ 005e4ec8     parset.obj
 0003:0001eee8       ??_C@_0BK@CNBOFHDL@PPS?3?5pic_parameter_set_id?$AA@ 005e4ee8     parset.obj
 0003:0001ef08       ??_C@_1BI@KEPDPJHC@?$AAp?$AAp?$AAs?$AA?5?$AA?$CB?$AA?$DN?$AA?5?$AAN?$AAU?$AAL?$AAL?$AA?$AA@ 005e4f08     parset.obj
 0003:0001ef24       ??_C@_0DK@NFNGAGF@Consistency?5checking?5a?5picture?5p@ 005e4f24     parset.obj
 0003:0001ef6c       ??_C@_0DL@KFNJBEBL@Consistency?5checking?5a?5sequence?5@ 005e4f6c     parset.obj
 0003:0001efb8       ??_C@_0EC@OKNBIJDM@Consistency?5checking?5a?5subset?5se@ 005e4fb8     parset.obj
 0003:0001f008       ??_C@_1CG@DJHPNILC@?$AAp?$AAp?$AAs?$AA?9?$AA?$DO?$AAV?$AAa?$AAl?$AAi?$AAd?$AA?5?$AA?$DN?$AA?$DN?$AA?5?$AAT?$AAR?$AAU?$AAE?$AA?$AA@ 005e5008     parset.obj
 0003:0001f038       ??_C@_1CG@HEJHNINF@?$AAs?$AAp?$AAs?$AA?9?$AA?$DO?$AAV?$AAa?$AAl?$AAi?$AAd?$AA?5?$AA?$DN?$AA?$DN?$AA?5?$AAT?$AAR?$AAU?$AAE?$AA?$AA@ 005e5038     parset.obj
 0003:0001f068       ??_C@_0EB@KGCBILLL@Warning?3?5num_views?3?$CFd?5is?5greater@ 005e5068     parset.obj
 0003:0001f0b8       ??_C@_0BL@NGMBOCKJ@additional_extension2_flag?$AA@ 005e50b8     parset.obj
 0003:0001f0d8       ??_C@_0CA@CAAMKOAJ@mvc_vui_parameters_present_flag?$AA@ 005e50d8     parset.obj
 0003:0001f100       ??_C@_0CG@JDHOAOID@?6bit_equal_to_one?5is?5not?5equal?5t@ 005e5100     parset.obj
 0003:0001f130       ??_C@_0BB@MBDOKDLF@bit_equal_to_one?$AA@ 005e5130     parset.obj
 0003:0001f144       ??_C@_1CG@MMEHMBBM@?$AAs?$AAu?$AAb?$AAs?$AAe?$AAt?$AA_?$AAs?$AAp?$AAs?$AA?5?$AA?$CB?$AA?$DN?$AA?5?$AAN?$AAU?$AAL?$AAL?$AA?$AA@ 005e5144     parset.obj
 0003:0001f174       ??_C@_13COJANIEC@?$AA0?$AA?$AA@ 005e5174     parset.obj
 0003:0001f178       ??_C@_0EM@KLAHEKML@?5?5Frame?5?5?5?5?5?5?5?5?5?5POC?5?5Pic?$CD?5?5?5QP?5@ 005e5178     parset.obj
 0003:0001f1d4       ??_C@_0DE@EINKDOLB@POC?5must?5?$DN?5frame?$CD?5or?5field?$CD?5for?5@ 005e51d4     parset.obj
 0003:0001f214       ??_C@_0M@BFFHCMIP@?$CI?$CFd?3?$CFd?3?$CFd?$CJ?6?$AA@ 005e5214     parset.obj
 0003:0001f224       ??_C@_0BG@OAEBBPDJ@Color?5Format?5?3?54?34?34?5?$AA@ 005e5224     parset.obj
 0003:0001f240       ??_C@_0BG@GLIMJGCL@Color?5Format?5?3?54?32?32?5?$AA@ 005e5240     parset.obj
 0003:0001f25c       ??_C@_0BG@GIAIECEF@Color?5Format?5?3?54?32?30?5?$AA@ 005e525c     parset.obj
 0003:0001f278       ??_C@_0BG@BCMIBBCF@Color?5Format?5?3?54?30?30?5?$AA@ 005e5278     parset.obj
 0003:0001f294       ??_C@_0BO@ILIPGEDO@Image?5Format?5?3?5?$CFdx?$CFd?5?$CI?$CFdx?$CFd?$CJ?6?$AA@ 005e5294     parset.obj
 0003:0001f2b8       ??_C@_1EC@FPFCAIBM@?$AAp?$AA_?$AAV?$AAi?$AAd?$AA?9?$AA?$DO?$AAp?$AA_?$AAD?$AAp?$AAb?$AA_?$AAl?$AAa?$AAy?$AAe?$AAr?$AA?$FL?$AA0?$AA?$FN?$AA?9?$AA?$DO?$AAi?$AAn?$AAi?$AAt?$AA_?$AAd?$AAo?$AAn?$AAe@ 005e52b8     parset.obj
 0003:0001f308       ??_C@_0DA@DHDPJGGI@num_ref_frames_in_pic_order_cnt_@ 005e5308     parset.obj
 0003:0001f344       ??_C@_0BI@EAJOCDJN@pic_order_cnt_type?5?$CB?$DN?51?$AA@ 005e5344     parset.obj
 0003:0001f360       ??_C@_0CG@DBNPOIAF@invalid?5sps?9?$DOpic_order_cnt_type?5@ 005e5360     parset.obj
 0003:0001f390       ??_C@_0HH@CAMHAFJN@PicParset?5?$CFd?5references?5an?5inval@ 005e5390     parset.obj
 0003:0001f420       ??_C@_0HA@IJMJABAM@PicParset?5?$CFd?5references?5an?5inval@ 005e5420     parset.obj
 0003:0001f4a8       ??_C@_0GF@KNFDCAP@Trying?5to?5use?5an?5invalid?5?$CIuninit@ 005e54a8     parset.obj
 0003:0001f524       ??_C@_0BP@NHGEMICO@applicable_op_num_views_minus1?$AA@ 005e5524     parset.obj
 0003:0001f54c       ??_C@_0BN@FFBHEFNP@applicable_op_target_view_id?$AA@ 005e554c     parset.obj
 0003:0001f570       ??_C@_0EO@MJKBFFDM@init_subset_seq_parameter_set?3?5s@ 005e5570     parset.obj
 0003:0001f5d0       ??_C@_0CG@BEIHGKAK@applicable_op_num_target_views_m@ 005e55d0     parset.obj
 0003:0001f600       ??_C@_0BK@KMFLMKLH@applicable_op_temporal_id?$AA@ 005e5600     parset.obj
 0003:0001f620       ??_C@_0EN@NKKCHLHN@init_subset_seq_parameter_set?3?5s@ 005e5620     parset.obj
 0003:0001f680       ??_C@_0EL@HJGFOPEP@init_subset_seq_parameter_set?3?5s@ 005e5680     parset.obj
 0003:0001f6e0       ??_C@_0FE@IHCMEANJ@init_subset_seq_parameter_set?3?5s@ 005e56e0     parset.obj
 0003:0001f748       ??_C@_0EI@KBICANPA@init_subset_seq_parameter_set?3?5s@ 005e5748     parset.obj
 0003:0001f7a0       ??_C@_0BK@DDAFPDIG@num_applicable_ops_minus1?$AA@ 005e57a0     parset.obj
 0003:0001f7c0       ??_C@_09PALODIOD@level_idc?$AA@ 005e57c0     parset.obj
 0003:0001f7d0       ??_C@_0EK@KPCJCGAJ@init_subset_seq_parameter_set?3?5s@ 005e57d0     parset.obj
 0003:0001f828       ??_C@_0EI@KNDHEMLL@init_subset_seq_parameter_set?3?5s@ 005e5828     parset.obj
 0003:0001f880       ??_C@_0FB@DMDLADGB@init_subset_seq_parameter_set?3?5s@ 005e5880     parset.obj
 0003:0001f8e8       ??_C@_0EF@ODMHKKOK@init_subset_seq_parameter_set?3?5s@ 005e58e8     parset.obj
 0003:0001f940       ??_C@_0EF@HMJJJDNL@init_subset_seq_parameter_set?3?5s@ 005e5940     parset.obj
 0003:0001f994       ??_C@_0DF@DLLLLLHH@init_subset_seq_parameter_set?3?5s@ 005e5994     parset.obj
 0003:0001f9d4       ??_C@_0CC@NFIABBFD@num_level_values_signalled_minus@ 005e59d4     parset.obj
 0003:0001f9fc       ??_C@_0BC@BDFGABMH@non_anchor_ref_l1?$AA@ 005e59fc     parset.obj
 0003:0001fa18       ??_C@_0EA@FCELDALJ@init_subset_seq_parameter_set?3?5s@ 005e5a18     parset.obj
 0003:0001fa64       ??_C@_0BH@MBIHHGDL@num_non_anchor_refs_l1?$AA@ 005e5a64     parset.obj
 0003:0001fa80       ??_C@_0BC@KENDAIG@non_anchor_ref_l0?$AA@ 005e5a80     parset.obj
 0003:0001fa98       ??_C@_0EA@GPCLBJAJ@init_subset_seq_parameter_set?3?5s@ 005e5a98     parset.obj
 0003:0001fae4       ??_C@_0BH@NIJMEHHK@num_non_anchor_refs_l0?$AA@ 005e5ae4     parset.obj
 0003:0001fb00       ??_C@_0O@CNKFFFMM@anchor_ref_l1?$AA@ 005e5b00     parset.obj
 0003:0001fb10       ??_C@_0DM@EHNFBIEE@init_subset_seq_parameter_set?3?5s@ 005e5b10     parset.obj
 0003:0001fb58       ??_C@_0BD@CODJOMBK@num_anchor_refs_l1?$AA@ 005e5b58     parset.obj
 0003:0001fb70       ??_C@_0O@DELOGEIN@anchor_ref_l0?$AA@ 005e5b70     parset.obj
 0003:0001fb80       ??_C@_0DM@HKLFDBPE@init_subset_seq_parameter_set?3?5s@ 005e5b80     parset.obj
 0003:0001fbc8       ??_C@_0BD@DHCCNNFL@num_anchor_refs_l0?$AA@ 005e5bc8     parset.obj
 0003:0001fbe0       ??_C@_0DN@MPGKADNK@init_subset_seq_parameter_set?3?5s@ 005e5be0     parset.obj
 0003:0001fc2c       ??_C@_0DN@NGHBDCJL@init_subset_seq_parameter_set?3?5s@ 005e5c2c     parset.obj
 0003:0001fc78       ??_C@_0EC@PDACHLGE@init_subset_seq_parameter_set?3?5s@ 005e5c78     parset.obj
 0003:0001fcc8       ??_C@_0EC@OKBJEKCF@init_subset_seq_parameter_set?3?5s@ 005e5cc8     parset.obj
 0003:0001fd18       ??_C@_0DJ@INDFGJJL@init_subset_seq_parameter_set?3?5s@ 005e5d18     parset.obj
 0003:0001fd5c       ??_C@_0DJ@JECOFINK@init_subset_seq_parameter_set?3?5s@ 005e5d5c     parset.obj
 0003:0001fda0       ??_C@_0DO@ENODLMMB@init_subset_seq_parameter_set?3?5s@ 005e5da0     parset.obj
 0003:0001fdec       ??_C@_0DO@FEPIINIA@init_subset_seq_parameter_set?3?5s@ 005e5dec     parset.obj
 0003:0001fe38       ??_C@_0DD@HDEOCCGA@init_subset_seq_parameter_set?3?5s@ 005e5e38     parset.obj
 0003:0001fe78       ??_C@_0BB@JOAGPDPO@num_views_minus1?$AA@ 005e5e78     parset.obj
 0003:0001fe8c       ??_C@_0BD@PLLMCJNH@time_offset_length?$AA@ 005e5e8c     parset.obj
 0003:0001fea4       ??_C@_0BP@JEFCCFHM@dpb_output_delay_length_minus1?$AA@ 005e5ea4     parset.obj
 0003:0001fecc       ??_C@_0CA@EJANEGFO@cpb_removal_delay_length_minus1?$AA@ 005e5ecc     parset.obj
 0003:0001fef4       ??_C@_0CI@HCNBBELI@initial_cpb_removal_delay_length@ 005e5ef4     parset.obj
 0003:0001ff24       ??_C@_08GMNCBMPH@cbr_flag?$AA@ 005e5f24     parset.obj
 0003:0001ff30       ??_C@_0BG@LAMKCPDO@cpb_size_value_minus1?$AA@ 005e5f30     parset.obj
 0003:0001ff4c       ??_C@_0BG@BLALOKNO@bit_rate_value_minus1?$AA@ 005e5f4c     parset.obj
 0003:0001ff68       ??_C@_0P@FKJAOABP@cpb_size_scale?$AA@ 005e5f68     parset.obj
 0003:0001ff7c       ??_C@_0P@CFPGMFHK@bit_rate_scale?$AA@ 005e5f7c     parset.obj
 0003:0001ff90       ??_C@_1DI@HOKOGEKB@?$AAp?$AAM?$AAV?$AAC?$AAV?$AAU?$AAI?$AA?9?$AA?$DO?$AAc?$AAp?$AAb?$AA_?$AAc?$AAn?$AAt?$AA_?$AAm?$AAi?$AAn?$AAu?$AAs?$AA1?$AA?$DM?$AA?$DN?$AA3?$AA1?$AA?$AA@ 005e5f90     parset.obj
 0003:0001ffd4       ??_C@_0P@LJICEGGI@cpb_cnt_minus1?$AA@ 005e5fd4     parset.obj
 0003:0001ffe8       ??_C@_0CA@OFGAOALI@vui_mvc_pic_struct_present_flag?$AA@ 005e5fe8     parset.obj
 0003:00020010       ??_C@_0BL@IELNFGNP@vui_mvc_low_delay_hrd_flag?$AA@ 005e6010     parset.obj
 0003:00020030       ??_C@_0CA@BIDFOBLC@vcl_hrd_parameters_present_flag?$AA@ 005e6030     parset.obj
 0003:00020058       ??_C@_0CI@HLIEMPAL@vui_mvc_nal_hrd_parameters_prese@ 005e6058     parset.obj
 0003:00020088       ??_C@_0BO@LHJBMLGI@vui_mvc_fixed_frame_rate_flag?$AA@ 005e6088     parset.obj
 0003:000200ac       ??_C@_0BD@OCJGLJON@vui_mvc_time_scale?$AA@ 005e60ac     parset.obj
 0003:000200c4       ??_C@_0BK@LDAABBKK@vui_mvc_num_units_in_tick?$AA@ 005e60c4     parset.obj
 0003:000200e4       ??_C@_0CB@EIOMEJAO@vui_mvc_timing_info_present_flag@ 005e60e4     parset.obj
 0003:0002010c       ??_C@_0BA@CDGLCODA@vui_mvc_view_id?$AA@ 005e610c     parset.obj
 0003:00020120       ??_C@_0CH@PMENJEIE@vui_mvc_num_target_output_views_@ 005e6120     parset.obj
 0003:00020150       ??_C@_0BE@EOODKAHO@vui_mvc_temporal_id?$AA@ 005e6150     parset.obj
 0003:00020168       ??_C@_0CP@FPKIPCCG@mvc_vui_parameters_extension?3?5pM@ 005e6168     parset.obj
 0003:000201a0       ??_C@_0BH@NCNHBDBI@vui_mvc_num_ops_minus1?$AA@ 005e61a0     parset.obj
 0003:0002045c       ??_C@_0O@NFFBGKMO@AllocPPS?3?5PPS?$AA@ 005e645c     parsetcommon.obj
 0003:0002046c       ??_C@_0O@POGJPJOF@AllocSPS?3?5SPS?$AA@ 005e646c     parsetcommon.obj
 0003:00020480       ??_C@_1FI@NFBEAJGN@?$AAe?$AA?3?$AA?2?$AAj?$AAm?$AA1?$AA8?$AA?4?$AA1?$AA?$CL?$AAy?$AAu?$AA1?$AA?2?$AAj?$AAm?$AA?2?$AAl?$AAc?$AAo?$AAm?$AAm?$AAo?$AAn?$AA?2?$AAs?$AAr?$AAc?$AA?2?$AAp?$AAa?$AAr@ 005e6480     parsetcommon.obj
 0003:000213dc       ??_C@_0CE@KKLCEOHC@init_qp_process?3?5cps?9?$DOqp_rem_mat@ 005e73dc     quant.obj
 0003:00021408       ??_C@_0CE@IBKHHKBD@init_qp_process?3?5cps?9?$DOqp_per_mat@ 005e7408     quant.obj
 0003:00021cd0       ??_C@_1EA@FBJFFBPI@?$AAc?$AAo?$AAe?$AAf?$AA_?$AAc?$AAt?$AAr?$AA?5?$AA?$DM?$AA?5?$AAp?$AA_?$AAV?$AAi?$AAd?$AA?9?$AA?$DO?$AAn?$AAu?$AAm?$AA_?$AAc?$AAd?$AAc?$AA_?$AAc?$AAo?$AAe?$AAf?$AAf?$AA?$AA@ 005e7cd0     read_comp_cabac.obj
 0003:00021d20       ??_C@_1FM@ONPDHBOM@?$AAe?$AA?3?$AA?2?$AAj?$AAm?$AA1?$AA8?$AA?4?$AA1?$AA?$CL?$AAy?$AAu?$AA1?$AA?2?$AAj?$AAm?$AA?2?$AAl?$AAd?$AAe?$AAc?$AAo?$AAd?$AA?2?$AAs?$AAr?$AAc?$AA?2?$AAr?$AAe?$AAa?$AAd@ 005e7d20     read_comp_cabac.obj
 0003:00022664       ??_C@_0CJ@JGMBHKBC@read_coeff_4x4_CAVLC?3?5invalid?5bl@ 005e8664     read_comp_cavlc.obj
 0003:00022698       ??_C@_0CI@LILJFFPN@writeCoeff4x4_CAVLC?3?5Invalid?5blo@ 005e8698     read_comp_cavlc.obj
 0003:00022964       ??_C@_0BK@HJFEPOGD@Cannot?5open?5RTP?5file?5?8?$CFs?8?$AA@ 005e8964     rtp.obj
 0003:00022984       ??_C@_0DF@ONABPNPM@Warning?3?5RTP?5sequence?5number?5dis@ 005e8984     rtp.obj
 0003:000229c4       ??_C@_1DG@PDEGLAID@?$AAp?$AA?9?$AA?$DO?$AAp?$AAa?$AAy?$AAl?$AAe?$AAn?$AA?5?$AA?$DM?$AA?5?$AAn?$AAa?$AAl?$AAu?$AA?9?$AA?$DO?$AAm?$AAa?$AAx?$AA_?$AAs?$AAi?$AAz?$AAe?$AA?$AA@ 005e89c4     rtp.obj
 0003:00022a08       ??_C@_1EE@HCHNLCMK@?$AAe?$AA?3?$AA?2?$AAj?$AAm?$AA1?$AA8?$AA?4?$AA1?$AA?$CL?$AAy?$AAu?$AA1?$AA?2?$AAj?$AAm?$AA?2?$AAl?$AAd?$AAe?$AAc?$AAo?$AAd?$AA?2?$AAs?$AAr?$AAc?$AA?2?$AAr?$AAt?$AAp?$AA?4@ 005e8a08     rtp.obj
 0003:00022a5c       ??_C@_0N@HMBIIMJI@GetRTPNALU?93?$AA@ 005e8a5c     rtp.obj
 0003:00022a6c       ??_C@_0N@GFADLNNJ@GetRTPNALU?92?$AA@ 005e8a6c     rtp.obj
 0003:00022a7c       ??_C@_0N@EOCOOOBK@GetRTPNALU?91?$AA@ 005e8a7c     rtp.obj
 0003:00022a90       ??_C@_0EE@EONGAKFM@DecomposeRTPpacket?0?5RTP?5header?5c@ 005e8a90     rtp.obj
 0003:00022ae4       ??_C@_1CE@LFHPPNLI@?$AAp?$AA?9?$AA?$DO?$AAp?$AAa?$AAc?$AAk?$AAe?$AAt?$AA?5?$AA?$CB?$AA?$DN?$AA?5?$AAN?$AAU?$AAL?$AAL?$AA?$AA@ 005e8ae4     rtp.obj
 0003:00022b10       ??_C@_1CG@GDBBLODJ@?$AAp?$AA?9?$AA?$DO?$AAp?$AAa?$AAy?$AAl?$AAo?$AAa?$AAd?$AA?5?$AA?$CB?$AA?$DN?$AA?5?$AAN?$AAU?$AAL?$AAL?$AA?$AA@ 005e8b10     rtp.obj
 0003:00022b40       ??_C@_1CC@LGMKOHEI@?$AAp?$AA?9?$AA?$DO?$AAp?$AAa?$AAc?$AAk?$AAl?$AAe?$AAn?$AA?5?$AA?$DO?$AA?$DN?$AA?5?$AA1?$AA2?$AA?$AA@ 005e8b40     rtp.obj
 0003:00022b68       ??_C@_1DA@CEGACPDK@?$AAp?$AA?9?$AA?$DO?$AAp?$AAa?$AAc?$AAk?$AAl?$AAe?$AAn?$AA?5?$AA?$DM?$AA?5?$AA6?$AA5?$AA5?$AA3?$AA6?$AA?5?$AA?9?$AA?5?$AA2?$AA8?$AA?$AA@ 005e8b68     rtp.obj
 0003:00022ba4       ??_C@_09CBJEJDJL@SSRC?3?5?$CFd?6?$AA@ 005e8ba4     rtp.obj
 0003:00022bb0       ??_C@_0P@MFGNJCBL@Timestamp?3?5?$CFd?6?$AA@ 005e8bb0     rtp.obj
 0003:00022bc4       ??_C@_0BF@CPLBFKBJ@Sequence?5Number?3?5?$CFd?6?$AA@ 005e8bc4     rtp.obj
 0003:00022be0       ??_C@_0BH@KKLIKMKM@Payload?5Type?5?$CIPT?$CJ?3?5?$CFd?6?$AA@ 005e8be0     rtp.obj
 0003:00022bfc       ??_C@_0BE@KIADGIFG@Marker?5bit?5?$CIM?$CJ?3?5?$CFd?6?$AA@ 005e8bfc     rtp.obj
 0003:00022c14       ??_C@_0BF@CCKMGGDH@CSRC?5count?5?$CICC?$CJ?3?5?$CFd?6?$AA@ 005e8c14     rtp.obj
 0003:00022c30       ??_C@_0BD@NIMGOJHA@Extension?5?$CIX?$CJ?3?5?$CFd?6?$AA@ 005e8c30     rtp.obj
 0003:00022c48       ??_C@_0BB@LIHNFBCD@Padding?5?$CIP?$CJ?3?5?$CFd?6?$AA@ 005e8c48     rtp.obj
 0003:00022c5c       ??_C@_0BB@IIBIAMNA@Version?5?$CIV?$CJ?3?5?$CFd?6?$AA@ 005e8c5c     rtp.obj
 0003:00022c70       ??_C@_05CNDJFPDP@?$CF02x?5?$AA@ 005e8c70     rtp.obj
 0003:00022c78       ??_C@_1CI@KALPJDIC@?$AAp?$AA?9?$AA?$DO?$AAs?$AAs?$AAr?$AAc?$AA?5?$AA?$DN?$AA?$DN?$AA?5?$AAH?$AA2?$AA6?$AA4?$AAS?$AAS?$AAR?$AAC?$AA?$AA@ 005e8c78     rtp.obj
 0003:00022ca8       ??_C@_1DC@BNECOBHF@?$AAp?$AA?9?$AA?$DO?$AAp?$AAt?$AA?5?$AA?$DN?$AA?$DN?$AA?5?$AAH?$AA2?$AA6?$AA4?$AAP?$AAA?$AAY?$AAL?$AAO?$AAA?$AAD?$AAT?$AAY?$AAP?$AAE?$AA?$AA@ 005e8ca8     rtp.obj
 0003:00022ce4       ??_C@_0CM@OBLNOMLG@Errors?5reported?5by?5DecomposePack@ 005e8ce4     rtp.obj
 0003:00022d18       ??_C@_0DJ@KNHMPOGL@RTPReadPacket?3?5File?5corruption?0?5@ 005e8d18     rtp.obj
 0003:00022d5c       ??_C@_1DM@BPOMAKCK@?$AAp?$AA?9?$AA?$DO?$AAp?$AAa?$AAc?$AAk?$AAl?$AAe?$AAn?$AA?5?$AA?$DM?$AA?5?$AAM?$AAA?$AAX?$AAR?$AAT?$AAP?$AAP?$AAA?$AAC?$AAK?$AAE?$AAT?$AAS?$AAI?$AAZ?$AAE?$AA?$AA@ 005e8d5c     rtp.obj
 0003:00022da8       ??_C@_0EA@FFMAEOOB@RTPReadPacket?3?5File?5corruption?0?5@ 005e8da8     rtp.obj
 0003:00023294       ??_C@_1CC@FNNOFONC@?$AAo?$AAf?$AAf?$AAs?$AAe?$AAt?$AA?$CL?$AA1?$AA?5?$AA?$DN?$AA?$DN?$AA?5?$AAs?$AAi?$AAz?$AAe?$AA?$AA@ 005e9294     sei.obj
 0003:000232bc       ??_C@_1CI@IDKKJDBF@?$AAm?$AAs?$AAg?$AA?$FL?$AAo?$AAf?$AAf?$AAs?$AAe?$AAt?$AA?$FN?$AA?5?$AA?$DN?$AA?$DN?$AA?5?$AA0?$AAx?$AA8?$AA0?$AA?$AA@ 005e92bc     sei.obj
 0003:000232f0       ??_C@_1EE@ECEADOHD@?$AAe?$AA?3?$AA?2?$AAj?$AAm?$AA1?$AA8?$AA?4?$AA1?$AA?$CL?$AAy?$AAu?$AA1?$AA?2?$AAj?$AAm?$AA?2?$AAl?$AAd?$AAe?$AAc?$AAo?$AAd?$AA?2?$AAs?$AAr?$AAc?$AA?2?$AAs?$AAe?$AAi?$AA?4@ 005e92f0     sei.obj
 0003:00023344       ??_C@_0BO@FMLHOBDA@Wrong?5ref_area_indicator?5?$CFd?$CB?6?$AA@ 005e9344     sei.obj
 0003:00023368       ??_C@_0BF@EKJCDLPH@SEI?3?5zero_run_length?$AA@ 005e9368     sei.obj
 0003:00023384       ??_C@_0BG@ELAODDOP@SEI?3?5ref_mb_indicator?$AA@ 005e9384     sei.obj
 0003:000233a0       ??_C@_0BI@OFAANMGI@SEI?3?5ref_area_indicator?$AA@ 005e93a0     sei.obj
 0003:000233bc       ??_C@_0BL@CPONIMJH@SEI?3?5delta_spare_frame_num?$AA@ 005e93bc     sei.obj
 0003:000233dc       ??_C@_0BL@LGMOPFAP@SEI?3?5num_spare_pics_minus1?$AA@ 005e93dc     sei.obj
 0003:000233fc       ??_C@_0BG@PLOLEJBJ@SEI?3?5target_frame_num?$AA@ 005e93fc     sei.obj
 0003:00023418       ??_C@_1BI@JNJPBNH@?$AAp?$AA_?$AAV?$AAi?$AAd?$AA?$CB?$AA?$DN?$AAN?$AAU?$AAL?$AAL?$AA?$AA@ 005e9418     sei.obj
 0003:00023434       ??_C@_1BM@JIAKJMKG@?$AAp?$AAa?$AAy?$AAl?$AAo?$AAa?$AAd?$AA?$CB?$AA?$DN?$AAN?$AAU?$AAL?$AAL?$AA?$AA@ 005e9434     sei.obj
 0003:00023458       ??_C@_0BH@PCLOFHCC@SEI?3?5sub_seq_frame_num?$AA@ 005e9458     sei.obj
 0003:00023474       ??_C@_0BM@PNGCDHFJ@SEI?3?5sub_seq_frame_num_flag?$AA@ 005e9474     sei.obj
 0003:00023498       ??_C@_0BD@GLNFOGLF@SEI?3?5last_pic_flag?$AA@ 005e9498     sei.obj
 0003:000234b0       ??_C@_0BO@PNIDIMDN@SEI?3?5leading_non_ref_pic_flag?$AA@ 005e94b0     sei.obj
 0003:000234d4       ??_C@_0BI@BEDNMMAF@SEI?3?5first_ref_pic_flag?$AA@ 005e94d4     sei.obj
 0003:000234f0       ??_C@_0BA@NMJALLDE@SEI?3?5sub_seq_id?$AA@ 005e94f0     sei.obj
 0003:00023504       ??_C@_0BH@PCLDOPIF@SEI?3?5sub_seq_layer_num?$AA@ 005e9504     sei.obj
 0003:00023520       ??_C@_0BI@GOCHMBCM@SEI?3?5average_frame_rate?$AA@ 005e9520     sei.obj
 0003:0002353c       ??_C@_0BG@FLAPGIGJ@SEI?3?5average_bit_rate?$AA@ 005e953c     sei.obj
 0003:00023558       ??_C@_0BO@FDNGBHDK@SEI?3?5accurate_statistics_flag?$AA@ 005e9558     sei.obj
 0003:0002357c       ??_C@_0BL@BDHFLNLM@SEI?3?5num_sub_layers_minus1?$AA@ 005e957c     sei.obj
 0003:0002359c       ??_C@_0BL@OBHJBDEO@SEI?3?5ref_sub_seq_direction?$AA@ 005e959c     sei.obj
 0003:000235bc       ??_C@_0BE@PMMMIAAO@SEI?3?5ref_sub_seq_id?$AA@ 005e95bc     sei.obj
 0003:000235d4       ??_C@_0BL@MNMMGPAD@SEI?3?5ref_sub_seq_layer_num?$AA@ 005e95d4     sei.obj
 0003:000235f4       ??_C@_0BM@KJFKIHAO@SEI?3?5num_referenced_subseqs?$AA@ 005e95f4     sei.obj
 0003:00023618       ??_C@_0BH@BFFKOPEM@SEI?3?5average_rate_flag?$AA@ 005e9618     sei.obj
 0003:00023634       ??_C@_0BD@HIFAHEGD@SEI?3?5duration_flag?$AA@ 005e9634     sei.obj
 0003:0002364c       ??_C@_0BL@OJAFOAJH@SEI?3?5scene_transition_type?$AA@ 005e964c     sei.obj
 0003:0002366c       ??_C@_0O@FMPDLAK@SEI?3?5scene_id?$AA@ 005e966c     sei.obj
 0003:0002367c       ??_C@_1BC@KFANAPFF@?$AAs?$AAi?$AAz?$AAe?$AA?$DO?$AA?$DN?$AA1?$AA6?$AA?$AA@ 005e967c     sei.obj
 0003:00023694       ??_C@_0CF@IEPIADCK@SEI?3?5pan_scan_rect_repetition_pe@ 005e9694     sei.obj
 0003:000236c0       ??_C@_0CB@JLBLOBPC@SEI?3?5pan_scan_rect_bottom_offset@ 005e96c0     sei.obj
 0003:000236e8       ??_C@_0BO@PGAIHIBI@SEI?3?5pan_scan_rect_top_offset?$AA@ 005e96e8     sei.obj
 0003:0002370c       ??_C@_0CA@DDFDBADK@SEI?3?5pan_scan_rect_right_offset?$AA@ 005e970c     sei.obj
 0003:00023734       ??_C@_0BP@EKKFMNND@SEI?3?5pan_scan_rect_left_offset?$AA@ 005e9734     sei.obj
 0003:0002375c       ??_C@_0BJ@LGHDNFMC@SEI?3?5pan_scan_cnt_minus1?$AA@ 005e975c     sei.obj
 0003:0002377c       ??_C@_0BP@DLJCODKG@SEI?3?5pan_scan_rect_cancel_flag?$AA@ 005e977c     sei.obj
 0003:000237a4       ??_C@_0BG@EKBGMBKP@SEI?3?5pan_scan_rect_id?$AA@ 005e97a4     sei.obj
 0003:000237c0       ??_C@_0BO@JMONFPIJ@SEI?3?5changing_slice_group_idc?$AA@ 005e97c0     sei.obj
 0003:000237e4       ??_C@_0BG@DBIJCKJB@SEI?3?5broken_link_flag?$AA@ 005e97e4     sei.obj
 0003:00023800       ??_C@_0BG@KPAFDMIG@SEI?3?5exact_match_flag?$AA@ 005e9800     sei.obj
 0003:0002381c       ??_C@_0BI@KKIEMPIM@SEI?3?5recovery_frame_cnt?$AA@ 005e981c     sei.obj
 0003:00023838       ??_C@_0CA@HJHDJGCC@SEI?3?5original_bottom_field_flag?$AA@ 005e9838     sei.obj
 0003:00023860       ??_C@_0BN@OONLHOG@SEI?3?5original_field_pic_flag?$AA@ 005e9860     sei.obj
 0003:00023884       ??_C@_0BI@LLOCHIEA@SEI?3?5original_frame_num?$AA@ 005e9884     sei.obj
 0003:000238a0       ??_C@_0BH@HGEDJDKJ@SEI?3?5original_idr_flag?$AA@ 005e98a0     sei.obj
 0003:000238bc       ??_C@_0CJ@OMOAEFCA@SEI?3?5full_frame_freeze_repetitio@ 005e98bc     sei.obj
 0003:000238f0       ??_C@_0BB@CINDFHED@SEI?3?5snapshot_id?$AA@ 005e98f0     sei.obj
 0003:00023904       ??_C@_0CB@BODMIBPG@SEI?3?5num_refinement_steps_minus1@ 005e9904     sei.obj
 0003:0002392c       ??_C@_0BP@HMJBIKFL@SEI?3?5progressive_refinement_id?$AA@ 005e992c     sei.obj
 0003:00023954       ??_C@_0BI@OBLBPLFP@SEI?3?5pan_scan_rect_flag?$AA@ 005e9954     sei.obj
 0003:00023970       ??_C@_0BE@HFCCHINO@SEI?3?5slice_group_id?$AA@ 005e9970     sei.obj
 0003:00023988       ??_C@_0BN@EDIKHNAB@SEI?3?5num_slice_groups_minus1?$AA@ 005e9988     sei.obj
 0003:000239ac       ??_C@_0DC@FJFALKEJ@SEI?3?5film_grain_characteristics_@ 005e99ac     sei.obj
 0003:000239e8       ??_C@_0BG@OKOMONPM@SEI?3?5comp_model_value?$AA@ 005e99e8     sei.obj
 0003:00023a04       ??_C@_0CE@KEDAFMON@SEI?3?5intensity_interval_upper_bo@ 005e9a04     sei.obj
 0003:00023a30       ??_C@_0CE@OKFDKAPE@SEI?3?5intensity_interval_lower_bo@ 005e9a30     sei.obj
 0003:00023a5c       ??_C@_0BN@NEGPOCIF@SEI?3?5num_model_values_minus1?$AA@ 005e9a5c     sei.obj
 0003:00023a80       ??_C@_0CE@BOFMAOBN@SEI?3?5num_intensity_intervals_min@ 005e9a80     sei.obj
 0003:00023aac       ??_C@_0BN@NEGHBHNC@SEI?3?5comp_model_present_flag?$AA@ 005e9aac     sei.obj
 0003:00023ad0       ??_C@_0BH@PDPGKCJC@SEI?3?5log2_scale_factor?$AA@ 005e9ad0     sei.obj
 0003:00023aec       ??_C@_0BG@GFNMOMNM@SEI?3?5blending_mode_id?$AA@ 005e9aec     sei.obj
 0003:00023b08       ??_C@_0CE@CIKJABFL@SEI?3?5film_grain_matrix_coefficie@ 005e9b08     sei.obj
 0003:00023b34       ??_C@_0CJ@NPNJBIFJ@SEI?3?5film_grain_transfer_charact@ 005e9b34     sei.obj
 0003:00023b68       ??_C@_0CB@MEODOKPP@SEI?3?5film_grain_colour_primaries@ 005e9b68     sei.obj
 0003:00023b90       ??_C@_0CA@MLOGBABE@SEI?3?5film_grain_full_range_flag?$AA@ 005e9b90     sei.obj
 0003:00023bb8       ??_C@_0CI@KMONMOAD@SEI?3?5film_grain_bit_depth_chroma@ 005e9bb8     sei.obj
 0003:00023be8       ??_C@_0CG@PHPDGPJN@SEI?3?5film_grain_bit_depth_luma_m@ 005e9be8     sei.obj
 0003:00023c18       ??_C@_0CO@PCPJKIAA@SEI?3?5separate_colour_description@ 005e9c18     sei.obj
 0003:00023c50       ??_C@_0O@PHMCCOKA@SEI?3?5model_id?$AA@ 005e9c50     sei.obj
 0003:00023c60       ??_C@_0CM@BEHCMCHA@SEI?3?5film_grain_characteristics_@ 005e9c60     sei.obj
 0003:00023c94       ??_C@_0DF@PAODHNCM@SEI?3?5deblocking_display_preferen@ 005e9c94     sei.obj
 0003:00023cd4       ??_C@_0CJ@POHKOOLE@SEI?3?5dec_frame_buffering_constra@ 005e9cd4     sei.obj
 0003:00023d08       ??_C@_0DA@HJDKLDP@SEI?3?5display_prior_to_deblocking@ 005e9d08     sei.obj
 0003:00023d44       ??_C@_0CP@BKAIHICP@SEI?3?5deblocking_display_preferen@ 005e9d44     sei.obj
 0003:00023d7c       ??_C@_0CE@OFDPOHDE@SEI?3?5right_view_self_contained_f@ 005e9d7c     sei.obj
 0003:00023da8       ??_C@_0CD@NMFLNCEB@SEI?3?5left_view_self_contained_fl@ 005e9da8     sei.obj
 0003:00023dd4       ??_C@_0CE@GECPNOFD@SEI?3?5next_frame_is_second_view_f@ 005e9dd4     sei.obj
 0003:00023e00       ??_C@_0CF@IJLEBFHO@SEI?3?5current_frame_is_left_view_@ 005e9e00     sei.obj
 0003:00023e2c       ??_C@_0CB@GPKGHIEA@SEI?3?5top_field_is_left_view_flag@ 005e9e2c     sei.obj
 0003:00023e54       ??_C@_0BH@EDMEEJFH@SEI?3?5field_views_flags?$AA@ 005e9e54     sei.obj
 0003:00023e70       ??_C@_0CG@FECIMEFC@SEI?3?5initial_cpb_removal_delay_o@ 005e9e70     sei.obj
 0003:00023ea0       ??_C@_0BP@NKGEEIFE@SEI?3?5initial_cpb_removal_delay?$AA@ 005e9ea0     sei.obj
 0003:00023ec8       ??_C@_0BK@GCOLEKCH@SEI?3?5seq_parameter_set_id?$AA@ 005e9ec8     sei.obj
 0003:00023ee8       ??_C@_0BB@HGHGGLPB@SEI?3?5time_offset?$AA@ 005e9ee8     sei.obj
 0003:00023efc       ??_C@_0BA@HLJIILMI@SEI?3?5hours_flag?$AA@ 005e9efc     sei.obj
 0003:00023f10       ??_C@_0BC@CFLMNBAD@SEI?3?5minutes_flag?$AA@ 005e9f10     sei.obj
 0003:00023f28       ??_C@_0BC@GAALKCLP@SEI?3?5seconds_flag?$AA@ 005e9f28     sei.obj
 0003:00023f40       ??_C@_0BB@JLMACEAC@SEI?3?5hours_value?$AA@ 005e9f40     sei.obj
 0003:00023f54       ??_C@_0BD@JHCIBLGA@SEI?3?5minutes_value?$AA@ 005e9f54     sei.obj
 0003:00023f6c       ??_C@_0BD@FFLKFDLE@SEI?3?5seconds_value?$AA@ 005e9f6c     sei.obj
 0003:00023f84       ??_C@_0N@PANDKAFL@SEI?3?5nframes?$AA@ 005e9f84     sei.obj
 0003:00023f94       ??_C@_0BG@LFPLDFIN@SEI?3?5cnt_dropped_flag?$AA@ 005e9f94     sei.obj
 0003:00023fb0       ??_C@_0BI@MOGHFAAK@SEI?3?5discontinuity_flag?$AA@ 005e9fb0     sei.obj
 0003:00023fcc       ??_C@_0BJ@NNDOJLFF@SEI?3?5full_timestamp_flag?$AA@ 005e9fcc     sei.obj
 0003:00023fec       ??_C@_0BD@HPKCIONB@SEI?3?5counting_type?$AA@ 005e9fec     sei.obj
 0003:00024004       ??_C@_0BL@JHPJJNMJ@SEI?3?5nuit_field_based_flag?$AA@ 005ea004     sei.obj
 0003:00024024       ??_C@_0N@FBKLCCPD@SEI?3?5ct_type?$AA@ 005ea024     sei.obj
 0003:00024034       ??_C@_0BK@KBAJILAL@SEI?3?5clock_timestamp_flag?$AA@ 005ea034     sei.obj
 0003:00024054       ??_C@_0DG@KDMOBHGH@reserved?5pic_struct?5used?5?$CIcan?8t?5@ 005ea054     sei.obj
 0003:00024094       ??_C@_0BA@GIGLNLCD@SEI?3?5pic_struct?$AA@ 005ea094     sei.obj
 0003:000240a8       ??_C@_0BG@IGGMOINO@SEI?3?5dpb_output_delay?$AA@ 005ea0a8     sei.obj
 0003:000240c4       ??_C@_0BH@DNJLNEKH@SEI?3?5cpb_removal_delay?$AA@ 005ea0c4     sei.obj
 0003:000240e0       ??_C@_0DF@PKAMIMML@Warning?3?5no?5active?5SPS?0?5timing?5S@ 005ea0e0     sei.obj
 0003:00024120       ??_C@_0CO@CGBIMII@SEI?3?5frame_packing_arrangement_e@ 005ea120     sei.obj
 0003:00024158       ??_C@_0DB@MHPICNON@SEI?3?5frame_packing_arrangement_r@ 005ea158     sei.obj
 0003:00024194       ??_C@_0CN@JBBMHCBJ@SEI?3?5frame_packing_arrangement_r@ 005ea194     sei.obj
 0003:000241cc       ??_C@_0BM@LDAPNDA@SEI?3?5frame1_grid_position_y?$AA@ 005ea1cc     sei.obj
 0003:000241f0       ??_C@_0BM@BCCLMMHB@SEI?3?5frame1_grid_position_x?$AA@ 005ea1f0     sei.obj
 0003:00024214       ??_C@_0BM@OEGCELNB@SEI?3?5frame0_grid_position_y?$AA@ 005ea214     sei.obj
 0003:00024238       ??_C@_0BM@PNHJHKJA@SEI?3?5frame0_grid_position_x?$AA@ 005ea238     sei.obj
 0003:0002425c       ??_C@_0CA@BMLLMIPK@SEI?3?5frame1_self_contained_flag?$AA@ 005ea25c     sei.obj
 0003:00024284       ??_C@_0CA@LJDKMDK@SEI?3?5frame0_self_contained_flag?$AA@ 005ea284     sei.obj
 0003:000242ac       ??_C@_0CC@GKLMKNDD@SEI?3?5current_frame_is_frame0_fla@ 005ea2ac     sei.obj
 0003:000242d4       ??_C@_0BG@GEKMBNOO@SEI?3?5field_views_flag?$AA@ 005ea2d4     sei.obj
 0003:000242f0       ??_C@_0BJ@DBCILGDI@SEI?3?5frame0_flipped_flag?$AA@ 005ea2f0     sei.obj
 0003:00024310       ??_C@_0BL@EIHMLBAC@SEI?3?5spatial_flipping_flag?$AA@ 005ea310     sei.obj
 0003:00024330       ??_C@_0CB@PJMCAOKG@SEI?3?5content_interpretation_type@ 005ea330     sei.obj
 0003:00024358       ??_C@_0BM@ENMOPIHP@SEI?3?5quincunx_sampling_flag?$AA@ 005ea358     sei.obj
 0003:0002437c       ??_C@_0CE@DDMDLEAO@SEI?3?5frame_packing_arrangement_t@ 005ea37c     sei.obj
 0003:000243a8       ??_C@_0CL@JGGJKCBL@SEI?3?5frame_packing_arrangement_c@ 005ea3a8     sei.obj
 0003:000243dc       ??_C@_0CC@KIBAONBJ@SEI?3?5frame_packing_arrangement_i@ 005ea3dc     sei.obj
 0003:00024408       __real@c018000000000000    005ea408     sei.obj
 0003:00024414       ??_C@_0BF@PLMMMCJB@SEI?3?5sei_pivot_value?$AA@ 005ea414     sei.obj
 0003:00024430       ??_C@_0BH@OMHPLDAD@SEI?3?5coded_pivot_value?$AA@ 005ea430     sei.obj
 0003:0002444c       ??_C@_0BA@HDBHLHML@SEI?3?5num_pivots?$AA@ 005ea44c     sei.obj
 0003:00024460       ??_C@_0BN@IAFDEHE@SEI?3?5start_of_coded_interval?$AA@ 005ea460     sei.obj
 0003:00024484       ??_C@_0BD@HGGNHIFL@SEI?3?5sigmoid_width?$AA@ 005ea484     sei.obj
 0003:0002449c       ??_C@_0BG@OLGHJLIE@SEI?3?5sigmoid_midpoint?$AA@ 005ea49c     sei.obj
 0003:000244b8       ??_C@_0P@LGAEHPBF@SEI?3?5min_value?$AA@ 005ea4b8     sei.obj
 0003:000244cc       ??_C@_0BD@GDGMAHAE@SEI?3?5sei_bit_depth?$AA@ 005ea4cc     sei.obj
 0003:000244e4       ??_C@_0BK@MCEOPBJG@SEI?3?5coded_data_bit_depth?$AA@ 005ea4e4     sei.obj
 0003:00024504       ??_C@_0CA@IAGGIHNJ@SEI?3?5tone_map_repetition_period?$AA@ 005ea504     sei.obj
 0003:0002452c       ??_C@_0BK@GFBNDEKO@SEI?3?5tone_map_cancel_flag?$AA@ 005ea52c     sei.obj
 0003:0002454c       ??_C@_0BB@LJPCKCLB@SEI?3?5tone_map_id?$AA@ 005ea54c     sei.obj
 0003:00024560       ??_C@_0BP@CINNLEIC@SEI?3?5additional_extension_flag?$AA@ 005ea560     sei.obj
 0003:00024588       ??_C@_0BB@HPJMCHDL@SEI?3?5filter_hint?$AA@ 005ea588     sei.obj
 0003:0002459c       ??_C@_0BG@BMHMNODE@SEI?3?5filter_hint_type?$AA@ 005ea59c     sei.obj
 0003:000245b8       ??_C@_0BI@NGIGKOJP@SEI?3?5filter_hint_size_x?$AA@ 005ea5b8     sei.obj
 0003:000245d4       ??_C@_0BI@MPJNJPNO@SEI?3?5filter_hint_size_y?$AA@ 005ea5d4     sei.obj
 0003:00026a14       ??_C@_0CN@FPBKCEBF@ERROR?3?5failed?5to?5find?5NumCoeff?1T@ 005eca14     vlc.obj
 0003:00026a4c       ??_C@_0DG@EMOOKGJN@ERROR?3?5failed?5to?5find?5NumCoeff?1T@ 005eca4c     vlc.obj
 0003:00026a8c       ??_C@_0CI@DFFMGLAC@ERROR?3?5failed?5to?5find?5Total?5Zero@ 005eca8c     vlc.obj
 0003:00026abc       ??_C@_0CD@DAHNEEBO@ERROR?3?5failed?5to?5find?5Total?5Zero@ 005ecabc     vlc.obj
 0003:00026ae8       ??_C@_0BL@HEONJAIP@ERROR?3?5failed?5to?5find?5Run?6?$AA@ 005ecae8     vlc.obj
 0003:00026da4       ?ProcessDetach@NativeDll@<CrtImplementationDetails>@@0IB 005ecda4     LIBCMTD:dbgmalloc.obj
 0003:00026da8       ?ProcessAttach@NativeDll@<CrtImplementationDetails>@@0IB 005ecda8     LIBCMTD:dbgmalloc.obj
 0003:00026dac       ?ThreadAttach@NativeDll@<CrtImplementationDetails>@@0IB 005ecdac     LIBCMTD:dbgmalloc.obj
 0003:00026db0       ?ThreadDetach@NativeDll@<CrtImplementationDetails>@@0IB 005ecdb0     LIBCMTD:dbgmalloc.obj
 0003:00026db4       ?ProcessVerifier@NativeDll@<CrtImplementationDetails>@@0IB 005ecdb4     LIBCMTD:dbgmalloc.obj
 0003:00026db8       ??_C@_1EC@FABAOFFO@?$AA?$CI?$AAc?$AAo?$AAu?$AAn?$AAt?$AA?5?$AA?$DN?$AA?$DN?$AA?5?$AA0?$AA?$CJ?$AA?5?$AA?$HM?$AA?$HM?$AA?5?$AA?$CI?$AAs?$AAt?$AAr?$AAi?$AAn?$AAg?$AA?5?$AA?$CB?$AA?$DN?$AA?5?$AAN?$AAU?$AAL?$AAL?$AA?$CJ@ 005ecdb8     LIBCMTD:snprintf.obj
 0003:00026e08       ??_C@_1BE@CHNFPLHD@?$AA_?$AAs?$AAn?$AAp?$AAr?$AAi?$AAn?$AAt?$AAf?$AA?$AA@ 005ece08     LIBCMTD:snprintf.obj
 0003:00026e20       ??_C@_1GC@BMNPEKNN@?$AAf?$AA?3?$AA?2?$AAd?$AAd?$AA?2?$AAv?$AAc?$AAt?$AAo?$AAo?$AAl?$AAs?$AA?2?$AAc?$AAr?$AAt?$AA_?$AAb?$AAl?$AAd?$AA?2?$AAs?$AAe?$AAl?$AAf?$AA_?$AAx?$AA8?$AA6?$AA?2?$AAc@ 005ece20     LIBCMTD:snprintf.obj
 0003:00026e98       ??_C@_1CC@MGIEJOME@?$AA?$CI?$AAf?$AAo?$AAr?$AAm?$AAa?$AAt?$AA?5?$AA?$CB?$AA?$DN?$AA?5?$AAN?$AAU?$AAL?$AAL?$AA?$CJ?$AA?$AA@ 005ece98     LIBCMTD:snprintf.obj
 0003:00026ec0       ??_C@_1O@GKDHFACN@?$AAp?$AAr?$AAi?$AAn?$AAt?$AAf?$AA?$AA@ 005ecec0     LIBCMTD:printf.obj
 0003:00026ed0       ??_C@_1GA@LHEGHOAF@?$AAf?$AA?3?$AA?2?$AAd?$AAd?$AA?2?$AAv?$AAc?$AAt?$AAo?$AAo?$AAl?$AAs?$AA?2?$AAc?$AAr?$AAt?$AA_?$AAb?$AAl?$AAd?$AA?2?$AAs?$AAe?$AAl?$AAf?$AA_?$AAx?$AA8?$AA6?$AA?2?$AAc@ 005eced0     LIBCMTD:printf.obj
 0003:00026f48       ??_C@_1JE@ECKHFIFP@?$AA?$CI?$AA?$CC?$AAI?$AAn?$AAv?$AAa?$AAl?$AAi?$AAd?$AA?5?$AAf?$AAi?$AAl?$AAe?$AA?5?$AAd?$AAe?$AAs?$AAc?$AAr?$AAi?$AAp?$AAt?$AAo?$AAr?$AA?4?$AA?5?$AAF?$AAi?$AAl?$AAe?$AA?5@ 005ecf48     LIBCMTD:read.obj
 0003:00026ffc       ??_C@_1CC@HBLPFNKH@?$AA?$CI?$AAc?$AAn?$AAt?$AA?5?$AA?$DM?$AA?$DN?$AA?5?$AAI?$AAN?$AAT?$AA_?$AAM?$AAA?$AAX?$AA?$CJ?$AA?$AA@ 005ecffc     LIBCMTD:read.obj
 0003:00027024       ??_C@_1CM@OKGMMMDH@?$AA?$CI?$AA_?$AAo?$AAs?$AAf?$AAi?$AAl?$AAe?$AA?$CI?$AAf?$AAh?$AA?$CJ?$AA?5?$AA?$CG?$AA?5?$AAF?$AAO?$AAP?$AAE?$AAN?$AA?$CJ?$AA?$AA@ 005ed024     LIBCMTD:read.obj
 0003:00027058       ??_C@_1M@NHJOLLDM@?$AA_?$AAr?$AAe?$AAa?$AAd?$AA?$AA@ 005ed058     LIBCMTD:read.obj
 0003:00027068       ??_C@_1FM@NGICBHLO@?$AAf?$AA?3?$AA?2?$AAd?$AAd?$AA?2?$AAv?$AAc?$AAt?$AAo?$AAo?$AAl?$AAs?$AA?2?$AAc?$AAr?$AAt?$AA_?$AAb?$AAl?$AAd?$AA?2?$AAs?$AAe?$AAl?$AAf?$AA_?$AAx?$AA8?$AA6?$AA?2?$AAc@ 005ed068     LIBCMTD:read.obj
 0003:000270d8       ??_C@_1FO@LPCLHKGE@?$AA?$CI?$AAf?$AAh?$AA?5?$AA?$DO?$AA?$DN?$AA?5?$AA0?$AA?5?$AA?$CG?$AA?$CG?$AA?5?$AA?$CI?$AAu?$AAn?$AAs?$AAi?$AAg?$AAn?$AAe?$AAd?$AA?$CJ?$AAf?$AAh?$AA?5?$AA?$DM?$AA?5?$AA?$CI?$AAu?$AAn?$AAs?$AAi@ 005ed0d8     LIBCMTD:read.obj
 0003:00027148       ??_C@_0CO@CEGKNHEH@f?3?2dd?2vctools?2crt_bld?2self_x86?2c@ 005ed148     LIBCMTD:read.obj
 0003:00027180       ??_C@_1CC@EEOLPHGO@?$AA?$CI?$AA?$CI?$AAc?$AAn?$AAt?$AA?5?$AA?$CG?$AA?5?$AA1?$AA?$CJ?$AA?5?$AA?$DN?$AA?$DN?$AA?5?$AA0?$AA?$CJ?$AA?$AA@ 005ed180     LIBCMTD:read.obj
 0003:000271a8       ??_C@_1CG@OHLJHGGK@?$AA?$CI?$AAi?$AAn?$AAp?$AAu?$AAt?$AAb?$AAu?$AAf?$AA?5?$AA?$CB?$AA?$DN?$AA?5?$AAN?$AAU?$AAL?$AAL?$AA?$CJ?$AA?$AA@ 005ed1a8     LIBCMTD:read.obj
 0003:000271d8       ??_C@_1BK@JJBHNDKJ@?$AA_?$AAr?$AAe?$AAa?$AAd?$AA_?$AAn?$AAo?$AAl?$AAo?$AAc?$AAk?$AA?$AA@ 005ed1d8     LIBCMTD:read.obj
 0003:000271f8       ??_C@_1M@MFLJCMFJ@?$AA_?$AAo?$AAp?$AAe?$AAn?$AA?$AA@ 005ed1f8     LIBCMTD:open.obj
 0003:00027208       ??_C@_1FM@LFKHNNH@?$AAf?$AA?3?$AA?2?$AAd?$AAd?$AA?2?$AAv?$AAc?$AAt?$AAo?$AAo?$AAl?$AAs?$AA?2?$AAc?$AAr?$AAt?$AA_?$AAb?$AAl?$AAd?$AA?2?$AAs?$AAe?$AAl?$AAf?$AA_?$AAx?$AA8?$AA6?$AA?2?$AAc@ 005ed208     LIBCMTD:open.obj
 0003:00027278       ??_C@_1BO@DPAOGEII@?$AA?$CI?$AAp?$AAa?$AAt?$AAh?$AA?5?$AA?$CB?$AA?$DN?$AA?5?$AAN?$AAU?$AAL?$AAL?$AA?$CJ?$AA?$AA@ 005ed278     LIBCMTD:open.obj
 0003:000272a0       ??_C@_1FG@NFINBJCM@?$AA?$CI?$AA?$CI?$AAp?$AAm?$AAo?$AAd?$AAe?$AA?5?$AA?$CG?$AA?5?$AA?$CI?$AA?$HO?$AA?$CI?$AA_?$AAS?$AA_?$AAI?$AAR?$AAE?$AAA?$AAD?$AA?5?$AA?$HM?$AA?5?$AA_?$AAS?$AA_?$AAI?$AAW?$AAR?$AAI?$AAT@ 005ed2a0     LIBCMTD:open.obj
 0003:00027308       ??_C@_1BM@IOBAMMHO@?$AA_?$AAs?$AAo?$AAp?$AAe?$AAn?$AA_?$AAh?$AAe?$AAl?$AAp?$AAe?$AAr?$AA?$AA@ 005ed308     LIBCMTD:open.obj
 0003:0002732c       ??_C@_1BM@PGEEHLHE@?$AA?$CI?$AAp?$AAf?$AAh?$AA?5?$AA?$CB?$AA?$DN?$AA?5?$AAN?$AAU?$AAL?$AAL?$AA?$CJ?$AA?$AA@ 005ed32c     LIBCMTD:open.obj
 0003:00027350       ??_C@_1IA@IENOJNJF@?$AA0?$AA?5?$AA?$CG?$AA?$CG?$AA?5?$AA?$CC?$AAO?$AAn?$AAl?$AAy?$AA?5?$AAU?$AAT?$AAF?$AA?9?$AA1?$AA6?$AA?5?$AAl?$AAi?$AAt?$AAt?$AAl?$AAe?$AA?5?$AAe?$AAn?$AAd?$AAi?$AAa?$AAn?$AA?5@ 005ed350     LIBCMTD:open.obj
 0003:000273ec       ??_C@_1CM@IDLMKMPG@?$AA0?$AA?5?$AA?$CG?$AA?$CG?$AA?5?$AA?$CC?$AAI?$AAn?$AAt?$AAe?$AAr?$AAn?$AAa?$AAl?$AA?5?$AAE?$AAr?$AAr?$AAo?$AAr?$AA?$CC?$AA?$AA@ 005ed3ec     LIBCMTD:open.obj
 0003:00027420       ??_C@_1HM@GJANBLHJ@?$AA?$CI?$AAo?$AAf?$AAl?$AAa?$AAg?$AA?5?$AA?$CG?$AA?5?$AA?$CI?$AA_?$AAO?$AA_?$AAT?$AAE?$AAX?$AAT?$AA?5?$AA?$HM?$AA?5?$AA_?$AAO?$AA_?$AAW?$AAT?$AAE?$AAX?$AAT?$AA?5?$AA?$HM?$AA?5?$AA_@ 005ed420     LIBCMTD:open.obj
 0003:000274b4       ??_C@_1DO@PJLMOANO@?$AA?$CI?$AA?5?$AA?$CC?$AAI?$AAn?$AAv?$AAa?$AAl?$AAi?$AAd?$AA?5?$AAs?$AAh?$AAa?$AAr?$AAi?$AAn?$AAg?$AA?5?$AAf?$AAl?$AAa?$AAg?$AA?$CC?$AA?5?$AA?0?$AA?5?$AA0?$AA?5?$AA?$CJ?$AA?$AA@ 005ed4b4     LIBCMTD:open.obj
 0003:00027500       ??_C@_1DI@DGKIFCCE@?$AA?$CI?$AA?5?$AA?$CC?$AAI?$AAn?$AAv?$AAa?$AAl?$AAi?$AAd?$AA?5?$AAo?$AAp?$AAe?$AAn?$AA?5?$AAf?$AAl?$AAa?$AAg?$AA?$CC?$AA?5?$AA?0?$AA?5?$AA0?$AA?5?$AA?$CJ?$AA?$AA@ 005ed500     LIBCMTD:open.obj
 0003:00027544       ??_C@_1CG@ICBEBDJJ@?$AA_?$AAg?$AAe?$AAt?$AA_?$AAf?$AAm?$AAo?$AAd?$AAe?$AA?$CI?$AA?$CG?$AAf?$AAm?$AAo?$AAd?$AAe?$AA?$CJ?$AA?$AA@ 005ed544     LIBCMTD:open.obj
 0003:00027574       ??_C@_1BO@JOPFMPGH@?$AA_?$AAt?$AAs?$AAo?$AAp?$AAe?$AAn?$AA_?$AAn?$AAo?$AAl?$AAo?$AAc?$AAk?$AA?$AA@ 005ed574     LIBCMTD:open.obj
 0003:00027598       ??_C@_1O@EDEJGJBM@?$AA_?$AAc?$AAl?$AAo?$AAs?$AAe?$AA?$AA@ 005ed598     LIBCMTD:close.obj
 0003:000275a8       ??_C@_1FO@NNGNFGFH@?$AAf?$AA?3?$AA?2?$AAd?$AAd?$AA?2?$AAv?$AAc?$AAt?$AAo?$AAo?$AAl?$AAs?$AA?2?$AAc?$AAr?$AAt?$AA_?$AAb?$AAl?$AAd?$AA?2?$AAs?$AAe?$AAl?$AAf?$AA_?$AAx?$AA8?$AA6?$AA?2?$AAc@ 005ed5a8     LIBCMTD:close.obj
 0003:00027618       __FPinit                   005ed618     LIBCMTD:_fpinit_.obj
 0003:0002761c       __FPmtinit                 005ed61c     LIBCMTD:_fpinit_.obj
 0003:00027620       __FPmtterm                 005ed620     LIBCMTD:_fpinit_.obj
 0003:00027628       ??_C@_1O@EGMJNCOI@?$AAf?$AAc?$AAl?$AAo?$AAs?$AAe?$AA?$AA@ 005ed628     LIBCMTD:fclose.obj
 0003:00027638       ??_C@_1GA@KMIDAPAP@?$AAf?$AA?3?$AA?2?$AAd?$AAd?$AA?2?$AAv?$AAc?$AAt?$AAo?$AAo?$AAl?$AAs?$AA?2?$AAc?$AAr?$AAt?$AA_?$AAb?$AAl?$AAd?$AA?2?$AAs?$AAe?$AAl?$AAf?$AA_?$AAx?$AA8?$AA6?$AA?2?$AAc@ 005ed638     LIBCMTD:fclose.obj
 0003:000276ac       ??_C@_1CC@FADMNIL@?$AA?$CI?$AAs?$AAt?$AAr?$AAe?$AAa?$AAm?$AA?5?$AA?$CB?$AA?$DN?$AA?5?$AAN?$AAU?$AAL?$AAL?$AA?$CJ?$AA?$AA@ 005ed6ac     LIBCMTD:fclose.obj
 0003:000276d4       ??_C@_1BO@JINCABEC@?$AA_?$AAf?$AAc?$AAl?$AAo?$AAs?$AAe?$AA_?$AAn?$AAo?$AAl?$AAo?$AAc?$AAk?$AA?$AA@ 005ed6d4     LIBCMTD:fclose.obj
 0003:000276f8       ??_C@_1BM@JMKHIAHP@?$AA?$CI?$AAs?$AAt?$AAr?$AA?5?$AA?$CB?$AA?$DN?$AA?5?$AAN?$AAU?$AAL?$AAL?$AA?$CJ?$AA?$AA@ 005ed6f8     LIBCMTD:fclose.obj
 0003:0002771c       ??_C@_1BA@CMLCEIGG@?$AAf?$AAr?$AAe?$AAa?$AAd?$AA_?$AAs?$AA?$AA@ 005ed71c     LIBCMTD:fread.obj
 0003:00027730       ??_C@_1FO@PNLFLIH@?$AAf?$AA?3?$AA?2?$AAd?$AAd?$AA?2?$AAv?$AAc?$AAt?$AAo?$AAo?$AAl?$AAs?$AA?2?$AAc?$AAr?$AAt?$AA_?$AAb?$AAl?$AAd?$AA?2?$AAs?$AAe?$AAl?$AAf?$AA_?$AAx?$AA8?$AA6?$AA?2?$AAc@ 005ed730     LIBCMTD:fread.obj
 0003:000277a0       ??_C@_1DA@DKEFLDMG@?$AA?$CI?$AA?$CC?$AAb?$AAu?$AAf?$AAf?$AAe?$AAr?$AA?5?$AAt?$AAo?$AAo?$AA?5?$AAs?$AAm?$AAa?$AAl?$AAl?$AA?$CC?$AA?0?$AA?5?$AA0?$AA?$CJ?$AA?$AA@ 005ed7a0     LIBCMTD:fread.obj
 0003:000277e0       ??_C@_1LG@DCNDJCHK@?$AA?$CI?$AA?$CC?$AAI?$AAn?$AAc?$AAo?$AAn?$AAs?$AAi?$AAs?$AAt?$AAe?$AAn?$AAt?$AA?5?$AAS?$AAt?$AAr?$AAe?$AAa?$AAm?$AA?5?$AAC?$AAo?$AAu?$AAn?$AAt?$AA?4?$AA?5?$AAF?$AAl?$AAu@ 005ed7e0     LIBCMTD:fread.obj
 0003:000278c0       ??_C@_1EA@FAMECDND@?$AAn?$AAu?$AAm?$AA?5?$AA?$DM?$AA?$DN?$AA?5?$AA?$CI?$AAS?$AAI?$AAZ?$AAE?$AA_?$AAM?$AAA?$AAX?$AA?5?$AA?1?$AA?5?$AAe?$AAl?$AAe?$AAm?$AAe?$AAn?$AAt?$AAS?$AAi?$AAz?$AAe?$AA?$CJ?$AA?$AA@ 005ed8c0     LIBCMTD:fread.obj
 0003:0002790c       ??_C@_1CA@IDPOGFL@?$AA_?$AAf?$AAr?$AAe?$AAa?$AAd?$AA_?$AAn?$AAo?$AAl?$AAo?$AAc?$AAk?$AA_?$AAs?$AA?$AA@ 005ed90c     LIBCMTD:fread.obj
 0003:00027934       ??_C@_1CC@CGFEEBMC@?$AA?$CI?$AAb?$AAu?$AAf?$AAf?$AAe?$AAr?$AA?5?$AA?$CB?$AA?$DN?$AA?5?$AAN?$AAU?$AAL?$AAL?$AA?$CJ?$AA?$AA@ 005ed934     LIBCMTD:fread.obj
 0003:0002795c       ??_C@_1M@CKCKPMNP@?$AAf?$AAt?$AAe?$AAl?$AAl?$AA?$AA@ 005ed95c     LIBCMTD:ftell.obj
 0003:00027970       ??_C@_1FO@NBACIADE@?$AAf?$AA?3?$AA?2?$AAd?$AAd?$AA?2?$AAv?$AAc?$AAt?$AAo?$AAo?$AAl?$AAs?$AA?2?$AAc?$AAr?$AAt?$AA_?$AAb?$AAl?$AAd?$AA?2?$AAs?$AAe?$AAl?$AAf?$AA_?$AAx?$AA8?$AA6?$AA?2?$AAc@ 005ed970     LIBCMTD:ftell.obj
 0003:000279e0       ??_C@_1BM@EPIDANEK@?$AA_?$AAf?$AAt?$AAe?$AAl?$AAl?$AA_?$AAn?$AAo?$AAl?$AAo?$AAc?$AAk?$AA?$AA@ 005ed9e0     LIBCMTD:ftell.obj
 0003:00027a08       ??_C@_1IO@PMHBOLJK@?$AA?$CI?$AA?$CI?$AAw?$AAh?$AAe?$AAn?$AAc?$AAe?$AA?5?$AA?$DN?$AA?$DN?$AA?5?$AAS?$AAE?$AAE?$AAK?$AA_?$AAS?$AAE?$AAT?$AA?$CJ?$AA?5?$AA?$HM?$AA?$HM?$AA?5?$AA?$CI?$AAw?$AAh?$AAe?$AAn?$AAc?$AAe@ 005eda08     LIBCMTD:fseek.obj
 0003:00027ab4       ??_C@_1M@HCCOIONH@?$AAf?$AAs?$AAe?$AAe?$AAk?$AA?$AA@ 005edab4     LIBCMTD:fseek.obj
 0003:00027ac8       ??_C@_1FO@ECBPAICH@?$AAf?$AA?3?$AA?2?$AAd?$AAd?$AA?2?$AAv?$AAc?$AAt?$AAo?$AAo?$AAl?$AAs?$AA?2?$AAc?$AAr?$AAt?$AA_?$AAb?$AAl?$AAd?$AA?2?$AAs?$AAe?$AAl?$AAf?$AA_?$AAx?$AA8?$AA6?$AA?2?$AAc@ 005edac8     LIBCMTD:fseek.obj
 0003:00027b38       ??_C@_1CI@HBNALCBB@?$AA?$CI?$AA?$CK?$AAm?$AAo?$AAd?$AAe?$AA?5?$AA?$CB?$AA?$DN?$AA?5?$AA_?$AAT?$AA?$CI?$AA?8?$AA?2?$AA0?$AA?8?$AA?$CJ?$AA?$CJ?$AA?$AA@ 005edb38     LIBCMTD:fopen.obj
 0003:00027b68       ??_C@_1BO@MJMKAKCJ@?$AA?$CI?$AAm?$AAo?$AAd?$AAe?$AA?5?$AA?$CB?$AA?$DN?$AA?5?$AAN?$AAU?$AAL?$AAL?$AA?$CJ?$AA?$AA@ 005edb68     LIBCMTD:fopen.obj
 0003:00027b8c       ??_C@_1BA@HNEAFMNL@?$AA_?$AAf?$AAs?$AAo?$AAp?$AAe?$AAn?$AA?$AA@ 005edb8c     LIBCMTD:fopen.obj
 0003:00027ba0       ??_C@_1FO@NCADDBOO@?$AAf?$AA?3?$AA?2?$AAd?$AAd?$AA?2?$AAv?$AAc?$AAt?$AAo?$AAo?$AAl?$AAs?$AA?2?$AAc?$AAr?$AAt?$AA_?$AAb?$AAl?$AAd?$AA?2?$AAs?$AAe?$AAl?$AAf?$AA_?$AAx?$AA8?$AA6?$AA?2?$AAc@ 005edba0     LIBCMTD:fopen.obj
 0003:00027c10       ??_C@_1BO@CLGIAEOJ@?$AA?$CI?$AAf?$AAi?$AAl?$AAe?$AA?5?$AA?$CB?$AA?$DN?$AA?5?$AAN?$AAU?$AAL?$AAL?$AA?$CJ?$AA?$AA@ 005edc10     LIBCMTD:fopen.obj
 0003:00027c34       ??_C@_1BA@PBGKCCAP@?$AAf?$AAo?$AAp?$AAe?$AAn?$AA_?$AAs?$AA?$AA@ 005edc34     LIBCMTD:fopen.obj
 0003:00027c48       ??_C@_1CA@LLJLFCDN@?$AA?$CI?$AAp?$AAf?$AAi?$AAl?$AAe?$AA?5?$AA?$CB?$AA?$DN?$AA?5?$AAN?$AAU?$AAL?$AAL?$AA?$CJ?$AA?$AA@ 005edc48     LIBCMTD:fopen.obj
 0003:00027c70       ??_C@_1BC@KMGJCMNP@?$AAv?$AAs?$AAc?$AAa?$AAn?$AA_?$AAf?$AAn?$AA?$AA@ 005edc70     LIBCMTD:sscanf.obj
 0003:00027c88       ??_C@_1GA@GDIHGGDN@?$AAf?$AA?3?$AA?2?$AAd?$AAd?$AA?2?$AAv?$AAc?$AAt?$AAo?$AAo?$AAl?$AAs?$AA?2?$AAc?$AAr?$AAt?$AA_?$AAb?$AAl?$AAd?$AA?2?$AAs?$AAe?$AAl?$AAf?$AA_?$AAx?$AA8?$AA6?$AA?2?$AAc@ 005edc88     LIBCMTD:sscanf.obj
 0003:00027cfc       ??_C@_1CC@OLIJCKA@?$AA?$CI?$AAs?$AAt?$AAr?$AAi?$AAn?$AAg?$AA?5?$AA?$CB?$AA?$DN?$AA?5?$AAN?$AAU?$AAL?$AAL?$AA?$CJ?$AA?$AA@ 005edcfc     LIBCMTD:sscanf.obj
 0003:00027d24       ??_C@_0P@MIGLKIOC@CorExitProcess?$AA@ 005edd24     LIBCMTD:crt0dat.obj
 0003:00027d38       ??_C@_1BI@BGOHAHKC@?$AAm?$AAs?$AAc?$AAo?$AAr?$AAe?$AAe?$AA?4?$AAd?$AAl?$AAl?$AA?$AA@ 005edd38     LIBCMTD:crt0dat.obj
 0003:00027d54       ??_C@_1CC@CDIPMFPD@?$AA_?$AAw?$AAp?$AAg?$AAm?$AAp?$AAt?$AAr?$AA?5?$AA?$CB?$AA?$DN?$AA?5?$AAN?$AAU?$AAL?$AAL?$AA?$AA@ 005edd54     LIBCMTD:crt0dat.obj
 0003:00027d7c       ??_C@_1BK@PNLDCCDP@?$AA_?$AAg?$AAe?$AAt?$AA_?$AAw?$AAp?$AAg?$AAm?$AAp?$AAt?$AAr?$AA?$AA@ 005edd7c     LIBCMTD:crt0dat.obj
 0003:00027da0       ??_C@_1GC@DGCPEDNJ@?$AAf?$AA?3?$AA?2?$AAd?$AAd?$AA?2?$AAv?$AAc?$AAt?$AAo?$AAo?$AAl?$AAs?$AA?2?$AAc?$AAr?$AAt?$AA_?$AAb?$AAl?$AAd?$AA?2?$AAs?$AAe?$AAl?$AAf?$AA_?$AAx?$AA8?$AA6?$AA?2?$AAc@ 005edda0     LIBCMTD:crt0dat.obj
 0003:00027e18       ??_C@_1BO@LKEBEKJP@?$AAp?$AAV?$AAa?$AAl?$AAu?$AAe?$AA?5?$AA?$CB?$AA?$DN?$AA?5?$AAN?$AAU?$AAL?$AAL?$AA?$AA@ 005ede18     LIBCMTD:crt0dat.obj
 0003:00027e3c       ??_C@_1CA@BBNAFCKO@?$AA_?$AAp?$AAg?$AAm?$AAp?$AAt?$AAr?$AA?5?$AA?$CB?$AA?$DN?$AA?5?$AAN?$AAU?$AAL?$AAL?$AA?$AA@ 005ede3c     LIBCMTD:crt0dat.obj
 0003:00027e64       ??_C@_1BI@COAAPHJK@?$AA_?$AAg?$AAe?$AAt?$AA_?$AAp?$AAg?$AAm?$AAp?$AAt?$AAr?$AA?$AA@ 005ede64     LIBCMTD:crt0dat.obj
 0003:00027e80       ??_C@_1BAA@ODEGEDCK@?$AA?$CI?$AA?5?$AA?$CI?$AA_?$AAS?$AAt?$AAr?$AAe?$AAa?$AAm?$AA?9?$AA?$DO?$AA_?$AAf?$AAl?$AAa?$AAg?$AA?5?$AA?$CG?$AA?5?$AA_?$AAI?$AAO?$AAS?$AAT?$AAR?$AAG?$AA?$CJ?$AA?5?$AA?$HM?$AA?$HM?$AA?5@ 005ede80     LIBCMTD:fprintf.obj
 0003:00027fb4       ??_C@_1BA@DNOHIGNM@?$AAf?$AAp?$AAr?$AAi?$AAn?$AAt?$AAf?$AA?$AA@ 005edfb4     LIBCMTD:fprintf.obj
 0003:00027fc8       ??_C@_1GC@NHJDDBOH@?$AAf?$AA?3?$AA?2?$AAd?$AAd?$AA?2?$AAv?$AAc?$AAt?$AAo?$AAo?$AAl?$AAs?$AA?2?$AAc?$AAr?$AAt?$AA_?$AAb?$AAl?$AAd?$AA?2?$AAs?$AAe?$AAl?$AAf?$AA_?$AAx?$AA8?$AA6?$AA?2?$AAc@ 005edfc8     LIBCMTD:fprintf.obj
 0003:00028040       ??_C@_0CP@BNKDODJJ@f?3?2dd?2vctools?2crt_bld?2self_x86?2c@ 005ee040     LIBCMTD:_file.obj
 0003:00028078       ??_C@_1O@KOFKDHPL@?$AA_?$AAw?$AAr?$AAi?$AAt?$AAe?$AA?$AA@ 005ee078     LIBCMTD:write.obj
 0003:00028088       ??_C@_1FO@EPLDPDDL@?$AAf?$AA?3?$AA?2?$AAd?$AAd?$AA?2?$AAv?$AAc?$AAt?$AAo?$AAo?$AAl?$AAs?$AA?2?$AAc?$AAr?$AAt?$AA_?$AAb?$AAl?$AAd?$AA?2?$AAs?$AAe?$AAl?$AAf?$AA_?$AAx?$AA8?$AA6?$AA?2?$AAc@ 005ee088     LIBCMTD:write.obj
 0003:000280f8       ??_C@_1DI@CNMHHHLG@?$AAi?$AAs?$AAl?$AAe?$AAa?$AAd?$AAb?$AAy?$AAt?$AAe?$AA?$CI?$AA_?$AAd?$AAb?$AAc?$AAs?$AAB?$AAu?$AAf?$AAf?$AAe?$AAr?$AA?$CI?$AAf?$AAh?$AA?$CJ?$AA?$CJ?$AA?$AA@ 005ee0f8     LIBCMTD:write.obj
 0003:0002813c       ??_C@_1BM@NCANHCIP@?$AA_?$AAw?$AAr?$AAi?$AAt?$AAe?$AA_?$AAn?$AAo?$AAl?$AAo?$AAc?$AAk?$AA?$AA@ 005ee13c     LIBCMTD:write.obj
 0003:00028160       ??_C@_1BM@KFJLMBPG@?$AA?$CI?$AAb?$AAu?$AAf?$AA?5?$AA?$CB?$AA?$DN?$AA?5?$AAN?$AAU?$AAL?$AAL?$AA?$CJ?$AA?$AA@ 005ee160     LIBCMTD:write.obj
 0003:00028184       ??_C@_15IABLJNFO@?$AA?6?$AA?6?$AA?$AA@ 005ee184     LIBCMTD:wassert.obj
 0003:0002818c       ??_C@_13LBAGMAIH@?$AA?6?$AA?$AA@ 005ee18c     LIBCMTD:wassert.obj
 0003:00028190       ??_C@_17LGKOMLJ@?$AA?4?$AA?4?$AA?4?$AA?$AA@ 005ee190     LIBCMTD:wassert.obj
 0003:000281a0       ??_C@_1EK@MBDPDCGA@?$AAM?$AAi?$AAc?$AAr?$AAo?$AAs?$AAo?$AAf?$AAt?$AA?5?$AAV?$AAi?$AAs?$AAu?$AAa?$AAl?$AA?5?$AAC?$AA?$CL?$AA?$CL?$AA?5?$AAR?$AAu?$AAn?$AAt?$AAi?$AAm?$AAe?$AA?5?$AAL?$AAi?$AAb@ 005ee1a0     LIBCMTD:wassert.obj
 0003:000281f8       ??_C@_1HK@POCJMFGK@?$AA?$CI?$AAP?$AAr?$AAe?$AAs?$AAs?$AA?5?$AAR?$AAe?$AAt?$AAr?$AAy?$AA?5?$AAt?$AAo?$AA?5?$AAd?$AAe?$AAb?$AAu?$AAg?$AA?5?$AAt?$AAh?$AAe?$AA?5?$AAa?$AAp?$AAp?$AAl?$AAi?$AAc@ 005ee1f8     LIBCMTD:wassert.obj
 0003:00028290       ??_C@_1LO@HBAMOOPN@?$AAw?$AAc?$AAs?$AAc?$AAa?$AAt?$AA_?$AAs?$AA?$CI?$AAa?$AAs?$AAs?$AAe?$AAr?$AAt?$AAb?$AAu?$AAf?$AA?0?$AA?5?$AA?$CI?$AA6?$AA0?$AA?5?$AA?$CK?$AA?5?$AA9?$AA?$CJ?$AA?0?$AA?5?$AAL?$AA?$CC@ 005ee290     LIBCMTD:wassert.obj
 0003:00028378       ??_C@_1FG@GMPCGFKH@?$AAw?$AAc?$AAs?$AAc?$AAa?$AAt?$AA_?$AAs?$AA?$CI?$AAa?$AAs?$AAs?$AAe?$AAr?$AAt?$AAb?$AAu?$AAf?$AA?0?$AA?5?$AA?$CI?$AA6?$AA0?$AA?5?$AA?$CK?$AA?5?$AA9?$AA?$CJ?$AA?0?$AA?5?$AAd?$AAb@ 005ee378     LIBCMTD:wassert.obj
 0003:000283e0       ??_C@_1OA@EGMLFBHJ@?$AAF?$AAo?$AAr?$AA?5?$AAi?$AAn?$AAf?$AAo?$AAr?$AAm?$AAa?$AAt?$AAi?$AAo?$AAn?$AA?5?$AAo?$AAn?$AA?5?$AAh?$AAo?$AAw?$AA?5?$AAy?$AAo?$AAu?$AAr?$AA?5?$AAp?$AAr?$AAo?$AAg@ 005ee3e0     LIBCMTD:wassert.obj
 0003:000284f0       ??_C@_1BCO@FMFFDPPF@?$AAw?$AAc?$AAs?$AAc?$AAa?$AAt?$AA_?$AAs?$AA?$CI?$AAa?$AAs?$AAs?$AAe?$AAr?$AAt?$AAb?$AAu?$AAf?$AA?0?$AA?5?$AA?$CI?$AA6?$AA0?$AA?5?$AA?$CK?$AA?5?$AA9?$AA?$CJ?$AA?0?$AA?5?$AAL?$AA?$CC@ 005ee4f0     LIBCMTD:wassert.obj
 0003:00028660       ??_C@_1EM@MBEKCGIC@?$AAw?$AAc?$AAs?$AAc?$AAa?$AAt?$AA_?$AAs?$AA?$CI?$AA?5?$AAa?$AAs?$AAs?$AAe?$AAr?$AAt?$AAb?$AAu?$AAf?$AA?0?$AA?5?$AA?$CI?$AA6?$AA0?$AA?5?$AA?$CK?$AA?5?$AA9?$AA?$CJ?$AA?0?$AA?5?$AAe@ 005ee660     LIBCMTD:wassert.obj
 0003:000286c0       ??_C@_1CHM@CEIMNDLH@?$AAw?$AAc?$AAs?$AAn?$AAc?$AAa?$AAt?$AA_?$AAs?$AA?$CI?$AA?5?$AAa?$AAs?$AAs?$AAe?$AAr?$AAt?$AAb?$AAu?$AAf?$AA?0?$AA?5?$AA?$CI?$AA6?$AA0?$AA?5?$AA?$CK?$AA?5?$AA9?$AA?$CJ?$AA?0?$AA?5@ 005ee6c0     LIBCMTD:wassert.obj
 0003:000289bc       ??_C@_1BK@PEDCIPMA@?$AAE?$AAx?$AAp?$AAr?$AAe?$AAs?$AAs?$AAi?$AAo?$AAn?$AA?3?$AA?5?$AA?$AA@ 005ee9bc     LIBCMTD:wassert.obj
 0003:000289e0       ??_C@_1GC@HOBBPFHJ@?$AAw?$AAc?$AAs?$AAc?$AAa?$AAt?$AA_?$AAs?$AA?$CI?$AA?5?$AAa?$AAs?$AAs?$AAe?$AAr?$AAt?$AAb?$AAu?$AAf?$AA?0?$AA?5?$AA?$CI?$AA6?$AA0?$AA?5?$AA?$CK?$AA?5?$AA9?$AA?$CJ?$AA?0?$AA?5?$AAL@ 005ee9e0     LIBCMTD:wassert.obj
 0003:00028a58       ??_C@_1KG@CFEIMPNH@?$AA_?$AAi?$AAt?$AAo?$AAw?$AA_?$AAs?$AA?$CI?$AA?5?$AAl?$AAi?$AAn?$AAe?$AAn?$AAo?$AA?0?$AA?5?$AAa?$AAs?$AAs?$AAe?$AAr?$AAt?$AAb?$AAu?$AAf?$AA?5?$AA?$CL?$AA?5?$AAw?$AAc?$AAs@ 005eea58     LIBCMTD:wassert.obj
 0003:00028b20       ??_C@_1O@KCAFKHJE@?$AAL?$AAi?$AAn?$AAe?$AA?3?$AA?5?$AA?$AA@ 005eeb20     LIBCMTD:wassert.obj
 0003:00028b30       ??_C@_1FG@NHDGJLMI@?$AAw?$AAc?$AAs?$AAc?$AAa?$AAt?$AA_?$AAs?$AA?$CI?$AA?5?$AAa?$AAs?$AAs?$AAe?$AAr?$AAt?$AAb?$AAu?$AAf?$AA?0?$AA?5?$AA?$CI?$AA6?$AA0?$AA?5?$AA?$CK?$AA?5?$AA9?$AA?$CJ?$AA?0?$AA?5?$AAL@ 005eeb30     LIBCMTD:wassert.obj
 0003:00028b98       ??_C@_1FE@IIFBBPFI@?$AAw?$AAc?$AAs?$AAc?$AAa?$AAt?$AA_?$AAs?$AA?$CI?$AA?5?$AAa?$AAs?$AAs?$AAe?$AAr?$AAt?$AAb?$AAu?$AAf?$AA?0?$AA?5?$AA?$CI?$AA6?$AA0?$AA?5?$AA?$CK?$AA?5?$AA9?$AA?$CJ?$AA?0?$AA?5?$AAf@ 005eeb98     LIBCMTD:wassert.obj
 0003:00028c00       ??_C@_1IC@CFFJBMAD@?$AAw?$AAc?$AAs?$AAc?$AAa?$AAt?$AA_?$AAs?$AA?$CI?$AA?5?$AAa?$AAs?$AAs?$AAe?$AAr?$AAt?$AAb?$AAu?$AAf?$AA?0?$AA?5?$AA?$CI?$AA6?$AA0?$AA?5?$AA?$CK?$AA?5?$AA9?$AA?$CJ?$AA?0?$AA?5?$AAp@ 005eec00     LIBCMTD:wassert.obj
 0003:00028ca0       ??_C@_1HG@OJJMBIKO@?$AAw?$AAc?$AAs?$AAn?$AAc?$AAa?$AAt?$AA_?$AAs?$AA?$CI?$AA?5?$AAa?$AAs?$AAs?$AAe?$AAr?$AAt?$AAb?$AAu?$AAf?$AA?0?$AA?5?$AA?$CI?$AA6?$AA0?$AA?5?$AA?$CK?$AA?5?$AA9?$AA?$CJ?$AA?0?$AA?5@ 005eeca0     LIBCMTD:wassert.obj
 0003:00028d30       ??_C@_1GO@BIHLMMND@?$AAw?$AAc?$AAs?$AAn?$AAc?$AAa?$AAt?$AA_?$AAs?$AA?$CI?$AA?5?$AAa?$AAs?$AAs?$AAe?$AAr?$AAt?$AAb?$AAu?$AAf?$AA?0?$AA?5?$AA?$CI?$AA6?$AA0?$AA?5?$AA?$CK?$AA?5?$AA9?$AA?$CJ?$AA?0?$AA?5@ 005eed30     LIBCMTD:wassert.obj
 0003:00028db8       ??_C@_1FO@IJLLDBEB@?$AAw?$AAc?$AAs?$AAc?$AAa?$AAt?$AA_?$AAs?$AA?$CI?$AA?5?$AAa?$AAs?$AAs?$AAe?$AAr?$AAt?$AAb?$AAu?$AAf?$AA?0?$AA?5?$AA?$CI?$AA6?$AA0?$AA?5?$AA?$CK?$AA?5?$AA9?$AA?$CJ?$AA?0?$AA?5?$AAp@ 005eedb8     LIBCMTD:wassert.obj
 0003:00028e28       ??_C@_1FG@CLEECKIJ@?$AAw?$AAc?$AAs?$AAc?$AAa?$AAt?$AA_?$AAs?$AA?$CI?$AA?5?$AAa?$AAs?$AAs?$AAe?$AAr?$AAt?$AAb?$AAu?$AAf?$AA?0?$AA?5?$AA?$CI?$AA6?$AA0?$AA?5?$AA?$CK?$AA?5?$AA9?$AA?$CJ?$AA?0?$AA?5?$AAd@ 005eee28     LIBCMTD:wassert.obj
 0003:00028e90       ??_C@_1GG@PMHOPJKA@?$AAw?$AAc?$AAs?$AAn?$AAc?$AAa?$AAt?$AA_?$AAs?$AA?$CI?$AA?5?$AAa?$AAs?$AAs?$AAe?$AAr?$AAt?$AAb?$AAu?$AAf?$AA?0?$AA?5?$AA?$CI?$AA6?$AA0?$AA?5?$AA?$CK?$AA?5?$AA9?$AA?$CJ?$AA?0?$AA?5@ 005eee90     LIBCMTD:wassert.obj
 0003:00028f0c       ??_C@_1O@HEMHKNDC@?$AAF?$AAi?$AAl?$AAe?$AA?3?$AA?5?$AA?$AA@ 005eef0c     LIBCMTD:wassert.obj
 0003:00028f20       ??_C@_1FG@HIDBOJF@?$AAw?$AAc?$AAs?$AAc?$AAa?$AAt?$AA_?$AAs?$AA?$CI?$AA?5?$AAa?$AAs?$AAs?$AAe?$AAr?$AAt?$AAb?$AAu?$AAf?$AA?0?$AA?5?$AA?$CI?$AA6?$AA0?$AA?5?$AA?$CK?$AA?5?$AA9?$AA?$CJ?$AA?0?$AA?5?$AAL@ 005eef20     LIBCMTD:wassert.obj
 0003:00028f88       ??_C@_1FC@FFKGGIKO@?$AAw?$AAc?$AAs?$AAc?$AAa?$AAt?$AA_?$AAs?$AA?$CI?$AA?5?$AAa?$AAs?$AAs?$AAe?$AAr?$AAt?$AAb?$AAu?$AAf?$AA?0?$AA?5?$AA?$CI?$AA6?$AA0?$AA?5?$AA?$CK?$AA?5?$AA9?$AA?$CJ?$AA?0?$AA?5?$AAn@ 005eef88     LIBCMTD:wassert.obj
 0003:00028ff0       ??_C@_1EK@BDNABPEK@?$AAw?$AAc?$AAs?$AAc?$AAa?$AAt?$AA_?$AAs?$AA?$CI?$AA?5?$AAa?$AAs?$AAs?$AAe?$AAr?$AAt?$AAb?$AAu?$AAf?$AA?0?$AA?5?$AA?$CI?$AA6?$AA0?$AA?5?$AA?$CK?$AA?5?$AA9?$AA?$CJ?$AA?0?$AA?5?$AAp@ 005eeff0     LIBCMTD:wassert.obj
 0003:00029048       ??_C@_1HK@JKBDGMGN@?$AAw?$AAc?$AAs?$AAn?$AAc?$AAp?$AAy?$AA_?$AAs?$AA?$CI?$AA?5?$AAp?$AAc?$AAh?$AA?0?$AA?5?$AA?$CI?$AA2?$AA6?$AA0?$AA?5?$AA?$CL?$AA?5?$AA1?$AA?$CJ?$AA?5?$AA?9?$AA?5?$AA?$CI?$AAp?$AAc?$AAh@ 005ef048     LIBCMTD:wassert.obj
 0003:000290dc       ??_C@_1CO@EAEJAADC@?$AA?$DM?$AAp?$AAr?$AAo?$AAg?$AAr?$AAa?$AAm?$AA?5?$AAn?$AAa?$AAm?$AAe?$AA?5?$AAu?$AAn?$AAk?$AAn?$AAo?$AAw?$AAn?$AA?$DO?$AA?$AA@ 005ef0dc     LIBCMTD:wassert.obj
 0003:00029118       ??_C@_1HA@EPFCONEE@?$AAw?$AAc?$AAs?$AAc?$AAp?$AAy?$AA_?$AAs?$AA?$CI?$AA?5?$AAp?$AAr?$AAo?$AAg?$AAn?$AAa?$AAm?$AAe?$AA?0?$AA?5?$AA2?$AA6?$AA0?$AA?5?$AA?$CL?$AA?5?$AA1?$AA?0?$AA?5?$AAL?$AA?$CC?$AA?$DM@ 005ef118     LIBCMTD:wassert.obj
 0003:000291a0       ??_C@_1BE@PHKBBGE@?$AAP?$AAr?$AAo?$AAg?$AAr?$AAa?$AAm?$AA?3?$AA?5?$AA?$AA@ 005ef1a0     LIBCMTD:wassert.obj
 0003:000291b8       ??_C@_1FM@LKICECBD@?$AAw?$AAc?$AAs?$AAc?$AAa?$AAt?$AA_?$AAs?$AA?$CI?$AA?5?$AAa?$AAs?$AAs?$AAe?$AAr?$AAt?$AAb?$AAu?$AAf?$AA?0?$AA?5?$AA?$CI?$AA6?$AA0?$AA?5?$AA?$CK?$AA?5?$AA9?$AA?$CJ?$AA?0?$AA?5?$AAL@ 005ef1b8     LIBCMTD:wassert.obj
 0003:00029228       ??_C@_1FI@JIGMFG@?$AAw?$AAc?$AAs?$AAc?$AAa?$AAt?$AA_?$AAs?$AA?$CI?$AA?5?$AAa?$AAs?$AAs?$AAe?$AAr?$AAt?$AAb?$AAu?$AAf?$AA?0?$AA?5?$AA?$CI?$AA6?$AA0?$AA?5?$AA?$CK?$AA?5?$AA9?$AA?$CJ?$AA?0?$AA?5?$AAd@ 005ef228     LIBCMTD:wassert.obj
 0003:00029294       ??_C@_1CE@OJBNHDMO@?$AAA?$AAs?$AAs?$AAe?$AAr?$AAt?$AAi?$AAo?$AAn?$AA?5?$AAf?$AAa?$AAi?$AAl?$AAe?$AAd?$AA?$CB?$AA?$AA@ 005ef294     LIBCMTD:wassert.obj
 0003:000292c0       ??_C@_1GM@EFCJNBAA@?$AAw?$AAc?$AAs?$AAc?$AAp?$AAy?$AA_?$AAs?$AA?$CI?$AA?5?$AAa?$AAs?$AAs?$AAe?$AAr?$AAt?$AAb?$AAu?$AAf?$AA?0?$AA?5?$AA?$CI?$AA6?$AA0?$AA?5?$AA?$CK?$AA?5?$AA9?$AA?$CJ?$AA?0?$AA?5?$AAL@ 005ef2c0     LIBCMTD:wassert.obj
 0003:00029344       ??_C@_1BC@LNOOMFNA@?$AA_?$AAw?$AAa?$AAs?$AAs?$AAe?$AAr?$AAt?$AA?$AA@ 005ef344     LIBCMTD:wassert.obj
 0003:00029360       ??_C@_1GA@COEIABIF@?$AAf?$AA?3?$AA?2?$AAd?$AAd?$AA?2?$AAv?$AAc?$AAt?$AAo?$AAo?$AAl?$AAs?$AA?2?$AAc?$AAr?$AAt?$AA_?$AAb?$AAl?$AAd?$AA?2?$AAs?$AAe?$AAl?$AAf?$AA_?$AAx?$AA8?$AA6?$AA?2?$AAc@ 005ef360     LIBCMTD:wassert.obj
 0003:000293d4       ??_C@_1BK@HJGMBFLF@?$AAc?$AAo?$AAm?$AAp?$AA?5?$AA?$CB?$AA?$DN?$AA?5?$AAN?$AAU?$AAL?$AAL?$AA?$AA@ 005ef3d4     LIBCMTD:qsort.obj
 0003:000293f4       ??_C@_1BE@NJBEBBME@?$AAw?$AAi?$AAd?$AAt?$AAh?$AA?5?$AA?$DO?$AA?5?$AA0?$AA?$AA@ 005ef3f4     LIBCMTD:qsort.obj
 0003:0002940c       ??_C@_1M@INMHODIG@?$AAq?$AAs?$AAo?$AAr?$AAt?$AA?$AA@ 005ef40c     LIBCMTD:qsort.obj
 0003:00029420       ??_C@_1FO@NDBPJPLL@?$AAf?$AA?3?$AA?2?$AAd?$AAd?$AA?2?$AAv?$AAc?$AAt?$AAo?$AAo?$AAl?$AAs?$AA?2?$AAc?$AAr?$AAt?$AA_?$AAb?$AAl?$AAd?$AA?2?$AAs?$AAe?$AAl?$AAf?$AA_?$AAx?$AA8?$AA6?$AA?2?$AAc@ 005ef420     LIBCMTD:qsort.obj
 0003:00029490       ??_C@_1DC@HAGCIKOA@?$AAb?$AAa?$AAs?$AAe?$AA?5?$AA?$CB?$AA?$DN?$AA?5?$AAN?$AAU?$AAL?$AAL?$AA?5?$AA?$HM?$AA?$HM?$AA?5?$AAn?$AAu?$AAm?$AA?5?$AA?$DN?$AA?$DN?$AA?5?$AA0?$AA?$AA@ 005ef490     LIBCMTD:qsort.obj
 0003:000294cc       ??_C@_1BE@KHFBJMNM@?$AA_?$AAl?$AAs?$AAe?$AAe?$AAk?$AAi?$AA6?$AA4?$AA?$AA@ 005ef4cc     LIBCMTD:lseeki64.obj
 0003:000294e8       ??_C@_1GE@MINKPNPH@?$AAf?$AA?3?$AA?2?$AAd?$AAd?$AA?2?$AAv?$AAc?$AAt?$AAo?$AAo?$AAl?$AAs?$AA?2?$AAc?$AAr?$AAt?$AA_?$AAb?$AAl?$AAd?$AA?2?$AAs?$AAe?$AAl?$AAf?$AA_?$AAx?$AA8?$AA6?$AA?2?$AAc@ 005ef4e8     LIBCMTD:lseeki64.obj
 0003:00029560       ??_C@_1BA@KBJJGFFE@?$AAs?$AAp?$AAr?$AAi?$AAn?$AAt?$AAf?$AA?$AA@ 005ef560     LIBCMTD:sprintf.obj
 0003:00029574       ??_C@_1BE@KFBKGHJC@?$AA_?$AAs?$AAt?$AAr?$AAt?$AAo?$AAd?$AA_?$AAl?$AA?$AA@ 005ef574     LIBCMTD:strtod.obj
 0003:00029590       ??_C@_1GA@FMJPLFPN@?$AAf?$AA?3?$AA?2?$AAd?$AAd?$AA?2?$AAv?$AAc?$AAt?$AAo?$AAo?$AAl?$AAs?$AA?2?$AAc?$AAr?$AAt?$AA_?$AAb?$AAl?$AAd?$AA?2?$AAs?$AAe?$AAl?$AAf?$AA_?$AAx?$AA8?$AA6?$AA?2?$AAc@ 005ef590     LIBCMTD:strtod.obj
 0003:00029604       ??_C@_1BK@LAOAACLJ@?$AAn?$AAp?$AAt?$AAr?$AA?5?$AA?$CB?$AA?$DN?$AA?5?$AAN?$AAU?$AAL?$AAL?$AA?$AA@ 005ef604     LIBCMTD:strtod.obj
 0003:00029628       ??_C@_1FE@CEHLKAHD@?$AAi?$AAb?$AAa?$AAs?$AAe?$AA?5?$AA?$DN?$AA?$DN?$AA?5?$AA0?$AA?5?$AA?$HM?$AA?$HM?$AA?5?$AA?$CI?$AA2?$AA?5?$AA?$DM?$AA?$DN?$AA?5?$AAi?$AAb?$AAa?$AAs?$AAe?$AA?5?$AA?$CG?$AA?$CG?$AA?5?$AAi?$AAb?$AAa@ 005ef628     LIBCMTD:strtol.obj
 0003:0002968c       ??_C@_1BA@LOLAMAJG@?$AAs?$AAt?$AAr?$AAt?$AAo?$AAx?$AAl?$AA?$AA@ 005ef68c     LIBCMTD:strtol.obj
 0003:000296a0       ??_C@_1GA@IPHKKOEI@?$AAf?$AA?3?$AA?2?$AAd?$AAd?$AA?2?$AAv?$AAc?$AAt?$AAo?$AAo?$AAl?$AAs?$AA?2?$AAc?$AAr?$AAt?$AA_?$AAb?$AAl?$AAd?$AA?2?$AAs?$AAe?$AAl?$AAf?$AA_?$AAx?$AA8?$AA6?$AA?2?$AAc@ 005ef6a0     LIBCMTD:strtol.obj
 0003:00029714       ??_C@_1CK@EJMACHNH@?$AA?$CI?$AA?5?$AAs?$AAi?$AAz?$AAe?$AAI?$AAn?$AAC?$AAh?$AAa?$AAr?$AAs?$AA?5?$AA?$DO?$AA?$DN?$AA?5?$AA9?$AA?5?$AA?$CJ?$AA?$AA@ 005ef714     LIBCMTD:strtime.obj
 0003:00029748       ??_C@_1BG@GMOAACJH@?$AA_?$AAs?$AAt?$AAr?$AAt?$AAi?$AAm?$AAe?$AA_?$AAs?$AA?$AA@ 005ef748     LIBCMTD:strtime.obj
 0003:00029768       ??_C@_1GC@OHJDJFKC@?$AAf?$AA?3?$AA?2?$AAd?$AAd?$AA?2?$AAv?$AAc?$AAt?$AAo?$AAo?$AAl?$AAs?$AA?2?$AAc?$AAr?$AAt?$AA_?$AAb?$AAl?$AAd?$AA?2?$AAs?$AAe?$AAl?$AAf?$AA_?$AAx?$AA8?$AA6?$AA?2?$AAc@ 005ef768     LIBCMTD:strtime.obj
 0003:000297e0       ??_C@_1EM@GNJBJFJJ@?$AA?$CI?$AA?5?$AAb?$AAu?$AAf?$AAf?$AAe?$AAr?$AA?5?$AA?$CB?$AA?$DN?$AA?5?$AAN?$AAU?$AAL?$AAL?$AA?5?$AA?$CG?$AA?$CG?$AA?5?$AAs?$AAi?$AAz?$AAe?$AAI?$AAn?$AAC?$AAh?$AAa?$AAr?$AAs?$AA?5@ 005ef7e0     LIBCMTD:strtime.obj
 0003:0002983c       ??_C@_1CG@GLMCLJFL@?$AA?$CI?$AAs?$AAi?$AAz?$AAe?$AAI?$AAn?$AAC?$AAh?$AAa?$AAr?$AAs?$AA?5?$AA?$DO?$AA?$DN?$AA?5?$AA9?$AA?$CJ?$AA?$AA@ 005ef83c     LIBCMTD:strdate.obj
 0003:0002986c       ??_C@_1BG@NHOFOCCH@?$AA_?$AAs?$AAt?$AAr?$AAd?$AAa?$AAt?$AAe?$AA_?$AAs?$AA?$AA@ 005ef86c     LIBCMTD:strdate.obj
 0003:00029888       ??_C@_1GC@FMJGHFBC@?$AAf?$AA?3?$AA?2?$AAd?$AAd?$AA?2?$AAv?$AAc?$AAt?$AAo?$AAo?$AAl?$AAs?$AA?2?$AAc?$AAr?$AAt?$AA_?$AAb?$AAl?$AAd?$AA?2?$AAs?$AAe?$AAl?$AAf?$AA_?$AAx?$AA8?$AA6?$AA?2?$AAc@ 005ef888     LIBCMTD:strdate.obj
 0003:00029900       ??_C@_06PJIGMIJB@Client?$AA@ 005ef900     LIBCMTD:dbgheap.obj
 0003:00029908       ??_C@_06KMEJCCGM@Ignore?$AA@ 005ef908     LIBCMTD:dbgheap.obj
 0003:00029910       ??_C@_03OGPFLFLO@CRT?$AA@  005ef910     LIBCMTD:dbgheap.obj
 0003:00029914       ??_C@_06EFAGIKOH@Normal?$AA@ 005ef914     LIBCMTD:dbgheap.obj
 0003:0002991c       ??_C@_04HJMOFLDF@Free?$AA@ 005ef91c     LIBCMTD:dbgheap.obj
 0003:0002993c       ??_C@_0DC@JEMAGEKG@Error?3?5memory?5allocation?3?5bad?5me@ 005ef93c     LIBCMTD:dbgheap.obj
 0003:00029978       ??_C@_0CF@BICKFLAF@Invalid?5allocation?5size?3?5?$CFIu?5byt@ 005ef978     LIBCMTD:dbgheap.obj
 0003:000299a4       ??_C@_0CB@CCLOLAHO@Client?5hook?5allocation?5failure?4?6@ 005ef9a4     LIBCMTD:dbgheap.obj
 0003:000299cc       ??_C@_0DF@BBEGIFEK@Client?5hook?5allocation?5failure?5a@ 005ef9cc     LIBCMTD:dbgheap.obj
 0003:00029a10       ??_C@_1GC@DNJKKEAA@?$AAf?$AA?3?$AA?2?$AAd?$AAd?$AA?2?$AAv?$AAc?$AAt?$AAo?$AAo?$AAl?$AAs?$AA?2?$AAc?$AAr?$AAt?$AA_?$AAb?$AAl?$AAd?$AA?2?$AAs?$AAe?$AAl?$AAf?$AA_?$AAx?$AA8?$AA6?$AA?2?$AAc@ 005efa10     LIBCMTD:dbgheap.obj
 0003:00029a88       ??_C@_1CE@LJFEPPMP@?$AA_?$AAC?$AAr?$AAt?$AAC?$AAh?$AAe?$AAc?$AAk?$AAM?$AAe?$AAm?$AAo?$AAr?$AAy?$AA?$CI?$AA?$CJ?$AA?$AA@ 005efa88     LIBCMTD:dbgheap.obj
 0003:00029ab4       ??_C@_1CC@CKBDKDFF@?$AA_?$AAc?$AAa?$AAl?$AAl?$AAo?$AAc?$AA_?$AAd?$AAb?$AAg?$AA_?$AAi?$AAm?$AAp?$AAl?$AA?$AA@ 005efab4     LIBCMTD:dbgheap.obj
 0003:00029adc       ??_C@_1DO@MEOGCGBN@?$AA?$CI?$AA_?$AAH?$AAE?$AAA?$AAP?$AA_?$AAM?$AAA?$AAX?$AAR?$AAE?$AAQ?$AA?5?$AA?1?$AA?5?$AAn?$AAN?$AAu?$AAm?$AA?$CJ?$AA?5?$AA?$DO?$AA?$DN?$AA?5?$AAn?$AAS?$AAi?$AAz?$AAe?$AA?$AA@ 005efadc     LIBCMTD:dbgheap.obj
 0003:00029b28       ??_C@_1DE@KOOKLFBB@?$AA_?$AAp?$AAF?$AAi?$AAr?$AAs?$AAt?$AAB?$AAl?$AAo?$AAc?$AAk?$AA?5?$AA?$DN?$AA?$DN?$AA?5?$AAp?$AAO?$AAl?$AAd?$AAB?$AAl?$AAo?$AAc?$AAk?$AA?$AA@ 005efb28     LIBCMTD:dbgheap.obj
 0003:00029b68       ??_C@_1DC@GEFKNOOL@?$AA_?$AAp?$AAL?$AAa?$AAs?$AAt?$AAB?$AAl?$AAo?$AAc?$AAk?$AA?5?$AA?$DN?$AA?$DN?$AA?5?$AAp?$AAO?$AAl?$AAd?$AAB?$AAl?$AAo?$AAc?$AAk?$AA?$AA@ 005efb68     LIBCMTD:dbgheap.obj
 0003:00029ba8       ??_C@_1GE@PCKLOLAO@?$AAf?$AAR?$AAe?$AAa?$AAl?$AAl?$AAo?$AAc?$AA?5?$AA?$HM?$AA?$HM?$AA?5?$AA?$CI?$AA?$CB?$AAf?$AAR?$AAe?$AAa?$AAl?$AAl?$AAo?$AAc?$AA?5?$AA?$CG?$AA?$CG?$AA?5?$AAp?$AAN?$AAe?$AAw?$AAB?$AAl@ 005efba8     LIBCMTD:dbgheap.obj
 0003:00029c20       ??_C@_0DA@HFBKENN@Error?3?5possible?5heap?5corruption?5@ 005efc20     LIBCMTD:dbgheap.obj
 0003:00029c60       ??_C@_1IK@DCPKDGNH@?$AAp?$AAO?$AAl?$AAd?$AAB?$AAl?$AAo?$AAc?$AAk?$AA?9?$AA?$DO?$AAn?$AAL?$AAi?$AAn?$AAe?$AA?5?$AA?$DN?$AA?$DN?$AA?5?$AAI?$AAG?$AAN?$AAO?$AAR?$AAE?$AA_?$AAL?$AAI?$AAN?$AAE?$AA?5@ 005efc60     LIBCMTD:dbgheap.obj
 0003:00029d08       ??_C@_1EE@GFOPCECE@?$AA_?$AAC?$AAr?$AAt?$AAI?$AAs?$AAV?$AAa?$AAl?$AAi?$AAd?$AAH?$AAe?$AAa?$AAp?$AAP?$AAo?$AAi?$AAn?$AAt?$AAe?$AAr?$AA?$CI?$AAp?$AAU?$AAs?$AAe?$AAr?$AAD?$AAa?$AAt?$AAa@ 005efd08     LIBCMTD:dbgheap.obj
 0003:00029d60       ??_C@_0EM@LGFLMAGJ@The?5Block?5at?50x?$CFp?5was?5allocated?5@ 005efd60     LIBCMTD:dbgheap.obj
 0003:00029dc0       ??_C@_0FA@EFEIGJKG@Error?3?5memory?5allocation?3?5bad?5me@ 005efdc0     LIBCMTD:dbgheap.obj
 0003:00029e20       ??_C@_0ED@GPCPBAGP@Invalid?5allocation?5size?3?5?$CFIu?5byt@ 005efe20     LIBCMTD:dbgheap.obj
 0003:00029e70       ??_C@_0CE@DOFMDOL@Client?5hook?5re?9allocation?5failur@ 005efe70     LIBCMTD:dbgheap.obj
 0003:00029e9c       ??_C@_0DI@KKJPDPGM@Client?5hook?5re?9allocation?5failur@ 005efe9c     LIBCMTD:dbgheap.obj
 0003:00029ee0       ??_C@_1BM@OKFKJCEN@?$AA_?$AAr?$AAe?$AAc?$AAa?$AAl?$AAl?$AAo?$AAc?$AA_?$AAd?$AAb?$AAg?$AA?$AA@ 005efee0     LIBCMTD:dbgheap.obj
 0003:00029f04       ??_C@_1DO@GOKJCEHJ@?$AA?$CI?$AA_?$AAH?$AAE?$AAA?$AAP?$AA_?$AAM?$AAA?$AAX?$AAR?$AAE?$AAQ?$AA?5?$AA?1?$AA?5?$AAc?$AAo?$AAu?$AAn?$AAt?$AA?$CJ?$AA?5?$AA?$DO?$AA?$DN?$AA?5?$AAs?$AAi?$AAz?$AAe?$AA?$AA@ 005eff04     LIBCMTD:dbgheap.obj
 0003:00029f50       ??_C@_1BI@HAPNGHDP@?$AA_?$AAe?$AAx?$AAp?$AAa?$AAn?$AAd?$AA_?$AAd?$AAb?$AAg?$AA?$AA@ 005eff50     LIBCMTD:dbgheap.obj
 0003:00029f6c       ??_C@_1CE@CJACEFBA@?$AAp?$AAU?$AAs?$AAe?$AAr?$AAD?$AAa?$AAt?$AAa?$AA?5?$AA?$CB?$AA?$DN?$AA?5?$AAN?$AAU?$AAL?$AAL?$AA?$AA@ 005eff6c     LIBCMTD:dbgheap.obj
 0003:00029f98       ??_C@_1CM@MMAADDMD@?$AA_?$AAp?$AAF?$AAi?$AAr?$AAs?$AAt?$AAB?$AAl?$AAo?$AAc?$AAk?$AA?5?$AA?$DN?$AA?$DN?$AA?5?$AAp?$AAH?$AAe?$AAa?$AAd?$AA?$AA@ 005eff98     LIBCMTD:dbgheap.obj
 0003:00029fcc       ??_C@_1CK@DMAGEMBG@?$AA_?$AAp?$AAL?$AAa?$AAs?$AAt?$AAB?$AAl?$AAo?$AAc?$AAk?$AA?5?$AA?$DN?$AA?$DN?$AA?5?$AAp?$AAH?$AAe?$AAa?$AAd?$AA?$AA@ 005effcc     LIBCMTD:dbgheap.obj
 0003:0002a000       ??_C@_1DM@ODCJIDCP@?$AAp?$AAH?$AAe?$AAa?$AAd?$AA?9?$AA?$DO?$AAn?$AAB?$AAl?$AAo?$AAc?$AAk?$AAU?$AAs?$AAe?$AA?5?$AA?$DN?$AA?$DN?$AA?5?$AAn?$AAB?$AAl?$AAo?$AAc?$AAk?$AAU?$AAs?$AAe?$AA?$AA@ 005f0000     LIBCMTD:dbgheap.obj
 0003:0002a048       ??_C@_1HK@HPCBMDFG@?$AAp?$AAH?$AAe?$AAa?$AAd?$AA?9?$AA?$DO?$AAn?$AAL?$AAi?$AAn?$AAe?$AA?5?$AA?$DN?$AA?$DN?$AA?5?$AAI?$AAG?$AAN?$AAO?$AAR?$AAE?$AA_?$AAL?$AAI?$AAN?$AAE?$AA?5?$AA?$CG?$AA?$CG?$AA?5?$AAp@ 005f0048     LIBCMTD:dbgheap.obj
 0003:0002a0e0       ??_C@_0IG@LEMBDCJK@HEAP?5CORRUPTION?5DETECTED?3?5after?5@ 005f00e0     LIBCMTD:dbgheap.obj
 0003:0002a180       ??_C@_0KE@MBMNHHHN@HEAP?5CORRUPTION?5DETECTED?3?5after?5@ 005f0180     LIBCMTD:dbgheap.obj
 0003:0002a248       ??_C@_0IK@PJCGLBOB@HEAP?5CORRUPTION?5DETECTED?3?5before@ 005f0248     LIBCMTD:dbgheap.obj
 0003:0002a2f0       ??_C@_0KI@JGFOHMEB@HEAP?5CORRUPTION?5DETECTED?3?5before@ 005f02f0     LIBCMTD:dbgheap.obj
 0003:0002a3c0       ??_C@_1EO@LHDAJOCM@?$AA_?$AAB?$AAL?$AAO?$AAC?$AAK?$AA_?$AAT?$AAY?$AAP?$AAE?$AA_?$AAI?$AAS?$AA_?$AAV?$AAA?$AAL?$AAI?$AAD?$AA?$CI?$AAp?$AAH?$AAe?$AAa?$AAd?$AA?9?$AA?$DO?$AAn?$AAB?$AAl?$AAo@ 005f03c0     LIBCMTD:dbgheap.obj
 0003:0002a420       ??_C@_0BL@KEIPLFAC@Client?5hook?5free?5failure?4?6?$AA@ 005f0420     LIBCMTD:dbgheap.obj
 0003:0002a440       ??_C@_0EJ@HEIBCIMJ@The?5Block?5at?50x?$CFp?5was?5allocated?5@ 005f0440     LIBCMTD:dbgheap.obj
 0003:0002a498       ??_C@_1BG@MBKOGDLD@?$AA_?$AAm?$AAs?$AAi?$AAz?$AAe?$AA_?$AAd?$AAb?$AAg?$AA?$AA@ 005f0498     LIBCMTD:dbgheap.obj
 0003:0002a4b4       ??_C@_0CI@JMLBEDHJ@?$CFhs?5located?5at?50x?$CFp?5is?5?$CFIu?5bytes@ 005f04b4     LIBCMTD:dbgheap.obj
 0003:0002a4e8       ??_C@_0EG@DGJMPDBH@?$CFhs?5located?5at?50x?$CFp?5is?5?$CFIu?5bytes@ 005f04e8     LIBCMTD:dbgheap.obj
 0003:0002a540       ??_C@_0IC@BBJIOOJH@HEAP?5CORRUPTION?5DETECTED?3?5on?5top@ 005f0540     LIBCMTD:dbgheap.obj
 0003:0002a5e0       ??_C@_0KA@IHNJJKPL@HEAP?5CORRUPTION?5DETECTED?3?5on?5top@ 005f05e0     LIBCMTD:dbgheap.obj
 0003:0002a6a0       ??_C@_07OHKEFPKJ@DAMAGED?$AA@ 005f06a0     LIBCMTD:dbgheap.obj
 0003:0002a6ac       ??_C@_0CL@HNNNMKMJ@_heapchk?5fails?5with?5unknown?5retu@ 005f06ac     LIBCMTD:dbgheap.obj
 0003:0002a6e0       ??_C@_0CC@MFFCHFHO@_heapchk?5fails?5with?5_HEAPBADPTR?4@ 005f06e0     LIBCMTD:dbgheap.obj
 0003:0002a708       ??_C@_0CC@MJGLGBDG@_heapchk?5fails?5with?5_HEAPBADEND?4@ 005f0708     LIBCMTD:dbgheap.obj
 0003:0002a730       ??_C@_0CD@CPKEAPBD@_heapchk?5fails?5with?5_HEAPBADNODE@ 005f0730     LIBCMTD:dbgheap.obj
 0003:0002a75c       ??_C@_0CE@MKKHMBMK@_heapchk?5fails?5with?5_HEAPBADBEGI@ 005f075c     LIBCMTD:dbgheap.obj
 0003:0002a788       ??_C@_1BO@GJFDNMNF@?$AA_?$AAC?$AAr?$AAt?$AAS?$AAe?$AAt?$AAD?$AAb?$AAg?$AAF?$AAl?$AAa?$AAg?$AA?$AA@ 005f0788     LIBCMTD:dbgheap.obj
 0003:0002a7b0       ??_C@_1BHO@NNANJNF@?$AA?$CI?$AAf?$AAN?$AAe?$AAw?$AAB?$AAi?$AAt?$AAs?$AA?$DN?$AA?$DN?$AA_?$AAC?$AAR?$AAT?$AAD?$AAB?$AAG?$AA_?$AAR?$AAE?$AAP?$AAO?$AAR?$AAT?$AA_?$AAF?$AAL?$AAA?$AAG?$AA?$CJ?$AA?5@ 005f07b0     LIBCMTD:dbgheap.obj
 0003:0002a97c       ??_C@_1DE@GJCKCKEC@?$AA_?$AAC?$AAr?$AAt?$AAD?$AAo?$AAF?$AAo?$AAr?$AAA?$AAl?$AAl?$AAC?$AAl?$AAi?$AAe?$AAn?$AAt?$AAO?$AAb?$AAj?$AAe?$AAc?$AAt?$AAs?$AA?$AA@ 005f097c     LIBCMTD:dbgheap.obj
 0003:0002a9bc       ??_C@_1BI@CJGCEEDL@?$AAp?$AAf?$AAn?$AA?5?$AA?$CB?$AA?$DN?$AA?5?$AAN?$AAU?$AAL?$AAL?$AA?$AA@ 005f09bc     LIBCMTD:dbgheap.obj
 0003:0002a9d8       ??_C@_0CB@EAAIGELO@Bad?5memory?5block?5found?5at?50x?$CFp?4?6@ 005f09d8     LIBCMTD:dbgheap.obj
 0003:0002aa00       ??_C@_0DP@LEFMFBOD@Bad?5memory?5block?5found?5at?50x?$CFp?4?6@ 005f0a00     LIBCMTD:dbgheap.obj
 0003:0002aa4c       ??_C@_1CE@NJJKELF@?$AA_?$AAC?$AAr?$AAt?$AAM?$AAe?$AAm?$AAC?$AAh?$AAe?$AAc?$AAk?$AAp?$AAo?$AAi?$AAn?$AAt?$AA?$AA@ 005f0a4c     LIBCMTD:dbgheap.obj
 0003:0002aa78       ??_C@_1BM@MIMANDHC@?$AAs?$AAt?$AAa?$AAt?$AAe?$AA?5?$AA?$CB?$AA?$DN?$AA?5?$AAN?$AAU?$AAL?$AAL?$AA?$AA@ 005f0a78     LIBCMTD:dbgheap.obj
 0003:0002aa9c       ??_C@_1CC@DFPEDFBP@?$AAn?$AAe?$AAw?$AAS?$AAt?$AAa?$AAt?$AAe?$AA?5?$AA?$CB?$AA?$DN?$AA?5?$AAN?$AAU?$AAL?$AAL?$AA?$AA@ 005f0a9c     LIBCMTD:dbgheap.obj
 0003:0002aac4       ??_C@_1CC@DHPFEMMN@?$AAo?$AAl?$AAd?$AAS?$AAt?$AAa?$AAt?$AAe?$AA?5?$AA?$CB?$AA?$DN?$AA?5?$AAN?$AAU?$AAL?$AAL?$AA?$AA@ 005f0ac4     LIBCMTD:dbgheap.obj
 0003:0002aaec       ??_C@_1CE@PDIENACM@?$AA_?$AAC?$AAr?$AAt?$AAM?$AAe?$AAm?$AAD?$AAi?$AAf?$AAf?$AAe?$AAr?$AAe?$AAn?$AAc?$AAe?$AA?$AA@ 005f0aec     LIBCMTD:dbgheap.obj
 0003:0002ab18       ??_C@_0BH@GFGKJDCO@Object?5dump?5complete?4?6?$AA@ 005f0b18     LIBCMTD:dbgheap.obj
 0003:0002ab34       ??_C@_0DA@MDLBNIBM@crt?5block?5at?50x?$CFp?0?5subtype?5?$CFx?0?5?$CF@ 005f0b34     LIBCMTD:dbgheap.obj
 0003:0002ab70       ??_C@_0CH@FAGDDGPN@normal?5block?5at?50x?$CFp?0?5?$CFIu?5bytes?5@ 005f0b70     LIBCMTD:dbgheap.obj
 0003:0002aba0       ??_C@_0DD@GHNAAKBB@client?5block?5at?50x?$CFp?0?5subtype?5?$CFx@ 005f0ba0     LIBCMTD:dbgheap.obj
 0003:0002abe0       ??_C@_06PKLGBFGM@?$HL?$CFld?$HN?5?$AA@ 005f0be0     LIBCMTD:dbgheap.obj
 0003:0002abe8       ??_C@_0L@JMEFFCCJ@?$CFhs?$CI?$CFd?$CJ?5?3?5?$AA@ 005f0be8     LIBCMTD:dbgheap.obj
 0003:0002abf8       ??_C@_0BE@OIEFNFL@?$CDFile?5Error?$CD?$CI?$CFd?$CJ?5?3?5?$AA@ 005f0bf8     LIBCMTD:dbgheap.obj
 0003:0002ac10       ??_C@_0BE@KCIPKCIA@Dumping?5objects?5?9?$DO?6?$AA@ 005f0c10     LIBCMTD:dbgheap.obj
 0003:0002ac28       ??_C@_0BA@HJBKCELP@?5Data?3?5?$DM?$CFs?$DO?5?$CFs?6?$AA@ 005f0c28     LIBCMTD:dbgheap.obj
 0003:0002ac3c       ??_C@_1BI@KALLJECN@?$AA?$CI?$AA?$CK?$AA_?$AAe?$AAr?$AAr?$AAn?$AAo?$AA?$CI?$AA?$CJ?$AA?$CJ?$AA?$AA@ 005f0c3c     LIBCMTD:dbgheap.obj
 0003:0002ac58       ??_C@_1CG@LPFIACGM@?$AA_?$AAp?$AAr?$AAi?$AAn?$AAt?$AAM?$AAe?$AAm?$AAB?$AAl?$AAo?$AAc?$AAk?$AAD?$AAa?$AAt?$AAa?$AA?$AA@ 005f0c58     LIBCMTD:dbgheap.obj
 0003:0002ac88       ??_C@_05MKKEDADM@?$CF?42X?5?$AA@ 005f0c88     LIBCMTD:dbgheap.obj
 0003:0002ac90       ??_C@_0BI@JBFPOEJA@Detected?5memory?5leaks?$CB?6?$AA@ 005f0c90     LIBCMTD:dbgheap.obj
 0003:0002acac       ??_C@_0BP@DEDHGGGI@Total?5allocations?3?5?$CFId?5bytes?4?6?$AA@ 005f0cac     LIBCMTD:dbgheap.obj
 0003:0002acd4       ??_C@_0CB@BLHDAFNE@Largest?5number?5used?3?5?$CFId?5bytes?4?6@ 005f0cd4     LIBCMTD:dbgheap.obj
 0003:0002acfc       ??_C@_0BO@DACNIABB@?$CFId?5bytes?5in?5?$CFId?5?$CFhs?5Blocks?4?6?$AA@ 005f0cfc     LIBCMTD:dbgheap.obj
 0003:0002ad20       ??_C@_1CM@MPNIBKGK@?$AA_?$AAC?$AAr?$AAt?$AAM?$AAe?$AAm?$AAD?$AAu?$AAm?$AAp?$AAS?$AAt?$AAa?$AAt?$AAi?$AAs?$AAt?$AAi?$AAc?$AAs?$AA?$AA@ 005f0d20     LIBCMTD:dbgheap.obj
 0003:0002ad54       ??_C@_1DK@LFLKFPDA@?$AAo?$AAf?$AAf?$AAs?$AAe?$AAt?$AA?5?$AA?$DN?$AA?$DN?$AA?5?$AA0?$AA?5?$AA?$HM?$AA?$HM?$AA?5?$AAo?$AAf?$AAf?$AAs?$AAe?$AAt?$AA?5?$AA?$DM?$AA?5?$AAs?$AAi?$AAz?$AAe?$AA?$AA@ 005f0d54     LIBCMTD:dbgheap.obj
 0003:0002ad9c       ??_C@_1DG@DONCJBBJ@?$AA_?$AAa?$AAl?$AAi?$AAg?$AAn?$AAe?$AAd?$AA_?$AAo?$AAf?$AAf?$AAs?$AAe?$AAt?$AA_?$AAm?$AAa?$AAl?$AAl?$AAo?$AAc?$AA_?$AAd?$AAb?$AAg?$AA?$AA@ 005f0d9c     LIBCMTD:dbgheap.obj
 0003:0002addc       ??_C@_1CE@NPMGPNNP@?$AAI?$AAS?$AA_?$AA2?$AA_?$AAP?$AAO?$AAW?$AA_?$AAN?$AA?$CI?$AAa?$AAl?$AAi?$AAg?$AAn?$AA?$CJ?$AA?$AA@ 005f0ddc     LIBCMTD:dbgheap.obj
 0003:0002ae08       ??_C@_1DI@NINIKFFK@?$AA_?$AAa?$AAl?$AAi?$AAg?$AAn?$AAe?$AAd?$AA_?$AAo?$AAf?$AAf?$AAs?$AAe?$AAt?$AA_?$AAr?$AAe?$AAa?$AAl?$AAl?$AAo?$AAc?$AA_?$AAd?$AAb?$AAg?$AA?$AA@ 005f0e08     LIBCMTD:dbgheap.obj
 0003:0002ae4c       ??_C@_0DL@PGHMMKNE@Damage?5before?50x?$CFp?5which?5was?5all@ 005f0e4c     LIBCMTD:dbgheap.obj
 0003:0002ae98       ??_C@_0EI@NDNJMAJK@The?5block?5at?50x?$CFp?5was?5not?5alloca@ 005f0e98     LIBCMTD:dbgheap.obj
 0003:0002aef0       ??_C@_1DK@MMLHIFFH@?$AA_?$AAa?$AAl?$AAi?$AAg?$AAn?$AAe?$AAd?$AA_?$AAo?$AAf?$AAf?$AAs?$AAe?$AAt?$AA_?$AAr?$AAe?$AAc?$AAa?$AAl?$AAl?$AAo?$AAc?$AA_?$AAd?$AAb?$AAg?$AA?$AA@ 005f0ef0     LIBCMTD:dbgheap.obj
 0003:0002af38       ??_C@_0EF@PGELACII@The?5block?5at?50x?$CFp?5was?5not?5alloca@ 005f0f38     LIBCMTD:dbgheap.obj
 0003:0002af8c       ??_C@_1CG@CEGMHIMN@?$AA_?$AAa?$AAl?$AAi?$AAg?$AAn?$AAe?$AAd?$AA_?$AAm?$AAs?$AAi?$AAz?$AAe?$AA_?$AAd?$AAb?$AAg?$AA?$AA@ 005f0f8c     LIBCMTD:dbgheap.obj
 0003:0002afbc       ??_C@_1CC@MOBIKHH@?$AAm?$AAe?$AAm?$AAb?$AAl?$AAo?$AAc?$AAk?$AA?5?$AA?$CB?$AA?$DN?$AA?5?$AAN?$AAU?$AAL?$AAL?$AA?$AA@ 005f0fbc     LIBCMTD:dbgheap.obj
 0003:0002afe8       ??_C@_1HO@MLMGPAFH@?$AA?$CI?$AA?$CC?$AAi?$AAn?$AAc?$AAo?$AAn?$AAs?$AAi?$AAs?$AAt?$AAe?$AAn?$AAt?$AA?5?$AAI?$AAO?$AAB?$AA?5?$AAf?$AAi?$AAe?$AAl?$AAd?$AAs?$AA?$CC?$AA?0?$AA?5?$AAs?$AAt?$AAr?$AAe@ 005f0fe8     LIBCMTD:_flsbuf.obj
 0003:0002b080       ??_C@_1GC@GNCCMPNN@?$AAf?$AA?3?$AA?2?$AAd?$AAd?$AA?2?$AAv?$AAc?$AAt?$AAo?$AAo?$AAl?$AAs?$AA?2?$AAc?$AAr?$AAt?$AA_?$AAb?$AAl?$AAd?$AA?2?$AAs?$AAe?$AAl?$AAf?$AA_?$AAx?$AA8?$AA6?$AA?2?$AAc@ 005f1080     LIBCMTD:_flsbuf.obj
 0003:0002b0f8       ??_C@_1BI@MFCLPIBM@?$AAs?$AAt?$AAr?$AA?5?$AA?$CB?$AA?$DN?$AA?5?$AAN?$AAU?$AAL?$AAL?$AA?$AA@ 005f10f8     LIBCMTD:_flsbuf.obj
 0003:0002b114       ??_C@_1O@CEDCILHN@?$AA?$CI?$AAn?$AAu?$AAl?$AAl?$AA?$CJ?$AA?$AA@ 005f1114     LIBCMTD:output.obj
 0003:0002b124       ??_C@_06OJHGLDPL@?$CInull?$CJ?$AA@ 005f1124     LIBCMTD:output.obj
 0003:0002b130       ___lookuptable             005f1130     LIBCMTD:output.obj
 0003:0002b19c       ??_C@_0DA@NFBEBPEE@f?3?2dd?2vctools?2crt_bld?2self_x86?2c@ 005f119c     LIBCMTD:output.obj
 0003:0002b1d8       ??_C@_1EK@PNGFDECN@?$AA?$CI?$AA?$CC?$AA?8?$AAn?$AA?8?$AA?5?$AAf?$AAo?$AAr?$AAm?$AAa?$AAt?$AA?5?$AAs?$AAp?$AAe?$AAc?$AAi?$AAf?$AAi?$AAe?$AAr?$AA?5?$AAd?$AAi?$AAs?$AAa?$AAb?$AAl?$AAe?$AAd?$AA?$CC@ 005f11d8     LIBCMTD:output.obj
 0003:0002b230       ??_C@_1CC@IFFHEMNF@?$AA?$CI?$AAc?$AAh?$AA?5?$AA?$CB?$AA?$DN?$AA?5?$AA_?$AAT?$AA?$CI?$AA?8?$AA?2?$AA0?$AA?8?$AA?$CJ?$AA?$CJ?$AA?$AA@ 005f1230     LIBCMTD:output.obj
 0003:0002b258       ??_C@_1BE@IONLIDNC@?$AA_?$AAo?$AAu?$AAt?$AAp?$AAu?$AAt?$AA_?$AAl?$AA?$AA@ 005f1258     LIBCMTD:output.obj
 0003:0002b270       ??_C@_1GA@HHFOFBLN@?$AAf?$AA?3?$AA?2?$AAd?$AAd?$AA?2?$AAv?$AAc?$AAt?$AAo?$AAo?$AAl?$AAs?$AA?2?$AAc?$AAr?$AAt?$AA_?$AAb?$AAl?$AAd?$AA?2?$AAs?$AAe?$AAl?$AAf?$AA_?$AAx?$AA8?$AA6?$AA?2?$AAc@ 005f1270     LIBCMTD:output.obj
 0003:0002b2e4       ??_C@_1BG@KCMPBBDK@?$AA_?$AAg?$AAe?$AAt?$AA_?$AAe?$AAr?$AAr?$AAn?$AAo?$AA?$AA@ 005f12e4     LIBCMTD:dosmap.obj
 0003:0002b300       ??_C@_1GA@MFGIMPNL@?$AAf?$AA?3?$AA?2?$AAd?$AAd?$AA?2?$AAv?$AAc?$AAt?$AAo?$AAo?$AAl?$AAs?$AA?2?$AAc?$AAr?$AAt?$AA_?$AAb?$AAl?$AAd?$AA?2?$AAs?$AAe?$AAl?$AAf?$AA_?$AAx?$AA8?$AA6?$AA?2?$AAc@ 005f1300     LIBCMTD:dosmap.obj
 0003:0002b374       ??_C@_1BM@INIPHHDD@?$AA_?$AAg?$AAe?$AAt?$AA_?$AAd?$AAo?$AAs?$AAe?$AAr?$AAr?$AAn?$AAo?$AA?$AA@ 005f1374     LIBCMTD:dosmap.obj
 0003:0002b398       ??_C@_1CC@CGHMNGDG@?$AAA?$AAs?$AAs?$AAe?$AAr?$AAt?$AAi?$AAo?$AAn?$AA?5?$AAF?$AAa?$AAi?$AAl?$AAe?$AAd?$AA?$AA@ 005f1398     LIBCMTD:dbgrptw.obj
 0003:0002b3c0       ??_C@_1M@ILHOPKA@?$AAE?$AAr?$AAr?$AAo?$AAr?$AA?$AA@ 005f13c0     LIBCMTD:dbgrptw.obj
 0003:0002b3d0       ??_C@_1BA@GLMCNLEM@?$AAW?$AAa?$AAr?$AAn?$AAi?$AAn?$AAg?$AA?$AA@ 005f13d0     LIBCMTD:dbgrptw.obj
 0003:0002b3f4       ??_C@_0DA@PCCBBBID@f?3?2dd?2vctools?2crt_bld?2self_x86?2c@ 005f13f4     LIBCMTD:dbgrptw.obj
 0003:0002b430       ??_C@_1FI@PHIAFFHM@?$AA?$CI?$AA?$CC?$AAT?$AAh?$AAe?$AA?5?$AAh?$AAo?$AAo?$AAk?$AA?5?$AAf?$AAu?$AAn?$AAc?$AAt?$AAi?$AAo?$AAn?$AA?5?$AAi?$AAs?$AA?5?$AAn?$AAo?$AAt?$AA?5?$AAi?$AAn?$AA?5?$AAt?$AAh@ 005f1430     LIBCMTD:dbgrptw.obj
 0003:0002b49c       ??_C@_1CG@JBJEFOCM@?$AAp?$AAf?$AAn?$AAN?$AAe?$AAw?$AAH?$AAo?$AAo?$AAk?$AA?5?$AA?$CB?$AA?$DN?$AA?5?$AAN?$AAU?$AAL?$AAL?$AA?$AA@ 005f149c     LIBCMTD:dbgrptw.obj
 0003:0002b4cc       ??_C@_1CI@IIHEAKEI@?$AA_?$AAC?$AAr?$AAt?$AAS?$AAe?$AAt?$AAR?$AAe?$AAp?$AAo?$AAr?$AAt?$AAH?$AAo?$AAo?$AAk?$AAW?$AA2?$AA?$AA@ 005f14cc     LIBCMTD:dbgrptw.obj
 0003:0002b500       ??_C@_1GA@IBJGKIFE@?$AAf?$AA?3?$AA?2?$AAd?$AAd?$AA?2?$AAv?$AAc?$AAt?$AAo?$AAo?$AAl?$AAs?$AA?2?$AAc?$AAr?$AAt?$AA_?$AAb?$AAl?$AAd?$AA?2?$AAs?$AAe?$AAl?$AAf?$AA_?$AAx?$AA8?$AA6?$AA?2?$AAc@ 005f1500     LIBCMTD:dbgrptw.obj
 0003:0002b578       ??_C@_1HI@OFEHGPPC@?$AAm?$AAo?$AAd?$AAe?$AA?5?$AA?$DN?$AA?$DN?$AA?5?$AA_?$AAC?$AAR?$AAT?$AA_?$AAR?$AAP?$AAT?$AAH?$AAO?$AAO?$AAK?$AA_?$AAI?$AAN?$AAS?$AAT?$AAA?$AAL?$AAL?$AA?5?$AA?$HM?$AA?$HM?$AA?5@ 005f1578     LIBCMTD:dbgrptw.obj
 0003:0002b608       ??_C@_1EG@PEOEAKBB@?$AAM?$AAi?$AAc?$AAr?$AAo?$AAs?$AAo?$AAf?$AAt?$AA?5?$AAV?$AAi?$AAs?$AAu?$AAa?$AAl?$AA?5?$AAC?$AA?$CL?$AA?$CL?$AA?5?$AAD?$AAe?$AAb?$AAu?$AAg?$AA?5?$AAL?$AAi?$AAb?$AAr?$AAa@ 005f1608     LIBCMTD:dbgrptw.obj
 0003:0002b660       ??_C@_1FG@BBOLDHGF@?$AA_?$AAC?$AAr?$AAt?$AAD?$AAb?$AAg?$AAR?$AAe?$AAp?$AAo?$AAr?$AAt?$AA?3?$AA?5?$AAS?$AAt?$AAr?$AAi?$AAn?$AAg?$AA?5?$AAt?$AAo?$AAo?$AA?5?$AAl?$AAo?$AAn?$AAg?$AA?5?$AAo@ 005f1660     LIBCMTD:dbgrptw.obj
 0003:0002b6c8       ??_C@_1JI@EACPGHID@?$AAw?$AAc?$AAs?$AAc?$AAp?$AAy?$AA_?$AAs?$AA?$CI?$AAs?$AAz?$AAO?$AAu?$AAt?$AAM?$AAe?$AAs?$AAs?$AAa?$AAg?$AAe?$AA?0?$AA?5?$AA4?$AA0?$AA9?$AA6?$AA?0?$AA?5?$AAL?$AA?$CC?$AA_@ 005f16c8     LIBCMTD:dbgrptw.obj
 0003:0002b780       ??_C@_1KK@MEFMPOLM@?$AAD?$AAe?$AAb?$AAu?$AAg?$AA?5?$AA?$CF?$AAs?$AA?$CB?$AA?6?$AA?6?$AAP?$AAr?$AAo?$AAg?$AAr?$AAa?$AAm?$AA?3?$AA?5?$AA?$CF?$AAs?$AA?$CF?$AAs?$AA?$CF?$AAs?$AA?$CF?$AAs?$AA?$CF?$AAs?$AA?$CF?$AAs@ 005f1780     LIBCMTD:dbgrptw.obj
 0003:0002b84c       ??_C@_1BE@CGCJKGHI@?$AA?6?$AAM?$AAo?$AAd?$AAu?$AAl?$AAe?$AA?3?$AA?5?$AA?$AA@ 005f184c     LIBCMTD:dbgrptw.obj
 0003:0002b864       ??_C@_1BA@LNHECFIM@?$AA?6?$AAF?$AAi?$AAl?$AAe?$AA?3?$AA?5?$AA?$AA@ 005f1864     LIBCMTD:dbgrptw.obj
 0003:0002b878       ??_C@_1BA@GLLGCPCK@?$AA?6?$AAL?$AAi?$AAn?$AAe?$AA?3?$AA?5?$AA?$AA@ 005f1878     LIBCMTD:dbgrptw.obj
 0003:0002b88c       ??_C@_11LOCGONAA@?$AA?$AA@ 005f188c     LIBCMTD:dbgrptw.obj
 0003:0002b890       ??_C@_1OG@PMPPFHAF@?$AA?6?$AA?6?$AAF?$AAo?$AAr?$AA?5?$AAi?$AAn?$AAf?$AAo?$AAr?$AAm?$AAa?$AAt?$AAi?$AAo?$AAn?$AA?5?$AAo?$AAn?$AA?5?$AAh?$AAo?$AAw?$AA?5?$AAy?$AAo?$AAu?$AAr?$AA?5?$AAp?$AAr@ 005f1890     LIBCMTD:dbgrptw.obj
 0003:0002b9a8       ??_C@_1NO@LECLLHOL@?$AAm?$AAe?$AAm?$AAc?$AAp?$AAy?$AA_?$AAs?$AA?$CI?$AAs?$AAz?$AAS?$AAh?$AAo?$AAr?$AAt?$AAP?$AAr?$AAo?$AAg?$AAN?$AAa?$AAm?$AAe?$AA?0?$AA?5?$AAs?$AAi?$AAz?$AAe?$AAo?$AAf@ 005f19a8     LIBCMTD:dbgrptw.obj
 0003:0002bab8       ??_C@_1GI@DEDNNLCI@?$AAw?$AAc?$AAs?$AAc?$AAp?$AAy?$AA_?$AAs?$AA?$CI?$AAs?$AAz?$AAE?$AAx?$AAe?$AAN?$AAa?$AAm?$AAe?$AA?0?$AA?5?$AA2?$AA6?$AA0?$AA?0?$AA?5?$AAL?$AA?$CC?$AA?$DM?$AAp?$AAr?$AAo?$AAg@ 005f1ab8     LIBCMTD:dbgrptw.obj
 0003:0002bb34       ??_C@_1CI@PGJIFDEK@?$AA_?$AA_?$AAc?$AAr?$AAt?$AAM?$AAe?$AAs?$AAs?$AAa?$AAg?$AAe?$AAW?$AAi?$AAn?$AAd?$AAo?$AAw?$AAW?$AA?$AA@ 005f1b34     LIBCMTD:dbgrptw.obj
 0003:0002bb64       ??_C@_1BK@FHMHFMNL@?$AA_?$AAv?$AAs?$AAn?$AAp?$AAr?$AAi?$AAn?$AAt?$AAf?$AA_?$AAl?$AA?$AA@ 005f1b64     LIBCMTD:vsnprint.obj
 0003:0002bb88       ??_C@_1GE@DPADKNCG@?$AAf?$AA?3?$AA?2?$AAd?$AAd?$AA?2?$AAv?$AAc?$AAt?$AAo?$AAo?$AAl?$AAs?$AA?2?$AAc?$AAr?$AAt?$AA_?$AAb?$AAl?$AAd?$AA?2?$AAs?$AAe?$AAl?$AAf?$AA_?$AAx?$AA8?$AA6?$AA?2?$AAc@ 005f1b88     LIBCMTD:vsnprint.obj
 0003:0002bc00       ??_C@_0BO@GNIAFIKK@Unknown?5Runtime?5Check?5Error?6?$AN?$AA@ 005f1c00     LIBCMTD:_error_.obj
 0003:0002bc24       ??_C@_0CM@NGINOKPC@Stack?5memory?5around?5_alloca?5was?5@ 005f1c24     LIBCMTD:_error_.obj
 0003:0002bc58       ??_C@_0DG@HKJMLLLP@A?5local?5variable?5was?5used?5before@ 005f1c58     LIBCMTD:_error_.obj
 0003:0002bc98       ??_C@_0BN@FFOINMNJ@Stack?5memory?5was?5corrupted?6?$AN?$AA@ 005f1c98     LIBCMTD:_error_.obj
 0003:0002bcc0       ??_C@_0BBN@GPMLNJCF@A?5cast?5to?5a?5smaller?5data?5type?5ha@ 005f1cc0     LIBCMTD:_error_.obj
 0003:0002be18       ??_C@_0NN@NGPKDKPD@The?5value?5of?5ESP?5was?5not?5properl@ 005f1e18     LIBCMTD:_error_.obj
 0003:0002bfe0       ??_C@_0CA@IODNCDPG@Run?9Time?5Check?5Failure?5?$CD?$CFd?5?9?5?$CFs?$AA@ 005f1fe0     LIBCMTD:_error_.obj
 0003:0002c008       ??_C@_0BE@GNBOBNCK@Unknown?5Module?5Name?$AA@ 005f2008     LIBCMTD:_error_.obj
 0003:0002c020       ??_C@_0BB@PFFGGCJP@Unknown?5Filename?$AA@ 005f2020     LIBCMTD:_error_.obj
 0003:0002c038       ??_C@_1EA@NFKNIFJP@?$AAR?$AAu?$AAn?$AA?9?$AAT?$AAi?$AAm?$AAe?$AA?5?$AAC?$AAh?$AAe?$AAc?$AAk?$AA?5?$AAF?$AAa?$AAi?$AAl?$AAu?$AAr?$AAe?$AA?5?$AA?$CD?$AA?$CF?$AAd?$AA?5?$AA?9?$AA?5?$AA?$CF?$AAs?$AA?$AA@ 005f2038     LIBCMTD:_error_.obj
 0003:0002c088       ??_C@_1GM@OLMCBDMB@?$AAR?$AAu?$AAn?$AAt?$AAi?$AAm?$AAe?$AA?5?$AAC?$AAh?$AAe?$AAc?$AAk?$AA?5?$AAE?$AAr?$AAr?$AAo?$AAr?$AA?4?$AA?6?$AA?$AN?$AA?5?$AAU?$AAn?$AAa?$AAb?$AAl?$AAe?$AA?5?$AAt?$AAo@ 005f2088     LIBCMTD:_error_.obj
 0003:0002c10c       ??_C@_0CG@IAFNJNEE@Stack?5corrupted?5near?5unknown?5var@ 005f210c     LIBCMTD:_error_.obj
 0003:0002c140       ??_C@_0EJ@LJKNEOLN@Stack?5area?5around?5_alloca?5memory@ 005f2140     LIBCMTD:_error_.obj
 0003:0002c198       ??_C@_08KJEDNCKC@?$CFs?$CFs?$CFs?$CFs?$AA@ 005f2198     LIBCMTD:_error_.obj
 0003:0002c1a4       ??_C@_02LLMPMKNF@?$DO?5?$AA@ 005f21a4     LIBCMTD:_error_.obj
 0003:0002c1a8       ??_C@_0BC@KIBAILCI@?$CFs?$CFs?$CFp?$CFs?$CFld?$CFs?$CFd?$CFs?$AA@ 005f21a8     LIBCMTD:_error_.obj
 0003:0002c1c0       ??_C@_0EI@CLEPFNGI@Stack?5area?5around?5_alloca?5memory@ 005f21c0     LIBCMTD:_error_.obj
 0003:0002c218       ??_C@_0N@MHFFIMFG@?6Address?3?50x?$AA@ 005f2218     LIBCMTD:_error_.obj
 0003:0002c228       ??_C@_07DFDJCKFN@?6Size?3?5?$AA@ 005f2228     LIBCMTD:_error_.obj
 0003:0002c234       ??_C@_0CK@DKGBICFE@?6Allocation?5number?5within?5this?5f@ 005f2234     LIBCMTD:_error_.obj
 0003:0002c268       ??_C@_08OMAHNMHJ@?6Data?3?5?$DM?$AA@ 005f2268     LIBCMTD:_error_.obj
 0003:0002c274       ??_C@_09FOPFMPEJ@wsprintfA?$AA@ 005f2274     LIBCMTD:_error_.obj
 0003:0002c280       ??_C@_0L@GMPLCCII@user32?4dll?$AA@ 005f2280     LIBCMTD:_error_.obj
 0003:0002c290       ??_C@_0DE@OHJBPMBP@A?5variable?5is?5being?5used?5without@ 005f2290     LIBCMTD:_error_.obj
 0003:0002c2d0       ??_C@_0BP@OGBCLIBO@Stack?5around?5_alloca?5corrupted?$AA@ 005f22d0     LIBCMTD:_userapi_.obj
 0003:0002c2f8       ??_C@_0CK@CNLNOEPB@Local?5variable?5used?5before?5initi@ 005f22f8     LIBCMTD:_userapi_.obj
 0003:0002c32c       ??_C@_0BI@CIGMDCBH@Stack?5memory?5corruption?$AA@ 005f232c     LIBCMTD:_userapi_.obj
 0003:0002c348       ??_C@_0CK@FEGOIOPB@Cast?5to?5smaller?5type?5causing?5los@ 005f2348     LIBCMTD:_userapi_.obj
 0003:0002c37c       ??_C@_0BJ@HEGAHDFO@Stack?5pointer?5corruption?$AA@ 005f237c     LIBCMTD:_userapi_.obj
 0003:0002c3b4       ??_C@_0DP@CBBAPGOP@f?3?2dd?2vctools?2crt_bld?2self_x86?2c@ 005f23b4     LIBCMTD:chkesp.obj
 0003:0002c3ff       ??_C@_00CNPNBAHC@?$AA@     005f23ff     LIBCMTD:chkesp.obj
 0003:0002c400       ??_C@_0NM@DNEDKLDF@The?5value?5of?5ESP?5was?5not?5properl@ 005f2400     LIBCMTD:chkesp.obj
 0003:0002c508       ??_C@_0DB@OLNNDFNH@f?3?2dd?2vctools?2crt_bld?2self_x86?2c@ 005f2508     LIBCMTD:_sftbuf.obj
 0003:0002c548       ??_C@_1GC@DGAFOCMO@?$AAf?$AA?3?$AA?2?$AAd?$AAd?$AA?2?$AAv?$AAc?$AAt?$AAo?$AAo?$AAl?$AAs?$AA?2?$AAc?$AAr?$AAt?$AA_?$AAb?$AAl?$AAd?$AA?2?$AAs?$AAe?$AAl?$AAf?$AA_?$AAx?$AA8?$AA6?$AA?2?$AAc@ 005f2548     LIBCMTD:_sftbuf.obj
 0003:0002c5c0       ??_C@_1CO@KCKAACMI@?$AAf?$AAl?$AAa?$AAg?$AA?5?$AA?$DN?$AA?$DN?$AA?5?$AA0?$AA?5?$AA?$HM?$AA?$HM?$AA?5?$AAf?$AAl?$AAa?$AAg?$AA?5?$AA?$DN?$AA?$DN?$AA?5?$AA1?$AA?$AA@ 005f25c0     LIBCMTD:_sftbuf.obj
 0003:0002c5f8       ??_C@_1BO@JGFPDJCP@?$AAv?$AAp?$AAr?$AAi?$AAn?$AAt?$AAf?$AA_?$AAh?$AAe?$AAl?$AAp?$AAe?$AAr?$AA?$AA@ 005f25f8     LIBCMTD:vprintf.obj
 0003:0002c620       ??_C@_1GC@DHFFJKMC@?$AAf?$AA?3?$AA?2?$AAd?$AAd?$AA?2?$AAv?$AAc?$AAt?$AAo?$AAo?$AAl?$AAs?$AA?2?$AAc?$AAr?$AAt?$AA_?$AAb?$AAl?$AAd?$AA?2?$AAs?$AAe?$AAl?$AAf?$AA_?$AAx?$AA8?$AA6?$AA?2?$AAc@ 005f2620     LIBCMTD:vprintf.obj
 0003:0002c698       ??_C@_0DB@KIKNCIEC@f?3?2dd?2vctools?2crt_bld?2self_x86?2c@ 005f2698     LIBCMTD:osfinfo.obj
 0003:0002c6d4       ??_C@_1BO@EMBOBGKE@?$AA_?$AAg?$AAe?$AAt?$AA_?$AAo?$AAs?$AAf?$AAh?$AAa?$AAn?$AAd?$AAl?$AAe?$AA?$AA@ 005f26d4     LIBCMTD:osfinfo.obj
 0003:0002c6f8       ??_C@_1GC@MLKLDJJG@?$AAf?$AA?3?$AA?2?$AAd?$AAd?$AA?2?$AAv?$AAc?$AAt?$AAo?$AAo?$AAl?$AAs?$AA?2?$AAc?$AAr?$AAt?$AA_?$AAb?$AAl?$AAd?$AA?2?$AAs?$AAe?$AAl?$AAf?$AA_?$AAx?$AA8?$AA6?$AA?2?$AAc@ 005f26f8     LIBCMTD:osfinfo.obj
 0003:0002c770       ??_C@_0DA@NBLAKPEL@f?3?2dd?2vctools?2crt_bld?2self_x86?2c@ 005f2770     LIBCMTD:ioinit.obj
 0003:0002c7ac       ??_C@_1BI@GALBKMKE@?$AA?$CI?$AAs?$AAi?$AAz?$AAe?$AA?5?$AA?$DO?$AA?$DN?$AA?5?$AA0?$AA?$CJ?$AA?$AA@ 005f27ac     LIBCMTD:chsize.obj
 0003:0002c7c8       ??_C@_1DG@LNNHNFHJ@?$AA?$CI?$AA_?$AAo?$AAs?$AAf?$AAi?$AAl?$AAe?$AA?$CI?$AAf?$AAi?$AAl?$AAe?$AAd?$AAe?$AAs?$AA?$CJ?$AA?5?$AA?$CG?$AA?5?$AAF?$AAO?$AAP?$AAE?$AAN?$AA?$CJ?$AA?$AA@ 005f27c8     LIBCMTD:chsize.obj
 0003:0002c808       ??_C@_1BE@MAFDNGED@?$AA_?$AAc?$AAh?$AAs?$AAi?$AAz?$AAe?$AA_?$AAs?$AA?$AA@ 005f2808     LIBCMTD:chsize.obj
 0003:0002c820       ??_C@_1GA@DBKMEDOF@?$AAf?$AA?3?$AA?2?$AAd?$AAd?$AA?2?$AAv?$AAc?$AAt?$AAo?$AAo?$AAl?$AAs?$AA?2?$AAc?$AAr?$AAt?$AA_?$AAb?$AAl?$AAd?$AA?2?$AAs?$AAe?$AAl?$AAf?$AA_?$AAx?$AA8?$AA6?$AA?2?$AAc@ 005f2820     LIBCMTD:chsize.obj
 0003:0002c898       ??_C@_1HC@KFLBHHBC@?$AA?$CI?$AAf?$AAi?$AAl?$AAe?$AAd?$AAe?$AAs?$AA?5?$AA?$DO?$AA?$DN?$AA?5?$AA0?$AA?5?$AA?$CG?$AA?$CG?$AA?5?$AA?$CI?$AAu?$AAn?$AAs?$AAi?$AAg?$AAn?$AAe?$AAd?$AA?$CJ?$AAf?$AAi?$AAl?$AAe?$AAd@ 005f2898     LIBCMTD:chsize.obj
 0003:0002c920       ??_C@_1O@EDOIKGHF@?$AA_?$AAl?$AAs?$AAe?$AAe?$AAk?$AA?$AA@ 005f2920     LIBCMTD:lseek.obj
 0003:0002c930       ??_C@_1FO@LGKMLCAL@?$AAf?$AA?3?$AA?2?$AAd?$AAd?$AA?2?$AAv?$AAc?$AAt?$AAo?$AAo?$AAl?$AAs?$AA?2?$AAc?$AAr?$AAt?$AA_?$AAb?$AAl?$AAd?$AA?2?$AAs?$AAe?$AAl?$AAf?$AA_?$AAx?$AA8?$AA6?$AA?2?$AAc@ 005f2930     LIBCMTD:lseek.obj
 0003:0002c9a0       ??_C@_1DM@LMLOLGJ@?$AA?$CI?$AA?$CC?$AAI?$AAn?$AAv?$AAa?$AAl?$AAi?$AAd?$AA?5?$AAf?$AAi?$AAl?$AAe?$AA?5?$AAd?$AAe?$AAs?$AAc?$AAr?$AAi?$AAp?$AAt?$AAo?$AAr?$AA?$CC?$AA?0?$AA0?$AA?$CJ?$AA?$AA@ 005f29a0     LIBCMTD:lseek.obj
 0003:0002c9e8       ??_C@_1BC@JBGGJDCM@?$AA_?$AAs?$AAe?$AAt?$AAm?$AAo?$AAd?$AAe?$AA?$AA@ 005f29e8     LIBCMTD:setmode.obj
 0003:0002ca00       ??_C@_1GC@KODPFLLJ@?$AAf?$AA?3?$AA?2?$AAd?$AAd?$AA?2?$AAv?$AAc?$AAt?$AAo?$AAo?$AAl?$AAs?$AA?2?$AAc?$AAr?$AAt?$AA_?$AAb?$AAl?$AAd?$AA?2?$AAs?$AAe?$AAl?$AAf?$AA_?$AAx?$AA8?$AA6?$AA?2?$AAc@ 005f2a00     LIBCMTD:setmode.obj
 0003:0002ca78       ??_C@_1OA@HGPJIFPM@?$AA?$CI?$AA?$CI?$AAm?$AAo?$AAd?$AAe?$AA?5?$AA?$DN?$AA?$DN?$AA?5?$AA_?$AAO?$AA_?$AAT?$AAE?$AAX?$AAT?$AA?$CJ?$AA?5?$AA?$HM?$AA?$HM?$AA?5?$AA?$CI?$AAm?$AAo?$AAd?$AAe?$AA?5?$AA?$DN?$AA?$DN?$AA?5?$AA_@ 005f2a78     LIBCMTD:setmode.obj
 0003:0002cb84       ??_C@_1BG@IEEHLOCL@?$AA_?$AAs?$AAe?$AAt?$AA_?$AAf?$AAm?$AAo?$AAd?$AAe?$AA?$AA@ 005f2b84     LIBCMTD:setmode.obj
 0003:0002cba0       ??_C@_1IC@NDCJMLB@?$AA?$CI?$AA?$CI?$AAm?$AAo?$AAd?$AAe?$AA?5?$AA?$DN?$AA?$DN?$AA?5?$AA_?$AAO?$AA_?$AAT?$AAE?$AAX?$AAT?$AA?$CJ?$AA?5?$AA?$HM?$AA?$HM?$AA?5?$AA?$CI?$AAm?$AAo?$AAd?$AAe?$AA?5?$AA?$DN?$AA?$DN?$AA?5?$AA_@ 005f2ba0     LIBCMTD:setmode.obj
 0003:0002cc3c       ??_C@_1BG@CKGMPOFH@?$AA_?$AAg?$AAe?$AAt?$AA_?$AAf?$AAm?$AAo?$AAd?$AAe?$AA?$AA@ 005f2c3c     LIBCMTD:setmode.obj
 0003:0002cc58       ??_C@_1CA@GPIGPPFN@?$AA?$CI?$AAp?$AAM?$AAo?$AAd?$AAe?$AA?5?$AA?$CB?$AA?$DN?$AA?5?$AAN?$AAU?$AAL?$AAL?$AA?$CJ?$AA?$AA@ 005f2c58     LIBCMTD:setmode.obj
 0003:0002cc80       ??_C@_1GE@KOCFNGPB@?$AA_?$AAc?$AAo?$AAn?$AAt?$AAr?$AAo?$AAl?$AAf?$AAp?$AA_?$AAs?$AA?$CI?$AA?$CI?$AA?$CI?$AAv?$AAo?$AAi?$AAd?$AA?5?$AA?$CK?$AA?$CJ?$AA0?$AA?$CJ?$AA?0?$AA?5?$AA0?$AAx?$AA0?$AA0?$AA0?$AA1@ 005f2c80     LIBCMTD:fp8.obj
 0003:0002ccf8       ??_C@_1CK@JMKHCBEI@?$AA_?$AAs?$AAe?$AAt?$AAd?$AAe?$AAf?$AAa?$AAu?$AAl?$AAt?$AAp?$AAr?$AAe?$AAc?$AAi?$AAs?$AAi?$AAo?$AAn?$AA?$AA@ 005f2cf8     LIBCMTD:fp8.obj
 0003:0002cd30       ??_C@_1GG@PHGJJHBC@?$AAf?$AA?3?$AA?2?$AAd?$AAd?$AA?2?$AAv?$AAc?$AAt?$AAo?$AAo?$AAl?$AAs?$AA?2?$AAc?$AAr?$AAt?$AA_?$AAb?$AAl?$AAd?$AA?2?$AAs?$AAe?$AAl?$AAf?$AA_?$AAx?$AA8?$AA6?$AA?2?$AAc@ 005f2d30     LIBCMTD:fp8.obj
 0003:0002cdb0       __real@4150017ec0000000    005f2db0     LIBCMTD:_testfdiv_.obj
 0003:0002cdc0       __real@4147ffff80000000    005f2dc0     LIBCMTD:_testfdiv_.obj
 0003:0002cdcc       ??_C@_0BK@NHEOCAHP@IsProcessorFeaturePresent?$AA@ 005f2dcc     LIBCMTD:_testfdiv_.obj
 0003:0002cdec       ??_C@_08CPNIBGIE@KERNEL32?$AA@ 005f2dec     LIBCMTD:_testfdiv_.obj
 0003:0002cdf8       ??_C@_1CA@CBMNPEO@?$AAs?$AAi?$AAz?$AAe?$AAI?$AAn?$AAB?$AAy?$AAt?$AAe?$AAs?$AA?5?$AA?$DO?$AA?5?$AA0?$AA?$AA@ 005f2df8     LIBCMTD:cvt.obj
 0003:0002ce20       ??_C@_1BC@INKAPMHI@?$AA_?$AAc?$AAf?$AAt?$AAo?$AAe?$AA_?$AAl?$AA?$AA@ 005f2e20     LIBCMTD:cvt.obj
 0003:0002ce38       ??_C@_1GO@NCCGBNKI@?$AAf?$AA?3?$AA?2?$AAd?$AAd?$AA?2?$AAv?$AAc?$AAt?$AAo?$AAo?$AAl?$AAs?$AA?2?$AAc?$AAr?$AAt?$AA_?$AAb?$AAl?$AAd?$AA?2?$AAs?$AAe?$AAl?$AAf?$AA_?$AAx?$AA8?$AA6?$AA?2?$AAc@ 005f2e38     LIBCMTD:cvt.obj
 0003:0002cebc       ??_C@_1BI@ICGGMGLK@?$AAb?$AAu?$AAf?$AA?5?$AA?$CB?$AA?$DN?$AA?5?$AAN?$AAU?$AAL?$AAL?$AA?$AA@ 005f2ebc     LIBCMTD:cvt.obj
 0003:0002ced8       ??_C@_05KLBDPFGC@e?$CL000?$AA@ 005f2ed8     LIBCMTD:cvt.obj
 0003:0002cee0       ??_C@_1LE@EOIFGNCJ@?$AAs?$AAt?$AAr?$AAc?$AAp?$AAy?$AA_?$AAs?$AA?$CI?$AAp?$AA?0?$AA?5?$AA?$CI?$AAs?$AAi?$AAz?$AAe?$AAI?$AAn?$AAB?$AAy?$AAt?$AAe?$AAs?$AA?5?$AA?$DN?$AA?$DN?$AA?5?$AA?$CI?$AAs?$AAi?$AAz@ 005f2ee0     LIBCMTD:cvt.obj
 0003:0002cfb8       ??_C@_1HE@NACBNDPP@?$AAs?$AAi?$AAz?$AAe?$AAI?$AAn?$AAB?$AAy?$AAt?$AAe?$AAs?$AA?5?$AA?$DO?$AA?5?$AA?$CI?$AAs?$AAi?$AAz?$AAe?$AA_?$AAt?$AA?$CJ?$AA?$CI?$AA3?$AA?5?$AA?$CL?$AA?5?$AA?$CI?$AAn?$AAd?$AAe?$AAc@ 005f2fb8     LIBCMTD:cvt.obj
 0003:0002d044       ??_C@_1BE@OLBNEILL@?$AA_?$AAc?$AAf?$AAt?$AAo?$AAe?$AA2?$AA_?$AAl?$AA?$AA@ 005f3044     LIBCMTD:cvt.obj
 0003:0002d060       ??_C@_1FC@IKIMAMJB@?$AAs?$AAi?$AAz?$AAe?$AAI?$AAn?$AAB?$AAy?$AAt?$AAe?$AAs?$AA?5?$AA?$DO?$AA?5?$AA?$CI?$AAs?$AAi?$AAz?$AAe?$AA_?$AAt?$AA?$CJ?$AA?$CI?$AA1?$AA?5?$AA?$CL?$AA?5?$AA4?$AA?5?$AA?$CL?$AA?5?$AAn@ 005f3060     LIBCMTD:cvt.obj
 0003:0002d0c4       ??_C@_1BC@JOKPCIC@?$AA_?$AAc?$AAf?$AAt?$AAo?$AAa?$AA_?$AAl?$AA?$AA@ 005f30c4     LIBCMTD:cvt.obj
 0003:0002d0dc       ??_C@_1BC@DCPPLJL@?$AA_?$AAc?$AAf?$AAt?$AAo?$AAf?$AA_?$AAl?$AA?$AA@ 005f30dc     LIBCMTD:cvt.obj
 0003:0002d0f4       ??_C@_1BE@CKPDLI@?$AA_?$AAc?$AAf?$AAt?$AAo?$AAf?$AA2?$AA_?$AAl?$AA?$AA@ 005f30f4     LIBCMTD:cvt.obj
 0003:0002d10c       ??_C@_1BC@MPIFPLAF@?$AA_?$AAc?$AAf?$AAt?$AAo?$AAg?$AA_?$AAl?$AA?$AA@ 005f310c     LIBCMTD:cvt.obj
 0003:0002d124       ??_C@_1BA@JGHIEKKM@?$AA_?$AAf?$AAi?$AAl?$AAe?$AAn?$AAo?$AA?$AA@ 005f3124     LIBCMTD:fileno.obj
 0003:0002d138       ??_C@_1GA@PBJHELNC@?$AAf?$AA?3?$AA?2?$AAd?$AAd?$AA?2?$AAv?$AAc?$AAt?$AAo?$AAo?$AAl?$AAs?$AA?2?$AAc?$AAr?$AAt?$AA_?$AAb?$AAl?$AAd?$AA?2?$AAs?$AAe?$AAl?$AAf?$AA_?$AAx?$AA8?$AA6?$AA?2?$AAc@ 005f3138     LIBCMTD:fileno.obj
 0003:0002d1b0       ??_C@_1GE@MIMBMOF@?$AAf?$AA?3?$AA?2?$AAd?$AAd?$AA?2?$AAv?$AAc?$AAt?$AAo?$AAo?$AAl?$AAs?$AA?2?$AAc?$AAr?$AAt?$AA_?$AAb?$AAl?$AAd?$AA?2?$AAs?$AAe?$AAl?$AAf?$AA_?$AAx?$AA8?$AA6?$AA?2?$AAc@ 005f31b0     LIBCMTD:_freebuf.obj
 0003:0002d228       ??_C@_1BO@KIJENGPH@?$AAs?$AAt?$AAr?$AAe?$AAa?$AAm?$AA?5?$AA?$CB?$AA?$DN?$AA?5?$AAN?$AAU?$AAL?$AAL?$AA?$AA@ 005f3228     LIBCMTD:_freebuf.obj
 0003:0002d24c       ??_C@_1BA@IIKEPOGH@?$AA_?$AAf?$AAi?$AAl?$AAb?$AAu?$AAf?$AA?$AA@ 005f324c     LIBCMTD:_filbuf.obj
 0003:0002d260       ??_C@_1GC@CHFNJKFB@?$AAf?$AA?3?$AA?2?$AAd?$AAd?$AA?2?$AAv?$AAc?$AAt?$AAo?$AAo?$AAl?$AAs?$AA?2?$AAc?$AAr?$AAt?$AA_?$AAb?$AAl?$AAd?$AA?2?$AAs?$AAe?$AAl?$AAf?$AA_?$AAx?$AA8?$AA6?$AA?2?$AAc@ 005f3260     LIBCMTD:_filbuf.obj
 0003:0002d2d8       ??_C@_1CK@DDKKOLAN@?$AAs?$AAi?$AAz?$AAe?$AAI?$AAn?$AAB?$AAy?$AAt?$AAe?$AAs?$AA?5?$AA?$DO?$AA?$DN?$AA?5?$AAc?$AAo?$AAu?$AAn?$AAt?$AA?$AA@ 005f32d8     LIBCMTD:memcpy_s.obj
 0003:0002d30c       ??_C@_1BI@DCHLDCPP@?$AAs?$AAr?$AAc?$AA?5?$AA?$CB?$AA?$DN?$AA?5?$AAN?$AAU?$AAL?$AAL?$AA?$AA@ 005f330c     LIBCMTD:memcpy_s.obj
 0003:0002d328       ??_C@_1BC@GKHDJMGB@?$AAm?$AAe?$AAm?$AAc?$AAp?$AAy?$AA_?$AAs?$AA?$AA@ 005f3328     LIBCMTD:memcpy_s.obj
 0003:0002d340       ??_C@_1GE@NEOPGGBM@?$AAf?$AA?3?$AA?2?$AAd?$AAd?$AA?2?$AAv?$AAc?$AAt?$AAo?$AAo?$AAl?$AAs?$AA?2?$AAc?$AAr?$AAt?$AA_?$AAb?$AAl?$AAd?$AA?2?$AAs?$AAe?$AAl?$AAf?$AA_?$AAx?$AA8?$AA6?$AA?2?$AAc@ 005f3340     LIBCMTD:memcpy_s.obj
 0003:0002d3b8       ??_C@_1BI@GKKCBDMD@?$AAd?$AAs?$AAt?$AA?5?$AA?$CB?$AA?$DN?$AA?5?$AAN?$AAU?$AAL?$AAL?$AA?$AA@ 005f33b8     LIBCMTD:memcpy_s.obj
 0003:0002d3fc       ??_C@_1CI@KEDPFCAL@?$AA?$CI?$AA?$CK?$AAm?$AAo?$AAd?$AAe?$AA?5?$AA?$DN?$AA?$DN?$AA?5?$AA_?$AAT?$AA?$CI?$AA?8?$AA?2?$AA0?$AA?8?$AA?$CJ?$AA?$CJ?$AA?$AA@ 005f33fc     LIBCMTD:_open.obj
 0003:0002d42c       ??_C@_1BE@DONHJJKE@?$AA_?$AAo?$AAp?$AAe?$AAn?$AAf?$AAi?$AAl?$AAe?$AA?$AA@ 005f342c     LIBCMTD:_open.obj
 0003:0002d444       ??_C@_1DK@PKMJBLLN@?$AA?$CI?$AA?$CC?$AAI?$AAn?$AAv?$AAa?$AAl?$AAi?$AAd?$AA?5?$AAf?$AAi?$AAl?$AAe?$AA?5?$AAo?$AAp?$AAe?$AAn?$AA?5?$AAm?$AAo?$AAd?$AAe?$AA?$CC?$AA?0?$AA0?$AA?$CJ?$AA?$AA@ 005f3444     LIBCMTD:_open.obj
 0003:0002d48c       ??_C@_1BK@HGLMNMEC@?$AAm?$AAo?$AAd?$AAe?$AA?5?$AA?$CB?$AA?$DN?$AA?5?$AAN?$AAU?$AAL?$AAL?$AA?$AA@ 005f348c     LIBCMTD:_open.obj
 0003:0002d4b0       ??_C@_1FO@POGAHKND@?$AAf?$AA?3?$AA?2?$AAd?$AAd?$AA?2?$AAv?$AAc?$AAt?$AAo?$AAo?$AAl?$AAs?$AA?2?$AAc?$AAr?$AAt?$AA_?$AAb?$AAl?$AAd?$AA?2?$AAs?$AAe?$AAl?$AAf?$AA_?$AAx?$AA8?$AA6?$AA?2?$AAc@ 005f34b0     LIBCMTD:_open.obj
 0003:0002d520       ??_C@_1CC@JBMDNKJP@?$AAf?$AAi?$AAl?$AAe?$AAn?$AAa?$AAm?$AAe?$AA?5?$AA?$CB?$AA?$DN?$AA?5?$AAN?$AAU?$AAL?$AAL?$AA?$AA@ 005f3520     LIBCMTD:_open.obj
 0003:0002d548       ??_C@_0DA@NLPACBPK@f?3?2dd?2vctools?2crt_bld?2self_x86?2c@ 005f3548     LIBCMTD:stream.obj
 0003:0002d584       ??_C@_1BC@MJNBEDIJ@?$AA_?$AAi?$AAn?$AAp?$AAu?$AAt?$AA_?$AAl?$AA?$AA@ 005f3584     LIBCMTD:input.obj
 0003:0002d5a0       ??_C@_1FO@LDDBLKJ@?$AAf?$AA?3?$AA?2?$AAd?$AAd?$AA?2?$AAv?$AAc?$AAt?$AAo?$AAo?$AAl?$AAs?$AA?2?$AAc?$AAr?$AAt?$AA_?$AAb?$AAl?$AAd?$AA?2?$AAs?$AAe?$AAl?$AAf?$AA_?$AAx?$AA8?$AA6?$AA?2?$AAc@ 005f35a0     LIBCMTD:input.obj
 0003:0002d610       ??_C@_0CP@MMGCGBFO@f?3?2dd?2vctools?2crt_bld?2self_x86?2c@ 005f3610     LIBCMTD:input.obj
 0003:0002d648       ??_C@_1DO@MBOKMJPK@?$AAn?$AAF?$AAl?$AAo?$AAa?$AAt?$AAS?$AAt?$AAr?$AAU?$AAs?$AAe?$AAd?$AA?$DM?$AA?$DN?$AA?$CI?$AA?$CK?$AAp?$AAn?$AAF?$AAl?$AAo?$AAa?$AAt?$AAS?$AAt?$AAr?$AAS?$AAz?$AA?$CJ?$AA?$AA@ 005f3648     LIBCMTD:input.obj
 0003:0002d694       ??_C@_1DG@MPPGJOHD@?$AA?$CI?$AA?$CC?$AAI?$AAn?$AAv?$AAa?$AAl?$AAi?$AAd?$AA?5?$AAI?$AAn?$AAp?$AAu?$AAt?$AA?5?$AAF?$AAo?$AAr?$AAm?$AAa?$AAt?$AA?$CC?$AA?0?$AA0?$AA?$CJ?$AA?$AA@ 005f3694     LIBCMTD:inputs.obj
 0003:0002d6d4       ??_C@_1BG@LBKFJFHM@?$AA_?$AAi?$AAn?$AAp?$AAu?$AAt?$AA_?$AAs?$AA_?$AAl?$AA?$AA@ 005f36d4     LIBCMTD:inputs.obj
 0003:0002d6f0       ??_C@_1BG@GLLONOEH@?$AA_?$AAs?$AAt?$AAr?$AAi?$AAc?$AAm?$AAp?$AA_?$AAl?$AA?$AA@ 005f36f0     LIBCMTD:stricmp.obj
 0003:0002d710       ??_C@_1GC@OILHAOLL@?$AAf?$AA?3?$AA?2?$AAd?$AAd?$AA?2?$AAv?$AAc?$AAt?$AAo?$AAo?$AAl?$AAs?$AA?2?$AAc?$AAr?$AAt?$AA_?$AAb?$AAl?$AAd?$AA?2?$AAs?$AAe?$AAl?$AAf?$AA_?$AAx?$AA8?$AA6?$AA?2?$AAc@ 005f3710     LIBCMTD:stricmp.obj
 0003:0002d788       ??_C@_1BC@JLGKKIIG@?$AA_?$AAs?$AAt?$AAr?$AAi?$AAc?$AAm?$AAp?$AA?$AA@ 005f3788     LIBCMTD:stricmp.obj
 0003:0002d7a0       ??_C@_0DA@HMCPFNKN@f?3?2dd?2vctools?2crt_bld?2self_x86?2c@ 005f37a0     LIBCMTD:onexit.obj
 0003:0002d7dc       ??_C@_0O@NLDKAIKN@EncodePointer?$AA@ 005f37dc     LIBCMTD:tidtable.obj
 0003:0002d7ec       ??_C@_1BK@DBDEIDLH@?$AAK?$AAE?$AAR?$AAN?$AAE?$AAL?$AA3?$AA2?$AA?4?$AAD?$AAL?$AAL?$AA?$AA@ 005f37ec     LIBCMTD:tidtable.obj
 0003:0002d80c       ??_C@_0O@KBPMFGHI@DecodePointer?$AA@ 005f380c     LIBCMTD:tidtable.obj
 0003:0002d81c       ??_C@_0DC@LMJHGCKC@f?3?2dd?2vctools?2crt_bld?2self_x86?2c@ 005f381c     LIBCMTD:tidtable.obj
 0003:0002d858       ??_C@_07PEJMOBNF@FlsFree?$AA@ 005f3858     LIBCMTD:tidtable.obj
 0003:0002d864       ??_C@_0M@JCPCPOEF@FlsSetValue?$AA@ 005f3864     LIBCMTD:tidtable.obj
 0003:0002d874       ??_C@_0M@GDNOONDI@FlsGetValue?$AA@ 005f3874     LIBCMTD:tidtable.obj
 0003:0002d884       ??_C@_08KNHFBNJ@FlsAlloc?$AA@ 005f3884     LIBCMTD:tidtable.obj
 0003:0002d890       ??_C@_0P@GGKDKEEG@runtime?5error?5?$AA@ 005f3890     LIBCMTD:crt0msg.obj
 0003:0002d8a4       ??_C@_02PCIJFNDE@?$AN?6?$AA@ 005f38a4     LIBCMTD:crt0msg.obj
 0003:0002d8a8       ??_C@_0O@MJNIPGOH@TLOSS?5error?$AN?6?$AA@ 005f38a8     LIBCMTD:crt0msg.obj
 0003:0002d8b8       ??_C@_0N@BONNPDHF@SING?5error?$AN?6?$AA@ 005f38b8     LIBCMTD:crt0msg.obj
 0003:0002d8c8       ??_C@_0P@MBDAJNE@DOMAIN?5error?$AN?6?$AA@ 005f38c8     LIBCMTD:crt0msg.obj
 0003:0002d8e0       ??_C@_0BFB@HKKMCDOL@R6034?$AN?6An?5application?5has?5made?5a@ 005f38e0     LIBCMTD:crt0msg.obj
 0003:0002da78       ??_C@_0PH@EPAFIJ@R6033?$AN?6?9?5Attempt?5to?5use?5MSIL?5cod@ 005f3a78     LIBCMTD:crt0msg.obj
 0003:0002dba0       ??_C@_0DD@BKEEABMM@R6032?$AN?6?9?5not?5enough?5space?5for?5lo@ 005f3ba0     LIBCMTD:crt0msg.obj
 0003:0002dbe0       ??_C@_0GD@OFKILIED@R6031?$AN?6?9?5Attempt?5to?5initialize?5t@ 005f3be0     LIBCMTD:crt0msg.obj
 0003:0002dc58       ??_C@_0BP@LPMHJOKI@R6030?$AN?6?9?5CRT?5not?5initialized?$AN?6?$AA@ 005f3c58     LIBCMTD:crt0msg.obj
 0003:0002dc80       ??_C@_0CF@KJDAIALP@R6028?$AN?6?9?5unable?5to?5initialize?5he@ 005f3c80     LIBCMTD:crt0msg.obj
 0003:0002dcac       ??_C@_0DF@GAKBPDFP@R6027?$AN?6?9?5not?5enough?5space?5for?5lo@ 005f3cac     LIBCMTD:crt0msg.obj
 0003:0002dcec       ??_C@_0DF@IBLNNAIG@R6026?$AN?6?9?5not?5enough?5space?5for?5st@ 005f3cec     LIBCMTD:crt0msg.obj
 0003:0002dd2c       ??_C@_0CG@IOHKGFNJ@R6025?$AN?6?9?5pure?5virtual?5function?5c@ 005f3d2c     LIBCMTD:crt0msg.obj
 0003:0002dd5c       ??_C@_0DF@JIJJFJDC@R6024?$AN?6?9?5not?5enough?5space?5for?5_o@ 005f3d5c     LIBCMTD:crt0msg.obj
 0003:0002dd9c       ??_C@_0CJ@EGEJHFME@R6019?$AN?6?9?5unable?5to?5open?5console?5@ 005f3d9c     LIBCMTD:crt0msg.obj
 0003:0002ddd0       ??_C@_0CB@GNHNIELH@R6018?$AN?6?9?5unexpected?5heap?5error?$AN?6@ 005f3dd0     LIBCMTD:crt0msg.obj
 0003:0002ddf8       ??_C@_0CN@FOLDKNG@R6017?$AN?6?9?5unexpected?5multithread?5@ 005f3df8     LIBCMTD:crt0msg.obj
 0003:0002de30       ??_C@_0CM@FAHFJNHO@R6016?$AN?6?9?5not?5enough?5space?5for?5th@ 005f3e30     LIBCMTD:crt0msg.obj
 0003:0002de68       ??_C@_0JG@LBKMGKLD@?$AN?6This?5application?5has?5requested@ 005f3e68     LIBCMTD:crt0msg.obj
 0003:0002df1c       ??_C@_0CM@FLCNIPKK@R6009?$AN?6?9?5not?5enough?5space?5for?5en@ 005f3f1c     LIBCMTD:crt0msg.obj
 0003:0002df50       ??_C@_0CK@KMMJOAPP@R6008?$AN?6?9?5not?5enough?5space?5for?5ar@ 005f3f50     LIBCMTD:crt0msg.obj
 0003:0002df84       ??_C@_0CN@LEKKICBM@R6002?$AN?6?9?5floating?5point?5support?5@ 005f3f84     LIBCMTD:crt0msg.obj
 0003:0002dfbc       ??_C@_0CF@GOGNBNAK@Microsoft?5Visual?5C?$CL?$CL?5Runtime?5Lib@ 005f3fbc     LIBCMTD:crt0msg.obj
 0003:0002dfe8       ??_C@_1KC@JBIKIPNF@?$AAs?$AAt?$AAr?$AAc?$AAa?$AAt?$AA_?$AAs?$AA?$CI?$AAo?$AAu?$AAt?$AAm?$AAs?$AAg?$AA?0?$AA?5?$AA?$CI?$AAs?$AAi?$AAz?$AAe?$AAo?$AAf?$AA?$CI?$AAo?$AAu?$AAt?$AAm?$AAs?$AAg?$AA?$CJ@ 005f3fe8     LIBCMTD:crt0msg.obj
 0003:0002e0ac       ??_C@_02PHMGELLB@?6?6?$AA@ 005f40ac     LIBCMTD:crt0msg.obj
 0003:0002e0b0       ??_C@_1HO@POLIDBMF@?$AAs?$AAt?$AAr?$AAc?$AAa?$AAt?$AA_?$AAs?$AA?$CI?$AAo?$AAu?$AAt?$AAm?$AAs?$AAg?$AA?0?$AA?5?$AA?$CI?$AAs?$AAi?$AAz?$AAe?$AAo?$AAf?$AA?$CI?$AAo?$AAu?$AAt?$AAm?$AAs?$AAg?$AA?$CJ@ 005f40b0     LIBCMTD:crt0msg.obj
 0003:0002e148       ??_C@_03KHICJKCI@?4?4?4?$AA@ 005f4148     LIBCMTD:crt0msg.obj
 0003:0002e150       ??_C@_1HG@CJJGKFHK@?$AAs?$AAt?$AAr?$AAn?$AAc?$AAp?$AAy?$AA_?$AAs?$AA?$CI?$AAp?$AAc?$AAh?$AA?0?$AA?5?$AAp?$AAr?$AAo?$AAg?$AAn?$AAa?$AAm?$AAe?$AA_?$AAs?$AAi?$AAz?$AAe?$AA?5?$AA?9?$AA?5?$AA?$CI@ 005f4150     LIBCMTD:crt0msg.obj
 0003:0002e1e0       ??_C@_0BH@DNAGHKFM@?$DMprogram?5name?5unknown?$DO?$AA@ 005f41e0     LIBCMTD:crt0msg.obj
 0003:0002e200       ??_C@_1HI@FOOPEDMH@?$AAs?$AAt?$AAr?$AAc?$AAp?$AAy?$AA_?$AAs?$AA?$CI?$AAp?$AAr?$AAo?$AAg?$AAn?$AAa?$AAm?$AAe?$AA?0?$AA?5?$AAp?$AAr?$AAo?$AAg?$AAn?$AAa?$AAm?$AAe?$AA_?$AAs?$AAi?$AAz?$AAe@ 005f4200     LIBCMTD:crt0msg.obj
 0003:0002e290       ??_C@_0BK@OFGJDLJJ@Runtime?5Error?$CB?6?6Program?3?5?$AA@ 005f4290     LIBCMTD:crt0msg.obj
 0003:0002e2b0       ??_C@_1KM@NKKPELHG@?$AAs?$AAt?$AAr?$AAc?$AAp?$AAy?$AA_?$AAs?$AA?$CI?$AAo?$AAu?$AAt?$AAm?$AAs?$AAg?$AA?0?$AA?5?$AA?$CI?$AAs?$AAi?$AAz?$AAe?$AAo?$AAf?$AA?$CI?$AAo?$AAu?$AAt?$AAm?$AAs?$AAg?$AA?$CJ@ 005f42b0     LIBCMTD:crt0msg.obj
 0003:0002e380       ??_C@_1BI@EAHMBMEC@?$AA_?$AAN?$AAM?$AAS?$AAG?$AA_?$AAW?$AAR?$AAI?$AAT?$AAE?$AA?$AA@ 005f4380     LIBCMTD:crt0msg.obj
 0003:0002e3a0       ??_C@_1GC@HKOJBOFF@?$AAf?$AA?3?$AA?2?$AAd?$AAd?$AA?2?$AAv?$AAc?$AAt?$AAo?$AAo?$AAl?$AAs?$AA?2?$AAc?$AAr?$AAt?$AA_?$AAb?$AAl?$AAd?$AA?2?$AAs?$AAe?$AAl?$AAf?$AA_?$AAx?$AA8?$AA6?$AA?2?$AAc@ 005f43a0     LIBCMTD:crt0msg.obj
 0003:0002e418       ??_C@_0DB@MHMEONEC@f?3?2dd?2vctools?2crt_bld?2self_x86?2c@ 005f4418     LIBCMTD:mbctype.obj
 0003:0002e454       ??_C@_0CP@MKONOLCI@f?3?2dd?2vctools?2crt_bld?2self_x86?2c@ 005f4454     LIBCMTD:mlock.obj
 0003:0002e490       __XcptActTab               005f4490     LIBCMTD:winxfltr.obj
 0003:0002e520       ??_C@_1O@EJLDHPPL@?$AAs?$AAi?$AAg?$AAn?$AAa?$AAl?$AA?$AA@ 005f4520     LIBCMTD:winsig.obj
 0003:0002e530       ??_C@_1GA@DBECNFG@?$AAf?$AA?3?$AA?2?$AAd?$AAd?$AA?2?$AAv?$AAc?$AAt?$AAo?$AAo?$AAl?$AAs?$AA?2?$AAc?$AAr?$AAt?$AA_?$AAb?$AAl?$AAd?$AA?2?$AAs?$AAe?$AAl?$AAf?$AA_?$AAx?$AA8?$AA6?$AA?2?$AAc@ 005f4530     LIBCMTD:winsig.obj
 0003:0002e5a4       ??_C@_1DO@MLNEDKGB@?$AA?$CI?$AA?$CC?$AAI?$AAn?$AAv?$AAa?$AAl?$AAi?$AAd?$AA?5?$AAs?$AAi?$AAg?$AAn?$AAa?$AAl?$AA?5?$AAo?$AAr?$AA?5?$AAe?$AAr?$AAr?$AAo?$AAr?$AA?$CC?$AA?0?$AA?5?$AA0?$AA?$CJ?$AA?$AA@ 005f45a4     LIBCMTD:winsig.obj
 0003:0002e5f0       ??_C@_0DA@ELJOOIJF@f?3?2dd?2vctools?2crt_bld?2self_x86?2c@ 005f45f0     LIBCMTD:winsig.obj
 0003:0002e62c       ??_C@_1M@DMJEIKHL@?$AAr?$AAa?$AAi?$AAs?$AAe?$AA?$AA@ 005f462c     LIBCMTD:winsig.obj
 0003:0002e63c       ??_C@_0BC@JEAENNKH@SystemFunction036?$AA@ 005f463c     LIBCMTD:rand_s.obj
 0003:0002e658       ??_C@_1GA@EBEDGGGB@?$AA?$CI?$AA?$CC?$AAr?$AAa?$AAn?$AAd?$AA_?$AAs?$AA?5?$AAi?$AAs?$AA?5?$AAn?$AAo?$AAt?$AA?5?$AAa?$AAv?$AAa?$AAi?$AAl?$AAa?$AAb?$AAl?$AAe?$AA?5?$AAo?$AAn?$AA?5?$AAt?$AAh?$AAi@ 005f4658     LIBCMTD:rand_s.obj
 0003:0002e6cc       ??_C@_0N@JJPEKNFO@ADVAPI32?4DLL?$AA@ 005f46cc     LIBCMTD:rand_s.obj
 0003:0002e6dc       ??_C@_1O@IJGPPOGF@?$AAr?$AAa?$AAn?$AAd?$AA_?$AAs?$AA?$AA@ 005f46dc     LIBCMTD:rand_s.obj
 0003:0002e6f0       ??_C@_1GA@HBGBBKCD@?$AAf?$AA?3?$AA?2?$AAd?$AAd?$AA?2?$AAv?$AAc?$AAt?$AAo?$AAo?$AAl?$AAs?$AA?2?$AAc?$AAr?$AAt?$AA_?$AAb?$AAl?$AAd?$AA?2?$AAs?$AAe?$AAl?$AAf?$AA_?$AAx?$AA8?$AA6?$AA?2?$AAc@ 005f46f0     LIBCMTD:rand_s.obj
 0003:0002e764       ??_C@_1CK@GFDNDKK@?$AA_?$AAR?$AAa?$AAn?$AAd?$AAo?$AAm?$AAV?$AAa?$AAl?$AAu?$AAe?$AA?5?$AA?$CB?$AA?$DN?$AA?5?$AAN?$AAU?$AAL?$AAL?$AA?$AA@ 005f4764     LIBCMTD:rand_s.obj
 0003:0002e798       ??_C@_1GO@NGIGJNHH@?$AAs?$AAt?$AAr?$AAn?$AAc?$AAp?$AAy?$AA_?$AAs?$AA?$CI?$AA?$CK?$AAs?$AAt?$AAr?$AAa?$AAd?$AAd?$AAr?$AAe?$AAs?$AAs?$AA?0?$AA?5?$AAo?$AAu?$AAt?$AAs?$AAi?$AAz?$AAe?$AA?0?$AA?5@ 005f4798     LIBCMTD:inithelp.obj
 0003:0002e81c       ??_C@_1CA@KHHCPEI@?$AA_?$AA_?$AAg?$AAe?$AAt?$AAl?$AAo?$AAc?$AAa?$AAl?$AAe?$AAi?$AAn?$AAf?$AAo?$AA?$AA@ 005f481c     LIBCMTD:inithelp.obj
 0003:0002e848       ??_C@_1GE@PLPIMDHG@?$AAf?$AA?3?$AA?2?$AAd?$AAd?$AA?2?$AAv?$AAc?$AAt?$AAo?$AAo?$AAl?$AAs?$AA?2?$AAc?$AAr?$AAt?$AA_?$AAb?$AAl?$AAd?$AA?2?$AAs?$AAe?$AAl?$AAf?$AA_?$AAx?$AA8?$AA6?$AA?2?$AAc@ 005f4848     LIBCMTD:inithelp.obj
 0003:0002e8c0       ??_C@_0DC@CFDMMFIG@f?3?2dd?2vctools?2crt_bld?2self_x86?2c@ 005f48c0     LIBCMTD:inithelp.obj
 0003:0002e900       ??_C@_1GG@CDHAPCGF@?$AAf?$AA?3?$AA?2?$AAd?$AAd?$AA?2?$AAv?$AAc?$AAt?$AAo?$AAo?$AAl?$AAs?$AA?2?$AAc?$AAr?$AAt?$AA_?$AAb?$AAl?$AAd?$AA?2?$AAs?$AAe?$AAl?$AAf?$AA_?$AAx?$AA8?$AA6?$AA?2?$AAc@ 005f4900     LIBCMTD:handler.obj
 0003:0002e97c       ??_C@_1BC@JLLICHIC@?$AAp?$AAn?$AAh?$AA?5?$AA?$DN?$AA?$DN?$AA?5?$AA0?$AA?$AA@ 005f497c     LIBCMTD:handler.obj
 0003:0002e994       ??_C@_1CA@OEHMHBJF@?$AAv?$AAf?$AAp?$AAr?$AAi?$AAn?$AAt?$AAf?$AA_?$AAh?$AAe?$AAl?$AAp?$AAe?$AAr?$AA?$AA@ 005f4994     LIBCMTD:vfprintf.obj
 0003:0002e9c0       ??_C@_1GE@PEEPNGBM@?$AAf?$AA?3?$AA?2?$AAd?$AAd?$AA?2?$AAv?$AAc?$AAt?$AAo?$AAo?$AAl?$AAs?$AA?2?$AAc?$AAr?$AAt?$AA_?$AAb?$AAl?$AAd?$AA?2?$AAs?$AAe?$AAl?$AAf?$AA_?$AAx?$AA8?$AA6?$AA?2?$AAc@ 005f49c0     LIBCMTD:vfprintf.obj
 0003:0002ea44       ??_C@_1BA@NGNGNDEP@?$AA_?$AAc?$AAp?$AAu?$AAt?$AAw?$AAs?$AA?$AA@ 005f4a44     LIBCMTD:putwch.obj
 0003:0002ea58       ??_C@_1GA@NKLOJFIJ@?$AAf?$AA?3?$AA?2?$AAd?$AAd?$AA?2?$AAv?$AAc?$AAt?$AAo?$AAo?$AAl?$AAs?$AA?2?$AAc?$AAr?$AAt?$AA_?$AAb?$AAl?$AAd?$AA?2?$AAs?$AAe?$AAl?$AAf?$AA_?$AAx?$AA8?$AA6?$AA?2?$AAc@ 005f4a58     LIBCMTD:putwch.obj
 0003:0002ead0       ??_C@_1GA@GFFDGGFH@?$AAf?$AA?3?$AA?2?$AAd?$AAd?$AA?2?$AAv?$AAc?$AAt?$AAo?$AAo?$AAl?$AAs?$AA?2?$AAc?$AAr?$AAt?$AA_?$AAb?$AAl?$AAd?$AA?2?$AAs?$AAe?$AAl?$AAf?$AA_?$AAx?$AA8?$AA6?$AA?2?$AAc@ 005f4ad0     LIBCMTD:mbtowc.obj
 0003:0002eb48       ??_C@_1NC@EINCOKCO@?$AA_?$AAl?$AAo?$AAc?$AA_?$AAu?$AAp?$AAd?$AAa?$AAt?$AAe?$AA?4?$AAG?$AAe?$AAt?$AAL?$AAo?$AAc?$AAa?$AAl?$AAe?$AAT?$AA?$CI?$AA?$CJ?$AA?9?$AA?$DO?$AAl?$AAo?$AAc?$AAi?$AAn?$AAf@ 005f4b48     LIBCMTD:mbtowc.obj
 0003:0002ec44       ??_C@_1BA@LEBDGIHM@?$AA_?$AAi?$AAs?$AAa?$AAt?$AAt?$AAy?$AA?$AA@ 005f4c44     LIBCMTD:isatty.obj
 0003:0002ec58       ??_C@_1GA@LPGDJDEN@?$AAf?$AA?3?$AA?2?$AAd?$AAd?$AA?2?$AAv?$AAc?$AAt?$AAo?$AAo?$AAl?$AAs?$AA?2?$AAc?$AAr?$AAt?$AA_?$AAb?$AAl?$AAd?$AA?2?$AAs?$AAe?$AAl?$AAf?$AA_?$AAx?$AA8?$AA6?$AA?2?$AAc@ 005f4c58     LIBCMTD:isatty.obj
 0003:0002eccc       ??_C@_0BI@DFKBFLJE@GetProcessWindowStation?$AA@ 005f4ccc     LIBCMTD:crtmboxw.obj
 0003:0002ece8       ??_C@_0BK@DEKFELLI@GetUserObjectInformationW?$AA@ 005f4ce8     LIBCMTD:crtmboxw.obj
 0003:0002ed08       ??_C@_0BD@HHGDFDBJ@GetLastActivePopup?$AA@ 005f4d08     LIBCMTD:crtmboxw.obj
 0003:0002ed20       ??_C@_0BA@HNOPNCHB@GetActiveWindow?$AA@ 005f4d20     LIBCMTD:crtmboxw.obj
 0003:0002ed34       ??_C@_0M@DLDCCGNP@MessageBoxW?$AA@ 005f4d34     LIBCMTD:crtmboxw.obj
 0003:0002ed44       ??_C@_1BG@GOEBHBDC@?$AAU?$AAS?$AAE?$AAR?$AA3?$AA2?$AA?4?$AAD?$AAL?$AAL?$AA?$AA@ 005f4d44     LIBCMTD:crtmboxw.obj
 0003:0002ed60       ??_C@_1CM@HABGDNLJ@?$AAl?$AAe?$AAn?$AAg?$AAt?$AAh?$AA?5?$AA?$DM?$AA?5?$AAs?$AAi?$AAz?$AAe?$AAI?$AAn?$AAT?$AAC?$AAh?$AAa?$AAr?$AAs?$AA?$AA@ 005f4d60     LIBCMTD:xtows.obj
 0003:0002ed94       ??_C@_1DE@PCJGDBBD@?$AA2?$AA?5?$AA?$DM?$AA?$DN?$AA?5?$AAr?$AAa?$AAd?$AAi?$AAx?$AA?5?$AA?$CG?$AA?$CG?$AA?5?$AAr?$AAa?$AAd?$AAi?$AAx?$AA?5?$AA?$DM?$AA?$DN?$AA?5?$AA3?$AA6?$AA?$AA@ 005f4d94     LIBCMTD:xtows.obj
 0003:0002edd8       ??_C@_1FA@MKGGAGEI@?$AAs?$AAi?$AAz?$AAe?$AAI?$AAn?$AAT?$AAC?$AAh?$AAa?$AAr?$AAs?$AA?5?$AA?$DO?$AA?5?$AA?$CI?$AAs?$AAi?$AAz?$AAe?$AA_?$AAt?$AA?$CJ?$AA?$CI?$AAi?$AAs?$AA_?$AAn?$AAe?$AAg?$AA?5?$AA?$DP@ 005f4dd8     LIBCMTD:xtows.obj
 0003:0002ee38       ??_C@_1CC@JNJFIMGE@?$AAs?$AAi?$AAz?$AAe?$AAI?$AAn?$AAT?$AAC?$AAh?$AAa?$AAr?$AAs?$AA?5?$AA?$DO?$AA?5?$AA0?$AA?$AA@ 005f4e38     LIBCMTD:xtows.obj
 0003:0002ee60       ??_C@_1O@NCBFODOE@?$AAx?$AAt?$AAo?$AAw?$AA_?$AAs?$AA?$AA@ 005f4e60     LIBCMTD:xtows.obj
 0003:0002ee70       ??_C@_1FM@MFCBFCGB@?$AAf?$AA?3?$AA?2?$AAd?$AAd?$AA?2?$AAv?$AAc?$AAt?$AAo?$AAo?$AAl?$AAs?$AA?2?$AAc?$AAr?$AAt?$AA_?$AAb?$AAl?$AAd?$AA?2?$AAs?$AAe?$AAl?$AAf?$AA_?$AAx?$AA8?$AA6?$AA?2?$AAc@ 005f4e70     LIBCMTD:xtows.obj
 0003:0002eee0       ??_C@_1BC@HDEJCFPB@?$AAx?$AA6?$AA4?$AAt?$AAo?$AAw?$AA_?$AAs?$AA?$AA@ 005f4ee0     LIBCMTD:xtows.obj
 0003:0002eef8       ??_C@_1DM@MADKGDLO@?$AA?$CI?$AAL?$AA?$CC?$AAB?$AAu?$AAf?$AAf?$AAe?$AAr?$AA?5?$AAi?$AAs?$AA?5?$AAt?$AAo?$AAo?$AA?5?$AAs?$AAm?$AAa?$AAl?$AAl?$AA?$CC?$AA?5?$AA?$CG?$AA?$CG?$AA?5?$AA0?$AA?$CJ?$AA?$AA@ 005f4ef8     LIBCMTD:wcsncat_s.obj
 0003:0002ef40       ??_C@_1CI@HCPHDDLE@?$AAB?$AAu?$AAf?$AAf?$AAe?$AAr?$AA?5?$AAi?$AAs?$AA?5?$AAt?$AAo?$AAo?$AA?5?$AAs?$AAm?$AAa?$AAl?$AAl?$AA?$AA@ 005f4f40     LIBCMTD:wcsncat_s.obj
 0003:0002ef70       ??_C@_1FA@MJKDNFFB@?$AA?$CI?$AAL?$AA?$CC?$AAS?$AAt?$AAr?$AAi?$AAn?$AAg?$AA?5?$AAi?$AAs?$AA?5?$AAn?$AAo?$AAt?$AA?5?$AAn?$AAu?$AAl?$AAl?$AA?5?$AAt?$AAe?$AAr?$AAm?$AAi?$AAn?$AAa?$AAt?$AAe?$AAd@ 005f4f70     LIBCMTD:wcsncat_s.obj
 0003:0002efd0       ??_C@_1DM@FHLMIEG@?$AAS?$AAt?$AAr?$AAi?$AAn?$AAg?$AA?5?$AAi?$AAs?$AA?5?$AAn?$AAo?$AAt?$AA?5?$AAn?$AAu?$AAl?$AAl?$AA?5?$AAt?$AAe?$AAr?$AAm?$AAi?$AAn?$AAa?$AAt?$AAe?$AAd?$AA?$AA@ 005f4fd0     LIBCMTD:wcsncat_s.obj
 0003:0002f018       ??_C@_1CG@OFBJMIGJ@?$AA?$CI?$AA?$CI?$AA?$CI?$AA_?$AAS?$AAr?$AAc?$AA?$CJ?$AA?$CJ?$AA?$CJ?$AA?5?$AA?$CB?$AA?$DN?$AA?5?$AAN?$AAU?$AAL?$AAL?$AA?$AA@ 005f5018     LIBCMTD:wcsncat_s.obj
 0003:0002f048       ??_C@_1BE@KPKIKKCF@?$AAw?$AAc?$AAs?$AAn?$AAc?$AAa?$AAt?$AA_?$AAs?$AA?$AA@ 005f5048     LIBCMTD:wcsncat_s.obj
 0003:0002f060       ??_C@_1GK@DICCLCDF@?$AAf?$AA?3?$AA?2?$AAd?$AAd?$AA?2?$AAv?$AAc?$AAt?$AAo?$AAo?$AAl?$AAs?$AA?2?$AAc?$AAr?$AAt?$AA_?$AAb?$AAl?$AAd?$AA?2?$AAs?$AAe?$AAl?$AAf?$AA_?$AAx?$AA8?$AA6?$AA?2?$AAc@ 005f5060     LIBCMTD:wcsncat_s.obj
 0003:0002f0e0       ??_C@_1FC@PFMLEHKI@?$AA?$CI?$AA?$CI?$AA_?$AAD?$AAs?$AAt?$AA?$CJ?$AA?$CJ?$AA?5?$AA?$CB?$AA?$DN?$AA?5?$AAN?$AAU?$AAL?$AAL?$AA?5?$AA?$CG?$AA?$CG?$AA?5?$AA?$CI?$AA?$CI?$AA_?$AAS?$AAi?$AAz?$AAe?$AAI?$AAn?$AAW?$AAo?$AAr@ 005f50e0     LIBCMTD:wcsncat_s.obj
 0003:0002f144       ??_C@_1BE@PMMBFFCC@?$AAw?$AAc?$AAs?$AAn?$AAc?$AAp?$AAy?$AA_?$AAs?$AA?$AA@ 005f5144     LIBCMTD:wcsncpy_s.obj
 0003:0002f160       ??_C@_1GK@PAJJBKJF@?$AAf?$AA?3?$AA?2?$AAd?$AAd?$AA?2?$AAv?$AAc?$AAt?$AAo?$AAo?$AAl?$AAs?$AA?2?$AAc?$AAr?$AAt?$AA_?$AAb?$AAl?$AAd?$AA?2?$AAs?$AAe?$AAl?$AAf?$AA_?$AAx?$AA8?$AA6?$AA?2?$AAc@ 005f5160     LIBCMTD:wcsncpy_s.obj
 0003:0002f1e0       ??_C@_1BC@PLIEPKPJ@?$AAw?$AAc?$AAs?$AAc?$AAa?$AAt?$AA_?$AAs?$AA?$AA@ 005f51e0     LIBCMTD:wcscat_s.obj
 0003:0002f1f8       ??_C@_1GI@NOKGIAGA@?$AAf?$AA?3?$AA?2?$AAd?$AAd?$AA?2?$AAv?$AAc?$AAt?$AAo?$AAo?$AAl?$AAs?$AA?2?$AAc?$AAr?$AAt?$AA_?$AAb?$AAl?$AAd?$AA?2?$AAs?$AAe?$AAl?$AAf?$AA_?$AAx?$AA8?$AA6?$AA?2?$AAc@ 005f51f8     LIBCMTD:wcscat_s.obj
 0003:0002f274       ??_C@_1BC@KIONAFPO@?$AAw?$AAc?$AAs?$AAc?$AAp?$AAy?$AA_?$AAs?$AA?$AA@ 005f5274     LIBCMTD:wcscpy_s.obj
 0003:0002f290       ??_C@_1GI@BGBNCIMA@?$AAf?$AA?3?$AA?2?$AAd?$AAd?$AA?2?$AAv?$AAc?$AAt?$AAo?$AAo?$AAl?$AAs?$AA?2?$AAc?$AAr?$AAt?$AA_?$AAb?$AAl?$AAd?$AA?2?$AAs?$AAe?$AAl?$AAf?$AA_?$AAx?$AA8?$AA6?$AA?2?$AAc@ 005f5290     LIBCMTD:wcscpy_s.obj
 0003:0002f30c       ??_C@_1BC@BHLPNJBO@?$AAf?$AAw?$AAp?$AAr?$AAi?$AAn?$AAt?$AAf?$AA?$AA@ 005f530c     LIBCMTD:fwprintf.obj
 0003:0002f328       ??_C@_1GE@NIBJAMDO@?$AAf?$AA?3?$AA?2?$AAd?$AAd?$AA?2?$AAv?$AAc?$AAt?$AAo?$AAo?$AAl?$AAs?$AA?2?$AAc?$AAr?$AAt?$AA_?$AAb?$AAl?$AAd?$AA?2?$AAs?$AAe?$AAl?$AAf?$AA_?$AAx?$AA8?$AA6?$AA?2?$AAc@ 005f5328     LIBCMTD:fwprintf.obj
 0003:0002f3a0       ??_C@_0DB@MIGHMKAN@f?3?2dd?2vctools?2crt_bld?2self_x86?2c@ 005f53a0     LIBCMTD:setvbuf.obj
 0003:0002f3e0       ??_C@_1EG@IJNJIDNB@?$AA?$CI?$AA?$CI?$AA2?$AA?5?$AA?$DM?$AA?$DN?$AA?5?$AAs?$AAi?$AAz?$AAe?$AA?$CJ?$AA?5?$AA?$CG?$AA?$CG?$AA?5?$AA?$CI?$AAs?$AAi?$AAz?$AAe?$AA?5?$AA?$DM?$AA?$DN?$AA?5?$AAI?$AAN?$AAT?$AA_?$AAM?$AAA?$AAX@ 005f53e0     LIBCMTD:setvbuf.obj
 0003:0002f438       ??_C@_1HC@CBFEDAGG@?$AA?$CI?$AAt?$AAy?$AAp?$AAe?$AA?5?$AA?$DN?$AA?$DN?$AA?5?$AA_?$AAI?$AAO?$AAN?$AAB?$AAF?$AA?$CJ?$AA?5?$AA?$HM?$AA?$HM?$AA?5?$AA?$CI?$AAt?$AAy?$AAp?$AAe?$AA?5?$AA?$DN?$AA?$DN?$AA?5?$AA_?$AAI?$AAO@ 005f5438     LIBCMTD:setvbuf.obj
 0003:0002f4c0       ??_C@_1BA@OGODIODK@?$AAs?$AAe?$AAt?$AAv?$AAb?$AAu?$AAf?$AA?$AA@ 005f54c0     LIBCMTD:setvbuf.obj
 0003:0002f4d8       ??_C@_1GC@FPPJLAOD@?$AAf?$AA?3?$AA?2?$AAd?$AAd?$AA?2?$AAv?$AAc?$AAt?$AAo?$AAo?$AAl?$AAs?$AA?2?$AAc?$AAr?$AAt?$AA_?$AAb?$AAl?$AAd?$AA?2?$AAs?$AAe?$AAl?$AAf?$AA_?$AAx?$AA8?$AA6?$AA?2?$AAc@ 005f54d8     LIBCMTD:setvbuf.obj
 0003:0002f550       ??_C@_1CA@LFDHAMEM@?$AA_?$AAs?$AAe?$AAt?$AA_?$AAe?$AAr?$AAr?$AAo?$AAr?$AA_?$AAm?$AAo?$AAd?$AAe?$AA?$AA@ 005f5550     LIBCMTD:errmode.obj
 0003:0002f578       ??_C@_1GC@FGMGFCNB@?$AAf?$AA?3?$AA?2?$AAd?$AAd?$AA?2?$AAv?$AAc?$AAt?$AAo?$AAo?$AAl?$AAs?$AA?2?$AAc?$AAr?$AAt?$AA_?$AAb?$AAl?$AAd?$AA?2?$AAs?$AAe?$AAl?$AAf?$AA_?$AAx?$AA8?$AA6?$AA?2?$AAc@ 005f5578     LIBCMTD:errmode.obj
 0003:0002f5f0       ??_C@_1DE@BCNCAIK@?$AA?$CI?$AA?$CC?$AAI?$AAn?$AAv?$AAa?$AAl?$AAi?$AAd?$AA?5?$AAe?$AAr?$AAr?$AAo?$AAr?$AA_?$AAm?$AAo?$AAd?$AAe?$AA?$CC?$AA?0?$AA?5?$AA0?$AA?$CJ?$AA?$AA@ 005f55f0     LIBCMTD:errmode.obj
 0003:0002f630       ??_C@_1CE@IGKFIJFD@?$AA_?$AAv?$AAs?$AAw?$AAp?$AAr?$AAi?$AAn?$AAt?$AAf?$AA_?$AAh?$AAe?$AAl?$AAp?$AAe?$AAr?$AA?$AA@ 005f5630     LIBCMTD:vswprnc.obj
 0003:0002f660       ??_C@_1GE@KINELFI@?$AAf?$AA?3?$AA?2?$AAd?$AAd?$AA?2?$AAv?$AAc?$AAt?$AAo?$AAo?$AAl?$AAs?$AA?2?$AAc?$AAr?$AAt?$AA_?$AAb?$AAl?$AAd?$AA?2?$AAs?$AAe?$AAl?$AAf?$AA_?$AAx?$AA8?$AA6?$AA?2?$AAc@ 005f5660     LIBCMTD:vswprnc.obj
 0003:0002f6d8       ??_C@_1DA@HPBFKMEB@?$AA?$CI?$AA?$CC?$AAB?$AAu?$AAf?$AAf?$AAe?$AAr?$AA?5?$AAt?$AAo?$AAo?$AA?5?$AAs?$AAm?$AAa?$AAl?$AAl?$AA?$CC?$AA?0?$AA?5?$AA0?$AA?$CJ?$AA?$AA@ 005f56d8     LIBCMTD:vswprnc.obj
 0003:0002f718       ??_C@_1EE@MPCHJFGP@?$AAs?$AAt?$AAr?$AAi?$AAn?$AAg?$AA?5?$AA?$CB?$AA?$DN?$AA?5?$AAN?$AAU?$AAL?$AAL?$AA?5?$AA?$CG?$AA?$CG?$AA?5?$AAs?$AAi?$AAz?$AAe?$AAI?$AAn?$AAW?$AAo?$AAr?$AAd?$AAs?$AA?5?$AA?$DO?$AA?5@ 005f5718     LIBCMTD:vswprnc.obj
 0003:0002f76c       ??_C@_1BO@OALHJLCI@?$AA_?$AAv?$AAs?$AAw?$AAp?$AAr?$AAi?$AAn?$AAt?$AAf?$AA_?$AAs?$AA_?$AAl?$AA?$AA@ 005f576c     LIBCMTD:vswprnc.obj
 0003:0002f790       ??_C@_1BO@MLMCMBKN@?$AAf?$AAo?$AAr?$AAm?$AAa?$AAt?$AA?5?$AA?$CB?$AA?$DN?$AA?5?$AAN?$AAU?$AAL?$AAL?$AA?$AA@ 005f5790     LIBCMTD:vswprnc.obj
 0003:0002f7b4       ??_C@_1CA@BKFKMJFF@?$AA_?$AAv?$AAs?$AAn?$AAw?$AAp?$AAr?$AAi?$AAn?$AAt?$AAf?$AA_?$AAs?$AA_?$AAl?$AA?$AA@ 005f57b4     LIBCMTD:vswprnc.obj
 0003:000302e8       __DEFAULT_CW_in_mem        005f62e8     LIBCMTD:_common_.obj
 0003:000302ea       __pi_by_2_to_61            005f62ea     LIBCMTD:_common_.obj
 0003:00030334       ??_C@_1BA@FLNMBBIM@?$AA_?$AAc?$AAo?$AAm?$AAm?$AAi?$AAt?$AA?$AA@ 005f6334     LIBCMTD:commit.obj
 0003:00030348       ??_C@_1GA@BOPCOCFN@?$AAf?$AA?3?$AA?2?$AAd?$AAd?$AA?2?$AAv?$AAc?$AAt?$AAo?$AAo?$AAl?$AAs?$AA?2?$AAc?$AAr?$AAt?$AA_?$AAb?$AAl?$AAd?$AA?2?$AAs?$AAe?$AAl?$AAf?$AA_?$AAx?$AA8?$AA6?$AA?2?$AAc@ 005f6348     LIBCMTD:commit.obj
 0003:000303bc       ??_C@_1BI@IGILPKD@?$AA_?$AAv?$AAs?$AAp?$AAr?$AAi?$AAn?$AAt?$AAf?$AA_?$AAl?$AA?$AA@ 005f63bc     LIBCMTD:vsprintf.obj
 0003:000303d8       ??_C@_1CE@HMKDJHB@?$AA_?$AAv?$AAs?$AAc?$AAp?$AAr?$AAi?$AAn?$AAt?$AAf?$AA_?$AAh?$AAe?$AAl?$AAp?$AAe?$AAr?$AA?$AA@ 005f63d8     LIBCMTD:vsprintf.obj
 0003:00030404       ??_C@_1CE@PCFPEIFI@?$AA_?$AAv?$AAs?$AAn?$AAp?$AAr?$AAi?$AAn?$AAt?$AAf?$AA_?$AAh?$AAe?$AAl?$AAp?$AAe?$AAr?$AA?$AA@ 005f6404     LIBCMTD:vsnprnc.obj
 0003:00030430       ??_C@_1EE@OKCKIGFK@?$AAs?$AAt?$AAr?$AAi?$AAn?$AAg?$AA?5?$AA?$CB?$AA?$DN?$AA?5?$AAN?$AAU?$AAL?$AAL?$AA?5?$AA?$CG?$AA?$CG?$AA?5?$AAs?$AAi?$AAz?$AAe?$AAI?$AAn?$AAB?$AAy?$AAt?$AAe?$AAs?$AA?5?$AA?$DO?$AA?5@ 005f6430     LIBCMTD:vsnprnc.obj
 0003:00030484       ??_C@_1BM@BLJALHEF@?$AA_?$AAv?$AAs?$AAp?$AAr?$AAi?$AAn?$AAt?$AAf?$AA_?$AAs?$AA_?$AAl?$AA?$AA@ 005f6484     LIBCMTD:vsnprnc.obj
 0003:000304a8       ??_C@_1BO@MMPELNIM@?$AA_?$AAv?$AAs?$AAn?$AAp?$AAr?$AAi?$AAn?$AAt?$AAf?$AA_?$AAs?$AA_?$AAl?$AA?$AA@ 005f64a8     LIBCMTD:vsnprnc.obj
 0003:000304d0       ??_C@_1GC@CHGJNMHG@?$AAf?$AA?3?$AA?2?$AAd?$AAd?$AA?2?$AAv?$AAc?$AAt?$AAo?$AAo?$AAl?$AAs?$AA?2?$AAc?$AAr?$AAt?$AA_?$AAb?$AAl?$AAd?$AA?2?$AAs?$AAe?$AAl?$AAf?$AA_?$AAx?$AA8?$AA6?$AA?2?$AAc@ 005f64d0     LIBCMTD:isctype.obj
 0003:00030548       ??_C@_1DC@BPLPALML@?$AA?$CI?$AAu?$AAn?$AAs?$AAi?$AAg?$AAn?$AAe?$AAd?$AA?$CJ?$AA?$CI?$AAc?$AA?5?$AA?$CL?$AA?5?$AA1?$AA?$CJ?$AA?5?$AA?$DM?$AA?$DN?$AA?5?$AA2?$AA5?$AA6?$AA?$AA@ 005f6548     LIBCMTD:isctype.obj
 0003:00030584       ??_C@_07LCBHPJJN@LC_TIME?$AA@ 005f6584     LIBCMTD:setlocal.obj
 0003:00030590       ??_C@_0L@DLHIECNL@LC_NUMERIC?$AA@ 005f6590     LIBCMTD:setlocal.obj
 0003:000305a0       ??_C@_0M@MIENIKLA@LC_MONETARY?$AA@ 005f65a0     LIBCMTD:setlocal.obj
 0003:000305b0       ??_C@_08EADHIDAD@LC_CTYPE?$AA@ 005f65b0     LIBCMTD:setlocal.obj
 0003:000305bc       ??_C@_0L@KFJHEKIK@LC_COLLATE?$AA@ 005f65bc     LIBCMTD:setlocal.obj
 0003:000305cc       ??_C@_06NEFDFEKB@LC_ALL?$AA@ 005f65cc     LIBCMTD:setlocal.obj
 0003:000305d8       ___lc_category             005f65d8     LIBCMTD:setlocal.obj
 0003:000306c8       ??_C@_1GE@OLEIGPBJ@?$AAf?$AA?3?$AA?2?$AAd?$AAd?$AA?2?$AAv?$AAc?$AAt?$AAo?$AAo?$AAl?$AAs?$AA?2?$AAc?$AAr?$AAt?$AA_?$AAb?$AAl?$AAd?$AA?2?$AAs?$AAe?$AAl?$AAf?$AA_?$AAx?$AA8?$AA6?$AA?2?$AAc@ 005f66c8     LIBCMTD:setlocal.obj
 0003:00030740       ??_C@_1BKC@GGIENNAK@?$AA?$CI?$AA?$CI?$AAp?$AAt?$AAl?$AAo?$AAc?$AAi?$AA?9?$AA?$DO?$AAl?$AAc?$AA_?$AAc?$AAa?$AAt?$AAe?$AAg?$AAo?$AAr?$AAy?$AA?$FL?$AAc?$AAa?$AAt?$AAe?$AAg?$AAo?$AAr?$AAy?$AA?$FN?$AA?4@ 005f6740     LIBCMTD:setlocal.obj
 0003:00030938       ??_C@_1CI@FGIONOJM@?$AA_?$AAc?$AAo?$AAn?$AAf?$AAi?$AAg?$AAt?$AAh?$AAr?$AAe?$AAa?$AAd?$AAl?$AAo?$AAc?$AAa?$AAl?$AAe?$AA?$AA@ 005f6938     LIBCMTD:setlocal.obj
 0003:00030968       ??_C@_1GA@LDEGDKD@?$AA?$CI?$AA?$CC?$AAI?$AAn?$AAv?$AAa?$AAl?$AAi?$AAd?$AA?5?$AAp?$AAa?$AAr?$AAa?$AAm?$AAe?$AAt?$AAe?$AAr?$AA?5?$AAf?$AAo?$AAr?$AA?5?$AA_?$AAc?$AAo?$AAn?$AAf?$AAi?$AAg?$AAt@ 005f6968     LIBCMTD:setlocal.obj
 0003:000309dc       ??_C@_0DC@JCPFNMID@f?3?2dd?2vctools?2crt_bld?2self_x86?2c@ 005f69dc     LIBCMTD:setlocal.obj
 0003:00030a18       ??_C@_1BE@DBJGBOJC@?$AAs?$AAe?$AAt?$AAl?$AAo?$AAc?$AAa?$AAl?$AAe?$AA?$AA@ 005f6a18     LIBCMTD:setlocal.obj
 0003:00030a30       ??_C@_1FG@OHLFEKMC@?$AAL?$AAC?$AA_?$AAM?$AAI?$AAN?$AA?5?$AA?$DM?$AA?$DN?$AA?5?$AA_?$AAc?$AAa?$AAt?$AAe?$AAg?$AAo?$AAr?$AAy?$AA?5?$AA?$CG?$AA?$CG?$AA?5?$AA_?$AAc?$AAa?$AAt?$AAe?$AAg?$AAo?$AAr?$AAy@ 005f6a30     LIBCMTD:setlocal.obj
 0003:00030a98       ??_C@_1IA@PFIKKKFB@?$AAs?$AAt?$AAr?$AAn?$AAc?$AAp?$AAy?$AA_?$AAs?$AA?$CI?$AAl?$AAc?$AAt?$AAe?$AAm?$AAp?$AA?0?$AA?5?$AA?$CI?$AAs?$AAi?$AAz?$AAe?$AAo?$AAf?$AA?$CI?$AAl?$AAc?$AAt?$AAe?$AAm?$AAp@ 005f6a98     LIBCMTD:setlocal.obj
 0003:00030b34       ??_C@_1CE@OFNHIOO@?$AA_?$AAs?$AAe?$AAt?$AAl?$AAo?$AAc?$AAa?$AAl?$AAe?$AA_?$AAn?$AAo?$AAl?$AAo?$AAc?$AAk?$AA?$AA@ 005f6b34     LIBCMTD:setlocal.obj
 0003:00030b60       ??_C@_01ICJEACDI@?$DL?$AA@ 005f6b60     LIBCMTD:setlocal.obj
 0003:00030b64       ??_C@_02BALPLPBG@?$DN?$DL?$AA@ 005f6b64     LIBCMTD:setlocal.obj
 0003:00030b68       ??_C@_1GO@JALHLJEH@?$AAs?$AAt?$AAr?$AAc?$AAp?$AAy?$AA_?$AAs?$AA?$CI?$AAp?$AAc?$AAh?$AA?5?$AA?$CL?$AA?5?$AAs?$AAi?$AAz?$AAe?$AAo?$AAf?$AA?$CI?$AAi?$AAn?$AAt?$AA?$CJ?$AA?0?$AA?5?$AAc?$AAc?$AAh?$AA?5@ 005f6b68     LIBCMTD:setlocal.obj
 0003:00030bec       ??_C@_1CG@IEFIICPK@?$AA_?$AAs?$AAe?$AAt?$AAl?$AAo?$AAc?$AAa?$AAl?$AAe?$AA_?$AAs?$AAe?$AAt?$AA_?$AAc?$AAa?$AAt?$AA?$AA@ 005f6bec     LIBCMTD:setlocal.obj
 0003:00030c1c       ??_C@_1DA@GDKKLCLM@?$AAs?$AAt?$AAr?$AAc?$AAa?$AAt?$AA_?$AAs?$AA?$CI?$AAp?$AAc?$AAh?$AA?0?$AA?5?$AAc?$AAc?$AAh?$AA?0?$AA?5?$AA?$CC?$AA?$DL?$AA?$CC?$AA?$CJ?$AA?$AA@ 005f6c1c     LIBCMTD:setlocal.obj
 0003:00030c58       ??_C@_1CG@NNFIJLDA@?$AA_?$AAs?$AAe?$AAt?$AAl?$AAo?$AAc?$AAa?$AAl?$AAe?$AA_?$AAg?$AAe?$AAt?$AA_?$AAa?$AAl?$AAl?$AA?$AA@ 005f6c58     LIBCMTD:setlocal.obj
 0003:00030c88       ??_C@_1FA@MHAOOIBO@?$AAs?$AAt?$AAr?$AAc?$AAp?$AAy?$AA_?$AAs?$AA?$CI?$AAo?$AAu?$AAt?$AAp?$AAu?$AAt?$AA?0?$AA?5?$AAs?$AAi?$AAz?$AAe?$AAI?$AAn?$AAC?$AAh?$AAa?$AAr?$AAs?$AA?0?$AA?5?$AAc?$AAa@ 005f6c88     LIBCMTD:setlocal.obj
 0003:00030ce8       ??_C@_1IA@ONNFOEDA@?$AAs?$AAt?$AAr?$AAn?$AAc?$AAp?$AAy?$AA_?$AAs?$AA?$CI?$AAc?$AAa?$AAc?$AAh?$AAe?$AAi?$AAn?$AA?0?$AA?5?$AAc?$AAa?$AAc?$AAh?$AAe?$AAi?$AAn?$AAS?$AAi?$AAz?$AAe?$AA?0?$AA?5@ 005f6ce8     LIBCMTD:setlocal.obj
 0003:00030d84       ??_C@_01GFHCPBMG@C?$AA@    005f6d84     LIBCMTD:setlocal.obj
 0003:00030d88       ??_C@_1EG@MOMHKOD@?$AAs?$AAt?$AAr?$AAc?$AAp?$AAy?$AA_?$AAs?$AA?$CI?$AAo?$AAu?$AAt?$AAp?$AAu?$AAt?$AA?0?$AA?5?$AAs?$AAi?$AAz?$AAe?$AAI?$AAn?$AAC?$AAh?$AAa?$AAr?$AAs?$AA?0?$AA?5?$AA?$CC?$AAC@ 005f6d88     LIBCMTD:setlocal.obj
 0003:00030ddc       ??_C@_1BM@OIIBLEFG@?$AA_?$AAe?$AAx?$AAp?$AAa?$AAn?$AAd?$AAl?$AAo?$AAc?$AAa?$AAl?$AAe?$AA?$AA@ 005f6ddc     LIBCMTD:setlocal.obj
 0003:00030e00       ??_C@_1BGM@IJDLABMC@?$AAs?$AAt?$AAr?$AAc?$AAa?$AAt?$AA_?$AAs?$AA?$CI?$AAo?$AAu?$AAt?$AAs?$AAt?$AAr?$AA?0?$AA?5?$AAs?$AAi?$AAz?$AAe?$AAI?$AAn?$AAB?$AAy?$AAt?$AAe?$AAs?$AA?0?$AA?5?$AA?$CI?$AA?5@ 005f6e00     LIBCMTD:setlocal.obj
 0003:00030fb4       ??_C@_1BC@PIABMDIP@?$AA_?$AAs?$AAt?$AAr?$AAc?$AAa?$AAt?$AAs?$AA?$AA@ 005f6fb4     LIBCMTD:setlocal.obj
 0003:00030fd0       ??_C@_1MM@NOPMGFHF@?$AAs?$AAt?$AAr?$AAn?$AAc?$AAp?$AAy?$AA_?$AAs?$AA?$CI?$AAn?$AAa?$AAm?$AAe?$AAs?$AA?9?$AA?$DO?$AAs?$AAz?$AAC?$AAo?$AAd?$AAe?$AAP?$AAa?$AAg?$AAe?$AA?0?$AA?5?$AA?$CI?$AAs?$AAi@ 005f6fd0     LIBCMTD:setlocal.obj
 0003:000310c8       ??_C@_1MG@PHNILIAG@?$AAs?$AAt?$AAr?$AAn?$AAc?$AAp?$AAy?$AA_?$AAs?$AA?$CI?$AAn?$AAa?$AAm?$AAe?$AAs?$AA?9?$AA?$DO?$AAs?$AAz?$AAC?$AAo?$AAu?$AAn?$AAt?$AAr?$AAy?$AA?0?$AA?5?$AA?$CI?$AAs?$AAi?$AAz@ 005f70c8     LIBCMTD:setlocal.obj
 0003:000311b8       ??_C@_1MM@BFEECMAF@?$AAs?$AAt?$AAr?$AAn?$AAc?$AAp?$AAy?$AA_?$AAs?$AA?$CI?$AAn?$AAa?$AAm?$AAe?$AAs?$AA?9?$AA?$DO?$AAs?$AAz?$AAL?$AAa?$AAn?$AAg?$AAu?$AAa?$AAg?$AAe?$AA?0?$AA?5?$AA?$CI?$AAs?$AAi@ 005f71b8     LIBCMTD:setlocal.obj
 0003:000312ac       ??_C@_03EGDHDPFD@_?4?0?$AA@ 005f72ac     LIBCMTD:setlocal.obj
 0003:000312b0       ??_C@_1NG@FMOPGKGG@?$AAs?$AAt?$AAr?$AAn?$AAc?$AAp?$AAy?$AA_?$AAs?$AA?$CI?$AAn?$AAa?$AAm?$AAe?$AAs?$AA?9?$AA?$DO?$AAs?$AAz?$AAC?$AAo?$AAd?$AAe?$AAP?$AAa?$AAg?$AAe?$AA?0?$AA?5?$AA?$CI?$AAs?$AAi@ 005f72b0     LIBCMTD:setlocal.obj
 0003:000313b0       ??_C@_1BK@CBMMLAGJ@?$AA_?$AA_?$AAl?$AAc?$AA_?$AAs?$AAt?$AAr?$AAt?$AAo?$AAl?$AAc?$AA?$AA@ 005f73b0     LIBCMTD:setlocal.obj
 0003:000313d0       ??_C@_1HC@IBDBLKCB@?$AAs?$AAt?$AAr?$AAc?$AAp?$AAy?$AA_?$AAs?$AA?$CI?$AAl?$AAo?$AAc?$AAa?$AAl?$AAe?$AA?0?$AA?5?$AAs?$AAi?$AAz?$AAe?$AAI?$AAn?$AAB?$AAy?$AAt?$AAe?$AAs?$AA?0?$AA?5?$AA?$CI?$AAc@ 005f73d0     LIBCMTD:setlocal.obj
 0003:00031458       ??_C@_1BK@FGDJDEPG@?$AA_?$AA_?$AAl?$AAc?$AA_?$AAl?$AAc?$AAt?$AAo?$AAs?$AAt?$AAr?$AA?$AA@ 005f7458     LIBCMTD:setlocal.obj
 0003:00031abc       ??_C@_1DE@MMOGFGHF@?$AAs?$AAt?$AAr?$AAc?$AAp?$AAy?$AA_?$AAs?$AA?$CI?$AA?$CK?$AAe?$AAn?$AAv?$AA?0?$AA?5?$AAc?$AAc?$AAh?$AAa?$AAr?$AAs?$AA?0?$AA?5?$AAp?$AA?$CJ?$AA?$AA@ 005f7abc     LIBCMTD:stdenvp.obj
 0003:00031afc       ??_C@_1BC@GHMCNHHL@?$AA_?$AAs?$AAe?$AAt?$AAe?$AAn?$AAv?$AAp?$AA?$AA@ 005f7afc     LIBCMTD:stdenvp.obj
 0003:00031b18       ??_C@_1GC@DGBFLDBN@?$AAf?$AA?3?$AA?2?$AAd?$AAd?$AA?2?$AAv?$AAc?$AAt?$AAo?$AAo?$AAl?$AAs?$AA?2?$AAc?$AAr?$AAt?$AA_?$AAb?$AAl?$AAd?$AA?2?$AAs?$AAe?$AAl?$AAf?$AA_?$AAx?$AA8?$AA6?$AA?2?$AAc@ 005f7b18     LIBCMTD:stdenvp.obj
 0003:00031b90       ??_C@_0DB@BMEBJJKP@f?3?2dd?2vctools?2crt_bld?2self_x86?2c@ 005f7b90     LIBCMTD:stdenvp.obj
 0003:00031bcc       ??_C@_0DB@OEPBJOLC@f?3?2dd?2vctools?2crt_bld?2self_x86?2c@ 005f7bcc     LIBCMTD:stdargv.obj
 0003:00031c08       ??_C@_0CP@PPLBCJDN@f?3?2dd?2vctools?2crt_bld?2self_x86?2c@ 005f7c08     LIBCMTD:a_env.obj
 0003:00031c40       ??_C@_1GE@JDDMFOID@?$AAf?$AA?3?$AA?2?$AAd?$AAd?$AA?2?$AAv?$AAc?$AAt?$AAo?$AAo?$AAl?$AAs?$AA?2?$AAc?$AAr?$AAt?$AA_?$AAb?$AAl?$AAd?$AA?2?$AAs?$AAe?$AAl?$AAf?$AA_?$AAx?$AA8?$AA6?$AA?2?$AAc@ 005f7c40     LIBCMTD:heapinit.obj
 0003:00031cb8       ??_C@_1BC@DENNNKIM@?$AA_?$AAc?$AAr?$AAt?$AAh?$AAe?$AAa?$AAp?$AA?$AA@ 005f7cb8     LIBCMTD:heapinit.obj
 0003:00031cd0       ??_C@_0BB@NAGLCMLI@Assertion?5Failed?$AA@ 005f7cd0     LIBCMTD:dbgrpt.obj
 0003:00031ce4       ??_C@_05NAOIJFC@Error?$AA@ 005f7ce4     LIBCMTD:dbgrpt.obj
 0003:00031cec       ??_C@_07KGMMFLDN@Warning?$AA@ 005f7cec     LIBCMTD:dbgrpt.obj
 0003:00031d08       ??_C@_1CG@GNMJDMIO@?$AA_?$AAC?$AAr?$AAt?$AAS?$AAe?$AAt?$AAR?$AAe?$AAp?$AAo?$AAr?$AAt?$AAH?$AAo?$AAo?$AAk?$AA2?$AA?$AA@ 005f7d08     LIBCMTD:dbgrpt.obj
 0003:00031d38       ??_C@_0CD@EBCGLDDL@Microsoft?5Visual?5C?$CL?$CL?5Debug?5Libra@ 005f7d38     LIBCMTD:dbgrpt.obj
 0003:00031d64       ??_C@_0CL@EACFGMNB@_CrtDbgReport?3?5String?5too?5long?5o@ 005f7d64     LIBCMTD:dbgrpt.obj
 0003:00031d98       ??_C@_1JG@CPKCIOEE@?$AAs?$AAt?$AAr?$AAc?$AAp?$AAy?$AA_?$AAs?$AA?$CI?$AAs?$AAz?$AAO?$AAu?$AAt?$AAM?$AAe?$AAs?$AAs?$AAa?$AAg?$AAe?$AA?0?$AA?5?$AA4?$AA0?$AA9?$AA6?$AA?0?$AA?5?$AA?$CC?$AA_?$AAC@ 005f7d98     LIBCMTD:dbgrpt.obj
 0003:00031e50       ??_C@_0FF@CCONDJCB@Debug?5?$CFs?$CB?6?6Program?3?5?$CFs?$CFs?$CFs?$CFs?$CFs?$CFs@ 005f7e50     LIBCMTD:dbgrpt.obj
 0003:00031eb8       ??_C@_09OFBFHMBK@?6Module?3?5?$AA@ 005f7eb8     LIBCMTD:dbgrpt.obj
 0003:00031ec4       ??_C@_07OPHPPLBG@?6File?3?5?$AA@ 005f7ec4     LIBCMTD:dbgrpt.obj
 0003:00031ed0       ??_C@_07DBMPPHDI@?6Line?3?5?$AA@ 005f7ed0     LIBCMTD:dbgrpt.obj
 0003:00031edc       ??_C@_0N@MEECIJGN@Expression?3?5?$AA@ 005f7edc     LIBCMTD:dbgrpt.obj
 0003:00031ef0       ??_C@_0HD@GNBNFCCL@?6?6For?5information?5on?5how?5your?5pr@ 005f7ef0     LIBCMTD:dbgrpt.obj
 0003:00031f80       ??_C@_1GG@DLDHOIGE@?$AAs?$AAt?$AAr?$AAc?$AAp?$AAy?$AA_?$AAs?$AA?$CI?$AAs?$AAz?$AAE?$AAx?$AAe?$AAN?$AAa?$AAm?$AAe?$AA?0?$AA?5?$AA2?$AA6?$AA0?$AA?0?$AA?5?$AA?$CC?$AA?$DM?$AAp?$AAr?$AAo?$AAg?$AAr@ 005f7f80     LIBCMTD:dbgrpt.obj
 0003:00031ffc       ??_C@_1CI@IDOKFLAJ@?$AA_?$AA_?$AAc?$AAr?$AAt?$AAM?$AAe?$AAs?$AAs?$AAa?$AAg?$AAe?$AAW?$AAi?$AAn?$AAd?$AAo?$AAw?$AAA?$AA?$AA@ 005f7ffc     LIBCMTD:dbgrpt.obj
 0003:0003202c       ??_C@_1BK@JMCGJOCC@?$AA_?$AAe?$AAx?$AAp?$AAa?$AAn?$AAd?$AA_?$AAb?$AAa?$AAs?$AAe?$AA?$AA@ 005f802c     LIBCMTD:expand.obj
 0003:00032050       ??_C@_1GA@EBHFLDNH@?$AAf?$AA?3?$AA?2?$AAd?$AAd?$AA?2?$AAv?$AAc?$AAt?$AAo?$AAo?$AAl?$AAs?$AA?2?$AAc?$AAr?$AAt?$AA_?$AAb?$AAl?$AAd?$AA?2?$AAs?$AAe?$AAl?$AAf?$AA_?$AAx?$AA8?$AA6?$AA?2?$AAc@ 005f8050     LIBCMTD:expand.obj
 0003:000320c4       ??_C@_1BO@KFIJIAEA@?$AAp?$AAB?$AAl?$AAo?$AAc?$AAk?$AA?5?$AA?$CB?$AA?$DN?$AA?5?$AAN?$AAU?$AAL?$AAL?$AA?$AA@ 005f80c4     LIBCMTD:expand.obj
 0003:000320e8       ??_C@_0BF@PEEJCKGM@HeapQueryInformation?$AA@ 005f80e8     LIBCMTD:expand.obj
 0003:00032104       ??_C@_1BK@MGMFAEKH@?$AAk?$AAe?$AAr?$AAn?$AAe?$AAl?$AA3?$AA2?$AA?4?$AAd?$AAl?$AAl?$AA?$AA@ 005f8104     LIBCMTD:expand.obj
 0003:00032128       ??_C@_1GA@CMCJKKIB@?$AAf?$AA?3?$AA?2?$AAd?$AAd?$AA?2?$AAv?$AAc?$AAt?$AAo?$AAo?$AAl?$AAs?$AA?2?$AAc?$AAr?$AAt?$AA_?$AAb?$AAl?$AAd?$AA?2?$AAs?$AAe?$AAl?$AAf?$AA_?$AAx?$AA8?$AA6?$AA?2?$AAc@ 005f8128     LIBCMTD:sbheap.obj
 0003:000321a0       ??_C@_1IC@MOGBEBCE@?$AA?$CI?$AAt?$AAh?$AAr?$AAe?$AAs?$AAh?$AAo?$AAl?$AAd?$AA?5?$AA?$DM?$AA?$DN?$AA?5?$AAM?$AAA?$AAX?$AA_?$AAA?$AAL?$AAL?$AAO?$AAC?$AA_?$AAD?$AAA?$AAT?$AAA?$AA_?$AAS?$AAI?$AAZ@ 005f81a0     LIBCMTD:sbheap.obj
 0003:0003223c       ??_C@_1CG@BBFCGKBK@?$AA_?$AAs?$AAe?$AAt?$AA_?$AAs?$AAb?$AAh?$AA_?$AAt?$AAh?$AAr?$AAe?$AAs?$AAh?$AAo?$AAl?$AAd?$AA?$AA@ 005f823c     LIBCMTD:sbheap.obj
 0003:00032270       ??_C@_1EC@DACAONFE@?$AAt?$AAh?$AAr?$AAe?$AAs?$AAh?$AAo?$AAl?$AAd?$AA?5?$AA?$DM?$AA?$DN?$AA?5?$AAM?$AAA?$AAX?$AA_?$AAA?$AAL?$AAL?$AAO?$AAC?$AA_?$AAD?$AAA?$AAT?$AAA?$AA_?$AAS?$AAI?$AAZ?$AAE@ 005f8270     LIBCMTD:sbheap.obj
 0003:000322c0       ??_C@_1BM@GFNECEDD@?$AA_?$AAs?$AAe?$AAt?$AA_?$AAa?$AAm?$AAb?$AAl?$AAk?$AAs?$AAi?$AAz?$AA?$AA@ 005f82c0     LIBCMTD:sbheap.obj
 0003:000322e4       ??_C@_1DK@BKLENMLC@?$AA0?$AA?5?$AA?$DM?$AA?5?$AAs?$AAi?$AAz?$AAe?$AA?5?$AA?$CG?$AA?$CG?$AA?5?$AAs?$AAi?$AAz?$AAe?$AA?5?$AA?$DM?$AA?$DN?$AA?5?$AAU?$AAI?$AAN?$AAT?$AA_?$AAM?$AAA?$AAX?$AA?$AA@ 005f82e4     LIBCMTD:sbheap.obj
 0003:0003232c       ??_C@_1BM@OFBCOJJF@?$AA_?$AAg?$AAe?$AAt?$AA_?$AAa?$AAm?$AAb?$AAl?$AAk?$AAs?$AAi?$AAz?$AA?$AA@ 005f832c     LIBCMTD:sbheap.obj
 0003:00032350       ??_C@_1BM@IELHFPPM@?$AAp?$AAS?$AAi?$AAz?$AAe?$AA?5?$AA?$CB?$AA?$DN?$AA?5?$AAN?$AAU?$AAL?$AAL?$AA?$AA@ 005f8350     LIBCMTD:sbheap.obj
 0003:00032374       ??_C@_0DB@JEHOCBEJ@f?3?2dd?2vctools?2crt_bld?2self_x86?2c@ 005f8374     LIBCMTD:_getbuf.obj
 0003:000323b0       ??_C@_1GC@DKMGNNCC@?$AAf?$AA?3?$AA?2?$AAd?$AAd?$AA?2?$AAv?$AAc?$AAt?$AAo?$AAo?$AAl?$AAs?$AA?2?$AAc?$AAr?$AAt?$AA_?$AAb?$AAl?$AAd?$AA?2?$AAs?$AAe?$AAl?$AAf?$AA_?$AAx?$AA8?$AA6?$AA?2?$AAc@ 005f83b0     LIBCMTD:_getbuf.obj
 0003:00032428       ??_C@_1BI@IEADNOHF@?$AA_?$AAw?$AAc?$AAt?$AAo?$AAm?$AAb?$AA_?$AAs?$AA_?$AAl?$AA?$AA@ 005f8428     LIBCMTD:wctomb.obj
 0003:00032448       ??_C@_1GA@LDLHPOO@?$AAf?$AA?3?$AA?2?$AAd?$AAd?$AA?2?$AAv?$AAc?$AAt?$AAo?$AAo?$AAl?$AAs?$AA?2?$AAc?$AAr?$AAt?$AA_?$AAb?$AAl?$AAd?$AA?2?$AAs?$AAe?$AAl?$AAf?$AA_?$AAx?$AA8?$AA6?$AA?2?$AAc@ 005f8448     LIBCMTD:wctomb.obj
 0003:000324bc       ??_C@_1CO@HFMIILNF@?$AAs?$AAi?$AAz?$AAe?$AAI?$AAn?$AAB?$AAy?$AAt?$AAe?$AAs?$AA?5?$AA?$DM?$AA?$DN?$AA?5?$AAI?$AAN?$AAT?$AA_?$AAM?$AAA?$AAX?$AA?$AA@ 005f84bc     LIBCMTD:wctomb.obj
 0003:000324f8       ??_C@_1NK@LOFHIHFC@?$AAf?$AAM?$AAo?$AAd?$AAe?$AA?5?$AA?$DN?$AA?$DN?$AA?5?$AA_?$AAC?$AAR?$AAT?$AAD?$AAB?$AAG?$AA_?$AAR?$AAE?$AAP?$AAO?$AAR?$AAT?$AA_?$AAM?$AAO?$AAD?$AAE?$AA?5?$AA?$HM?$AA?$HM?$AA?5@ 005f84f8     LIBCMTD:dbgrptt.obj
 0003:00032600       ??_C@_1CE@FIHIECNJ@?$AA_?$AAC?$AAr?$AAt?$AAS?$AAe?$AAt?$AAR?$AAe?$AAp?$AAo?$AAr?$AAt?$AAM?$AAo?$AAd?$AAe?$AA?$AA@ 005f8600     LIBCMTD:dbgrptt.obj
 0003:00032630       ??_C@_1GC@FIGJJMEN@?$AAf?$AA?3?$AA?2?$AAd?$AAd?$AA?2?$AAv?$AAc?$AAt?$AAo?$AAo?$AAl?$AAs?$AA?2?$AAc?$AAr?$AAt?$AA_?$AAb?$AAl?$AAd?$AA?2?$AAs?$AAe?$AAl?$AAf?$AA_?$AAx?$AA8?$AA6?$AA?2?$AAc@ 005f8630     LIBCMTD:dbgrptt.obj
 0003:000326a8       ??_C@_1FA@IFFFOLDJ@?$AAn?$AAR?$AAp?$AAt?$AAT?$AAy?$AAp?$AAe?$AA?5?$AA?$DO?$AA?$DN?$AA?5?$AA0?$AA?5?$AA?$CG?$AA?$CG?$AA?5?$AAn?$AAR?$AAp?$AAt?$AAT?$AAy?$AAp?$AAe?$AA?5?$AA?$DM?$AA?5?$AA_?$AAC?$AAR?$AAT@ 005f86a8     LIBCMTD:dbgrptt.obj
 0003:00032708       ??_C@_1CE@IKKEDCME@?$AA_?$AAC?$AAr?$AAt?$AAS?$AAe?$AAt?$AAR?$AAe?$AAp?$AAo?$AAr?$AAt?$AAF?$AAi?$AAl?$AAe?$AA?$AA@ 005f8708     LIBCMTD:dbgrptt.obj
 0003:00032738       ??_C@_1HO@PJOFIKFE@?$AA_?$AAC?$AAr?$AAt?$AAD?$AAb?$AAg?$AAR?$AAe?$AAp?$AAo?$AAr?$AAt?$AA?3?$AA?5?$AAS?$AAt?$AAr?$AAi?$AAn?$AAg?$AA?5?$AAt?$AAo?$AAo?$AA?5?$AAl?$AAo?$AAn?$AAg?$AA?5?$AAo@ 005f8738     LIBCMTD:dbgrptt.obj
 0003:000327d0       ??_C@_1MC@IGEECMDB@?$AAw?$AAc?$AAs?$AAc?$AAp?$AAy?$AA_?$AAs?$AA?$CI?$AAs?$AAz?$AAO?$AAu?$AAt?$AAM?$AAe?$AAs?$AAs?$AAa?$AAg?$AAe?$AA2?$AA?0?$AA?5?$AA4?$AA0?$AA9?$AA6?$AA?0?$AA?5?$AAL?$AA?$CC@ 005f87d0     LIBCMTD:dbgrptt.obj
 0003:000328b8       ??_C@_1IM@OOKIFKOH@?$AAe?$AA?5?$AA?$DN?$AA?5?$AAm?$AAb?$AAs?$AAt?$AAo?$AAw?$AAc?$AAs?$AA_?$AAs?$AA?$CI?$AA?$CG?$AAr?$AAe?$AAt?$AA?0?$AA?5?$AAs?$AAz?$AAO?$AAu?$AAt?$AAM?$AAe?$AAs?$AAs?$AAa?$AAg@ 005f88b8     LIBCMTD:dbgrptt.obj
 0003:00032960       ??_C@_1FI@IBIOIHEG@?$AAs?$AAt?$AAr?$AAc?$AAp?$AAy?$AA_?$AAs?$AA?$CI?$AAs?$AAz?$AAO?$AAu?$AAt?$AAM?$AAe?$AAs?$AAs?$AAa?$AAg?$AAe?$AA?0?$AA?5?$AA4?$AA0?$AA9?$AA6?$AA?0?$AA?5?$AAs?$AAz?$AAL@ 005f8960     LIBCMTD:dbgrptt.obj
 0003:000329cc       ??_C@_0M@IPILFDFN@?$CFs?$CI?$CFd?$CJ?5?3?5?$CFs?$AA@ 005f89cc     LIBCMTD:dbgrptt.obj
 0003:000329e0       ??_C@_1EI@LDHJEDO@?$AAs?$AAt?$AAr?$AAc?$AAa?$AAt?$AA_?$AAs?$AA?$CI?$AAs?$AAz?$AAL?$AAi?$AAn?$AAe?$AAM?$AAe?$AAs?$AAs?$AAa?$AAg?$AAe?$AA?0?$AA?5?$AA4?$AA0?$AA9?$AA6?$AA?0?$AA?5?$AA?$CC?$AA?2@ 005f89e0     LIBCMTD:dbgrptt.obj
 0003:00032a38       ??_C@_01LIIJDEN@?$AN?$AA@  005f8a38     LIBCMTD:dbgrptt.obj
 0003:00032a40       ??_C@_1EI@CACDLAFK@?$AAs?$AAt?$AAr?$AAc?$AAa?$AAt?$AA_?$AAs?$AA?$CI?$AAs?$AAz?$AAL?$AAi?$AAn?$AAe?$AAM?$AAe?$AAs?$AAs?$AAa?$AAg?$AAe?$AA?0?$AA?5?$AA4?$AA0?$AA9?$AA6?$AA?0?$AA?5?$AA?$CC?$AA?2@ 005f8a40     LIBCMTD:dbgrptt.obj
 0003:00032a98       ??_C@_1FK@NPGBPOFO@?$AAs?$AAt?$AAr?$AAc?$AAa?$AAt?$AA_?$AAs?$AA?$CI?$AAs?$AAz?$AAL?$AAi?$AAn?$AAe?$AAM?$AAe?$AAs?$AAs?$AAa?$AAg?$AAe?$AA?0?$AA?5?$AA4?$AA0?$AA9?$AA6?$AA?0?$AA?5?$AAs?$AAz@ 005f8a98     LIBCMTD:dbgrptt.obj
 0003:00032b08       ??_C@_1KK@GIGAEDMO@?$AAs?$AAt?$AAr?$AAc?$AAp?$AAy?$AA_?$AAs?$AA?$CI?$AAs?$AAz?$AAL?$AAi?$AAn?$AAe?$AAM?$AAe?$AAs?$AAs?$AAa?$AAg?$AAe?$AA?0?$AA?5?$AA4?$AA0?$AA9?$AA6?$AA?0?$AA?5?$AAs?$AAz@ 005f8b08     LIBCMTD:dbgrptt.obj
 0003:00032bd4       ??_C@_0BC@LAIDCHCH@Assertion?5failed?$CB?$AA@ 005f8bd4     LIBCMTD:dbgrptt.obj
 0003:00032bec       ??_C@_0BD@CAENFOHP@Assertion?5failed?3?5?$AA@ 005f8bec     LIBCMTD:dbgrptt.obj
 0003:00032c08       ??_C@_1JI@GAALPGBM@?$AAs?$AAt?$AAr?$AAc?$AAp?$AAy?$AA_?$AAs?$AA?$CI?$AAs?$AAz?$AAU?$AAs?$AAe?$AAr?$AAM?$AAe?$AAs?$AAs?$AAa?$AAg?$AAe?$AA?0?$AA?5?$AA4?$AA0?$AA9?$AA6?$AA?0?$AA?5?$AA?$CC?$AA_@ 005f8c08     LIBCMTD:dbgrptt.obj
 0003:00032cc0       ??_C@_07BHGABMGB@?0?5Line?5?$AA@ 005f8cc0     LIBCMTD:dbgrptt.obj
 0003:00032ccc       ??_C@_0P@DFJNDPOP@?$DMfile?5unknown?$DO?$AA@ 005f8ccc     LIBCMTD:dbgrptt.obj
 0003:00032ce0       ??_C@_0CG@BNGLOCEO@Second?5Chance?5Assertion?5Failed?3?5@ 005f8ce0     LIBCMTD:dbgrptt.obj
 0003:00032d10       ??_C@_1FA@JPHJBHEM@?$AA_?$AAi?$AAt?$AAo?$AAa?$AA_?$AAs?$AA?$CI?$AAn?$AAL?$AAi?$AAn?$AAe?$AA?0?$AA?5?$AAs?$AAz?$AAL?$AAi?$AAn?$AAe?$AAM?$AAe?$AAs?$AAs?$AAa?$AAg?$AAe?$AA?0?$AA?5?$AA4?$AA0@ 005f8d10     LIBCMTD:dbgrptt.obj
 0003:00032d70       ??_C@_1CA@KHJHLKA@?$AA_?$AAV?$AAC?$AAr?$AAt?$AAD?$AAb?$AAg?$AAR?$AAe?$AAp?$AAo?$AAr?$AAt?$AAA?$AA?$AA@ 005f8d70     LIBCMTD:dbgrptt.obj
 0003:00032d98       ??_C@_1IE@CPGKIAGP@?$AAw?$AAc?$AAs?$AAt?$AAo?$AAm?$AAb?$AAs?$AA_?$AAs?$AA?$CI?$AA?$CG?$AAr?$AAe?$AAt?$AA?0?$AA?5?$AAs?$AAz?$AAa?$AAO?$AAu?$AAt?$AAM?$AAe?$AAs?$AAs?$AAa?$AAg?$AAe?$AA?0?$AA?5@ 005f8d98     LIBCMTD:dbgrptt.obj
 0003:00032e38       ??_C@_0DP@GNPEPHJD@_CrtDbgReport?3?5String?5too?5long?5o@ 005f8e38     LIBCMTD:dbgrptt.obj
 0003:00032e88       ??_C@_1MA@LBAMNNOB@?$AAs?$AAt?$AAr?$AAc?$AAp?$AAy?$AA_?$AAs?$AA?$CI?$AAs?$AAz?$AAO?$AAu?$AAt?$AAM?$AAe?$AAs?$AAs?$AAa?$AAg?$AAe?$AA2?$AA?0?$AA?5?$AA4?$AA0?$AA9?$AA6?$AA?0?$AA?5?$AA?$CC?$AA_@ 005f8e88     LIBCMTD:dbgrptt.obj
 0003:00032f70       ??_C@_1JC@EOAPFDLN@?$AAw?$AAc?$AAs?$AAt?$AAo?$AAm?$AAb?$AAs?$AA_?$AAs?$AA?$CI?$AA?$CI?$AA?$CI?$AAv?$AAo?$AAi?$AAd?$AA?5?$AA?$CK?$AA?$CJ?$AA0?$AA?$CJ?$AA?0?$AA?5?$AAs?$AAz?$AAO?$AAu?$AAt?$AAM?$AAe?$AAs@ 005f8f70     LIBCMTD:dbgrptt.obj
 0003:00033020       ??_C@_1FI@DBAIJPJE@?$AAw?$AAc?$AAs?$AAc?$AAp?$AAy?$AA_?$AAs?$AA?$CI?$AAs?$AAz?$AAO?$AAu?$AAt?$AAM?$AAe?$AAs?$AAs?$AAa?$AAg?$AAe?$AA?0?$AA?5?$AA4?$AA0?$AA9?$AA6?$AA?0?$AA?5?$AAs?$AAz?$AAL@ 005f9020     LIBCMTD:dbgrptt.obj
 0003:0003308c       ??_C@_1BI@JIDBEPIG@?$AA?$CF?$AAs?$AA?$CI?$AA?$CF?$AAd?$AA?$CJ?$AA?5?$AA?3?$AA?5?$AA?$CF?$AAs?$AA?$AA@ 005f908c     LIBCMTD:dbgrptt.obj
 0003:000330a8       ??_C@_1EK@PHCBEDKB@?$AAw?$AAc?$AAs?$AAc?$AAa?$AAt?$AA_?$AAs?$AA?$CI?$AAs?$AAz?$AAL?$AAi?$AAn?$AAe?$AAM?$AAe?$AAs?$AAs?$AAa?$AAg?$AAe?$AA?0?$AA?5?$AA4?$AA0?$AA9?$AA6?$AA?0?$AA?5?$AAL?$AA?$CC@ 005f90a8     LIBCMTD:dbgrptt.obj
 0003:00033100       ??_C@_13CMNBPIDO@?$AA?$AN?$AA?$AA@ 005f9100     LIBCMTD:dbgrptt.obj
 0003:00033108       ??_C@_1EK@NMDFGHMF@?$AAw?$AAc?$AAs?$AAc?$AAa?$AAt?$AA_?$AAs?$AA?$CI?$AAs?$AAz?$AAL?$AAi?$AAn?$AAe?$AAM?$AAe?$AAs?$AAs?$AAa?$AAg?$AAe?$AA?0?$AA?5?$AA4?$AA0?$AA9?$AA6?$AA?0?$AA?5?$AAL?$AA?$CC@ 005f9108     LIBCMTD:dbgrptt.obj
 0003:00033160       ??_C@_1FK@HPADHBBD@?$AAw?$AAc?$AAs?$AAc?$AAa?$AAt?$AA_?$AAs?$AA?$CI?$AAs?$AAz?$AAL?$AAi?$AAn?$AAe?$AAM?$AAe?$AAs?$AAs?$AAa?$AAg?$AAe?$AA?0?$AA?5?$AA4?$AA0?$AA9?$AA6?$AA?0?$AA?5?$AAs?$AAz@ 005f9160     LIBCMTD:dbgrptt.obj
 0003:000331d0       ??_C@_1KO@DGAHENCH@?$AAw?$AAc?$AAs?$AAc?$AAp?$AAy?$AA_?$AAs?$AA?$CI?$AAs?$AAz?$AAL?$AAi?$AAn?$AAe?$AAM?$AAe?$AAs?$AAs?$AAa?$AAg?$AAe?$AA?0?$AA?5?$AA4?$AA0?$AA9?$AA6?$AA?0?$AA?5?$AAs?$AAz@ 005f91d0     LIBCMTD:dbgrptt.obj
 0003:000332a0       ??_C@_1CG@FFFGGODN@?$AAA?$AAs?$AAs?$AAe?$AAr?$AAt?$AAi?$AAo?$AAn?$AA?5?$AAf?$AAa?$AAi?$AAl?$AAe?$AAd?$AA?3?$AA?5?$AA?$AA@ 005f92a0     LIBCMTD:dbgrptt.obj
 0003:000332d0       ??_C@_1JK@KHFABAEO@?$AAw?$AAc?$AAs?$AAc?$AAp?$AAy?$AA_?$AAs?$AA?$CI?$AAs?$AAz?$AAU?$AAs?$AAe?$AAr?$AAM?$AAe?$AAs?$AAs?$AAa?$AAg?$AAe?$AA?0?$AA?5?$AA4?$AA0?$AA9?$AA6?$AA?0?$AA?5?$AAL?$AA?$CC@ 005f92d0     LIBCMTD:dbgrptt.obj
 0003:00033388       ??_C@_1BA@ELMMDCFC@?$AA?0?$AA?5?$AAL?$AAi?$AAn?$AAe?$AA?5?$AA?$AA@ 005f9388     LIBCMTD:dbgrptt.obj
 0003:0003339c       ??_C@_1BO@OCHMLCAG@?$AA?$DM?$AAf?$AAi?$AAl?$AAe?$AA?5?$AAu?$AAn?$AAk?$AAn?$AAo?$AAw?$AAn?$AA?$DO?$AA?$AA@ 005f939c     LIBCMTD:dbgrptt.obj
 0003:000333c0       ??_C@_1EM@MJFLEDMB@?$AAS?$AAe?$AAc?$AAo?$AAn?$AAd?$AA?5?$AAC?$AAh?$AAa?$AAn?$AAc?$AAe?$AA?5?$AAA?$AAs?$AAs?$AAe?$AAr?$AAt?$AAi?$AAo?$AAn?$AA?5?$AAF?$AAa?$AAi?$AAl?$AAe?$AAd?$AA?3?$AA?5@ 005f93c0     LIBCMTD:dbgrptt.obj
 0003:00033420       ??_C@_1FA@CNLLOMHI@?$AA_?$AAi?$AAt?$AAo?$AAw?$AA_?$AAs?$AA?$CI?$AAn?$AAL?$AAi?$AAn?$AAe?$AA?0?$AA?5?$AAs?$AAz?$AAL?$AAi?$AAn?$AAe?$AAM?$AAe?$AAs?$AAs?$AAa?$AAg?$AAe?$AA?0?$AA?5?$AA4?$AA0@ 005f9420     LIBCMTD:dbgrptt.obj
 0003:00033480       ??_C@_1CA@HPALHDOD@?$AA_?$AAV?$AAC?$AAr?$AAt?$AAD?$AAb?$AAg?$AAR?$AAe?$AAp?$AAo?$AAr?$AAt?$AAW?$AA?$AA@ 005f9480     LIBCMTD:dbgrptt.obj
 0003:000334a8       ??_C@_1BE@BMIJMLDD@?$AA_?$AAs?$AAw?$AAp?$AAr?$AAi?$AAn?$AAt?$AAf?$AA?$AA@ 005f94a8     LIBCMTD:swprintf.obj
 0003:000334c0       ??_C@_1GE@DKGHLBLP@?$AAf?$AA?3?$AA?2?$AAd?$AAd?$AA?2?$AAv?$AAc?$AAt?$AAo?$AAo?$AAl?$AAs?$AA?2?$AAc?$AAr?$AAt?$AA_?$AAb?$AAl?$AAd?$AA?2?$AAs?$AAe?$AAl?$AAf?$AA_?$AAx?$AA8?$AA6?$AA?2?$AAc@ 005f94c0     LIBCMTD:swprintf.obj
 0003:00033538       ??_C@_0M@EKFFODEC@MSPDB80?4DLL?$AA@ 005f9538     LIBCMTD:_pdblkup_.obj
 0003:00033548       ??_C@_0BB@KCIACLNC@PDBOpenValidate5?$AA@ 005f9548     LIBCMTD:_pdblkup_.obj
 0003:0003355c       ??_C@_0BF@BMIHBHCA@EnvironmentDirectory?$AA@ 005f955c     LIBCMTD:_pdblkup_.obj
 0003:00033578       ??_C@_0CN@JNNIHDGH@SOFTWARE?2Microsoft?2VisualStudio?2@ 005f9578     LIBCMTD:_pdblkup_.obj
 0003:000335b0       ??_C@_0M@HLOHPNFA@RegCloseKey?$AA@ 005f95b0     LIBCMTD:_pdblkup_.obj
 0003:000335c0       ??_C@_0BB@HHEIPGME@RegQueryValueExA?$AA@ 005f95c0     LIBCMTD:_pdblkup_.obj
 0003:000335d4       ??_C@_0O@DCOGKJGG@RegOpenKeyExA?$AA@ 005f95d4     LIBCMTD:_pdblkup_.obj
 0003:000335e8       ___lookuptable_s           005f95e8     LIBCMTD:outputs.obj
 0003:00033658       ??_C@_1FK@LNCFKALM@?$AA?$CI?$AA?$CI?$AAs?$AAt?$AAa?$AAt?$AAe?$AA?5?$AA?$DN?$AA?$DN?$AA?5?$AAS?$AAT?$AA_?$AAN?$AAO?$AAR?$AAM?$AAA?$AAL?$AA?$CJ?$AA?5?$AA?$HM?$AA?$HM?$AA?5?$AA?$CI?$AAs?$AAt?$AAa?$AAt?$AAe?$AA?5@ 005f9658     LIBCMTD:outputs.obj
 0003:000336c8       ??_C@_1EE@DMAIGNBG@?$AA?$CI?$AA?$CC?$AAI?$AAn?$AAc?$AAo?$AAr?$AAr?$AAe?$AAc?$AAt?$AA?5?$AAf?$AAo?$AAr?$AAm?$AAa?$AAt?$AA?5?$AAs?$AAp?$AAe?$AAc?$AAi?$AAf?$AAi?$AAe?$AAr?$AA?$CC?$AA?0?$AA?5?$AA0@ 005f96c8     LIBCMTD:outputs.obj
 0003:0003371c       ??_C@_1BI@COFBLHCG@?$AA_?$AAo?$AAu?$AAt?$AAp?$AAu?$AAt?$AA_?$AAs?$AA_?$AAl?$AA?$AA@ 005f971c     LIBCMTD:outputs.obj
 0003:00033738       ??_C@_1FK@BCPANIEK@?$AA?$CI?$AA?$CC?$AAM?$AAi?$AAs?$AAs?$AAi?$AAn?$AAg?$AA?5?$AAp?$AAo?$AAs?$AAi?$AAt?$AAi?$AAo?$AAn?$AA?5?$AAi?$AAn?$AA?5?$AAt?$AAh?$AAe?$AA?5?$AAf?$AAo?$AAr?$AAm?$AAa?$AAt@ 005f9738     LIBCMTD:outputp.obj
 0003:000337a8       ??_C@_1JC@OACKELNN@?$AA_?$AAt?$AAv?$AAa?$AAl?$AAi?$AAd?$AAa?$AAt?$AAe?$AA_?$AAp?$AAa?$AAr?$AAa?$AAm?$AA_?$AAr?$AAe?$AAu?$AAs?$AAe?$AA?$CI?$AA?$CG?$AAp?$AAo?$AAs?$AA_?$AAv?$AAa?$AAl?$AAu@ 005f97a8     LIBCMTD:outputp.obj
 0003:00033858       ??_C@_1IK@NBGDDCBN@?$AA_?$AAt?$AAv?$AAa?$AAl?$AAi?$AAd?$AAa?$AAt?$AAe?$AA_?$AAp?$AAa?$AAr?$AAa?$AAm?$AA_?$AAr?$AAe?$AAu?$AAs?$AAe?$AA?$CI?$AA?$CG?$AAp?$AAo?$AAs?$AA_?$AAv?$AAa?$AAl?$AAu@ 005f9858     LIBCMTD:outputp.obj
 0003:00033900       ??_C@_1DG@GOHGNKHE@?$AAp?$AAa?$AAs?$AAs?$AA?5?$AA?$DN?$AA?$DN?$AA?5?$AAF?$AAO?$AAR?$AAM?$AAA?$AAT?$AA_?$AAO?$AAU?$AAT?$AAP?$AAU?$AAT?$AA_?$AAP?$AAA?$AAS?$AAS?$AA?$AA@ 005f9900     LIBCMTD:outputp.obj
 0003:00033940       ??_C@_1IM@DNGHAPLB@?$AA_?$AAt?$AAv?$AAa?$AAl?$AAi?$AAd?$AAa?$AAt?$AAe?$AA_?$AAp?$AAa?$AAr?$AAa?$AAm?$AA_?$AAr?$AAe?$AAu?$AAs?$AAe?$AA?$CI?$AA?$CG?$AAp?$AAo?$AAs?$AA_?$AAv?$AAa?$AAl?$AAu@ 005f9940     LIBCMTD:outputp.obj
 0003:000339e8       ??_C@_1IG@HJIMKDHC@?$AA_?$AAt?$AAv?$AAa?$AAl?$AAi?$AAd?$AAa?$AAt?$AAe?$AA_?$AAp?$AAa?$AAr?$AAa?$AAm?$AA_?$AAr?$AAe?$AAu?$AAs?$AAe?$AA?$CI?$AA?$CG?$AAp?$AAo?$AAs?$AA_?$AAv?$AAa?$AAl?$AAu@ 005f99e8     LIBCMTD:outputp.obj
 0003:00033a88       ??_C@_1IG@FDCPLALG@?$AA_?$AAt?$AAv?$AAa?$AAl?$AAi?$AAd?$AAa?$AAt?$AAe?$AA_?$AAp?$AAa?$AAr?$AAa?$AAm?$AA_?$AAr?$AAe?$AAu?$AAs?$AAe?$AA?$CI?$AA?$CG?$AAp?$AAo?$AAs?$AA_?$AAv?$AAa?$AAl?$AAu@ 005f9a88     LIBCMTD:outputp.obj
 0003:00033b28       ??_C@_1IK@MHEDJAMK@?$AA_?$AAt?$AAv?$AAa?$AAl?$AAi?$AAd?$AAa?$AAt?$AAe?$AA_?$AAp?$AAa?$AAr?$AAa?$AAm?$AA_?$AAr?$AAe?$AAu?$AAs?$AAe?$AA?$CI?$AA?$CG?$AAp?$AAo?$AAs?$AA_?$AAv?$AAa?$AAl?$AAu@ 005f9b28     LIBCMTD:outputp.obj
 0003:00033bd0       ??_C@_1EM@BNPHBBIA@?$AA?$CI?$AA?$CI?$AAt?$AAy?$AAp?$AAe?$AA_?$AAp?$AAo?$AAs?$AA?$DO?$AA?$DN?$AA0?$AA?$CJ?$AA?5?$AA?$CG?$AA?$CG?$AA?5?$AA?$CI?$AAt?$AAy?$AAp?$AAe?$AA_?$AAp?$AAo?$AAs?$AA?$DM?$AA_?$AAA?$AAR?$AAG@ 005f9bd0     LIBCMTD:outputp.obj
 0003:00033c30       ??_C@_1IK@EIEPDKHJ@?$AA_?$AAt?$AAv?$AAa?$AAl?$AAi?$AAd?$AAa?$AAt?$AAe?$AA_?$AAp?$AAa?$AAr?$AAa?$AAm?$AA_?$AAr?$AAe?$AAu?$AAs?$AAe?$AA?$CI?$AA?$CG?$AAp?$AAo?$AAs?$AA_?$AAv?$AAa?$AAl?$AAu@ 005f9c30     LIBCMTD:outputp.obj
 0003:00033cd8       ??_C@_1JG@JBJBOCFB@?$AA?$CI?$AA?$CI?$AAp?$AAr?$AAe?$AAc?$AAi?$AAs?$AA_?$AAp?$AAo?$AAs?$AA?5?$AA?$DO?$AA?$DN?$AA?5?$AA0?$AA?$CJ?$AA?5?$AA?$CG?$AA?$CG?$AA?5?$AA?$CI?$AA?$CK?$AAe?$AAn?$AAd?$AA_?$AAp?$AAo?$AAs?$AA?5@ 005f9cd8     LIBCMTD:outputp.obj
 0003:00033d90       ??_C@_1II@PIPIMLPF@?$AA_?$AAt?$AAv?$AAa?$AAl?$AAi?$AAd?$AAa?$AAt?$AAe?$AA_?$AAp?$AAa?$AAr?$AAa?$AAm?$AA_?$AAr?$AAe?$AAu?$AAs?$AAe?$AA?$CI?$AA?$CG?$AAp?$AAo?$AAs?$AA_?$AAv?$AAa?$AAl?$AAu@ 005f9d90     LIBCMTD:outputp.obj
 0003:00033e38       ??_C@_1JE@NMBHOLFI@?$AA?$CI?$AA?$CI?$AAw?$AAi?$AAd?$AAt?$AAh?$AA_?$AAp?$AAo?$AAs?$AA?5?$AA?$DO?$AA?$DN?$AA?5?$AA0?$AA?$CJ?$AA?5?$AA?$CG?$AA?$CG?$AA?5?$AA?$CI?$AA?$CK?$AAe?$AAn?$AAd?$AA_?$AAp?$AAo?$AAs?$AA?5?$AA?$DN@ 005f9e38     LIBCMTD:outputp.obj
 0003:00033ef0       ??_C@_1JC@PFJNKEIO@?$AA?$CI?$AA?$CI?$AAt?$AAy?$AAp?$AAe?$AA_?$AAp?$AAo?$AAs?$AA?5?$AA?$DO?$AA?$DN?$AA?5?$AA0?$AA?$CJ?$AA?5?$AA?$CG?$AA?$CG?$AA?5?$AA?$CI?$AA?$CK?$AAe?$AAn?$AAd?$AA_?$AAp?$AAo?$AAs?$AA?5?$AA?$DN?$AA?$DN@ 005f9ef0     LIBCMTD:outputp.obj
 0003:00033fa0       ??_C@_1BI@KANOLAMF@?$AA_?$AAo?$AAu?$AAt?$AAp?$AAu?$AAt?$AA_?$AAp?$AA_?$AAl?$AA?$AA@ 005f9fa0     LIBCMTD:outputp.obj
 0003:00033fbc       ??_C@_1BK@CDOALEA@?$AA_?$AAc?$AAo?$AAn?$AAt?$AAr?$AAo?$AAl?$AAf?$AAp?$AA_?$AAs?$AA?$AA@ 005f9fbc     LIBCMTD:_contrlfp_.obj
 0003:00033fe0       ??_C@_1HI@JIOCECAH@?$AAf?$AA?3?$AA?2?$AAd?$AAd?$AA?2?$AAv?$AAc?$AAt?$AAo?$AAo?$AAl?$AAs?$AA?2?$AAc?$AAr?$AAt?$AA_?$AAb?$AAl?$AAd?$AA?2?$AAs?$AAe?$AAl?$AAf?$AA_?$AAx?$AA8?$AA6?$AA?2?$AAc@ 005f9fe0     LIBCMTD:_contrlfp_.obj
 0003:00034070       ??_C@_1DG@JNDMIEJL@?$AA?$CI?$AA?$CC?$AAI?$AAn?$AAv?$AAa?$AAl?$AAi?$AAd?$AA?5?$AAi?$AAn?$AAp?$AAu?$AAt?$AA?5?$AAv?$AAa?$AAl?$AAu?$AAe?$AA?$CC?$AA?0?$AA?5?$AA0?$AA?$CJ?$AA?$AA@ 005fa070     LIBCMTD:_contrlfp_.obj
 0003:000340b0       ??_C@_1BK@CLIEHFDF@?$AAp?$AAf?$AAl?$AAt?$AA?5?$AA?$CB?$AA?$DN?$AA?5?$AAN?$AAU?$AAL?$AAL?$AA?$AA@ 005fa0b0     LIBCMTD:_fptostr.obj
 0003:000340d0       ??_C@_1GM@CEDLGDDI@?$AAs?$AAi?$AAz?$AAe?$AAI?$AAn?$AAB?$AAy?$AAt?$AAe?$AAs?$AA?5?$AA?$DO?$AA?5?$AA?$CI?$AAs?$AAi?$AAz?$AAe?$AA_?$AAt?$AA?$CJ?$AA?$CI?$AA?$CI?$AAd?$AAi?$AAg?$AAi?$AAt?$AAs?$AA?5?$AA?$DO@ 005fa0d0     LIBCMTD:_fptostr.obj
 0003:00034154       ??_C@_1BC@OPALLEB@?$AA_?$AAf?$AAp?$AAt?$AAo?$AAs?$AAt?$AAr?$AA?$AA@ 005fa154     LIBCMTD:_fptostr.obj
 0003:00034170       ??_C@_1GE@BDKOPHIO@?$AAf?$AA?3?$AA?2?$AAd?$AAd?$AA?2?$AAv?$AAc?$AAt?$AAo?$AAo?$AAl?$AAs?$AA?2?$AAc?$AAr?$AAt?$AA_?$AAb?$AAl?$AAd?$AA?2?$AAs?$AAe?$AAl?$AAf?$AA_?$AAx?$AA8?$AA6?$AA?2?$AAc@ 005fa170     LIBCMTD:_fptostr.obj
 0003:000341e8       ??_C@_1FK@KODCOBKF@?$AAs?$AAt?$AAr?$AAc?$AAp?$AAy?$AA_?$AAs?$AA?$CI?$AAr?$AAe?$AAs?$AAu?$AAl?$AAt?$AAs?$AAt?$AAr?$AA?0?$AA?5?$AAr?$AAe?$AAs?$AAu?$AAl?$AAt?$AAs?$AAi?$AAz?$AAe?$AA?0?$AA?5@ 005fa1e8     LIBCMTD:_cfout_.obj
 0003:00034254       ??_C@_1BC@BPMMEHLK@?$AA_?$AAf?$AAl?$AAt?$AAo?$AAu?$AAt?$AA2?$AA?$AA@ 005fa254     LIBCMTD:_cfout_.obj
 0003:00034270       ??_C@_1HC@PKFDNKN@?$AAf?$AA?3?$AA?2?$AAd?$AAd?$AA?2?$AAv?$AAc?$AAt?$AAo?$AAo?$AAl?$AAs?$AA?2?$AAc?$AAr?$AAt?$AA_?$AAb?$AAl?$AAd?$AA?2?$AAs?$AAe?$AAl?$AAf?$AA_?$AAx?$AA8?$AA6?$AA?2?$AAc@ 005fa270     LIBCMTD:_cfout_.obj
 0003:000342f8       ??_C@_1CG@EBJECAJM@?$AA_?$AAs?$AAe?$AAt?$AA_?$AAo?$AAu?$AAt?$AAp?$AAu?$AAt?$AA_?$AAf?$AAo?$AAr?$AAm?$AAa?$AAt?$AA?$AA@ 005fa2f8     LIBCMTD:outputformat.obj
 0003:00034328       ??_C@_1GM@NFGGJJCM@?$AAf?$AA?3?$AA?2?$AAd?$AAd?$AA?2?$AAv?$AAc?$AAt?$AAo?$AAo?$AAl?$AAs?$AA?2?$AAc?$AAr?$AAt?$AA_?$AAb?$AAl?$AAd?$AA?2?$AAs?$AAe?$AAl?$AAf?$AA_?$AAx?$AA8?$AA6?$AA?2?$AAc@ 005fa328     LIBCMTD:outputformat.obj
 0003:000343b0       ??_C@_1EM@EGEEBJLG@?$AA?$CI?$AAo?$AAp?$AAt?$AAi?$AAo?$AAn?$AAs?$AA?5?$AA?$CG?$AA?5?$AA?$HO?$AA_?$AAT?$AAW?$AAO?$AA_?$AAD?$AAI?$AAG?$AAI?$AAT?$AA_?$AAE?$AAX?$AAP?$AAO?$AAN?$AAE?$AAN?$AAT?$AA?$CJ@ 005fa3b0     LIBCMTD:outputformat.obj
 0003:0003440c       ??_C@_1BC@CFJEPFGF@?$AAs?$AAt?$AAr?$AAc?$AAp?$AAy?$AA_?$AAs?$AA?$AA@ 005fa40c     LIBCMTD:strcpy_s.obj
 0003:00034428       ??_C@_1FC@NCPEPIBI@?$AA?$CI?$AA?$CI?$AA_?$AAD?$AAs?$AAt?$AA?$CJ?$AA?$CJ?$AA?5?$AA?$CB?$AA?$DN?$AA?5?$AAN?$AAU?$AAL?$AAL?$AA?5?$AA?$CG?$AA?$CG?$AA?5?$AA?$CI?$AA?$CI?$AA_?$AAS?$AAi?$AAz?$AAe?$AAI?$AAn?$AAB?$AAy?$AAt@ 005fa428     LIBCMTD:strcpy_s.obj
 0003:0003448c       ??_C@_1BG@GBJNMPFA@?$AAs?$AA2?$AA?5?$AA?$CB?$AA?$DN?$AA?5?$AAN?$AAU?$AAL?$AAL?$AA?$AA@ 005fa48c     LIBCMTD:mbsnbicm.obj
 0003:000344a8       ??_C@_1BK@GEJONGBG@?$AA_?$AAm?$AAb?$AAs?$AAn?$AAb?$AAi?$AAc?$AAm?$AAp?$AA_?$AAl?$AA?$AA@ 005fa4a8     LIBCMTD:mbsnbicm.obj
 0003:000344c8       ??_C@_1GE@JLFFJINF@?$AAf?$AA?3?$AA?2?$AAd?$AAd?$AA?2?$AAv?$AAc?$AAt?$AAo?$AAo?$AAl?$AAs?$AA?2?$AAc?$AAr?$AAt?$AA_?$AAb?$AAl?$AAd?$AA?2?$AAs?$AAe?$AAl?$AAf?$AA_?$AAx?$AA8?$AA6?$AA?2?$AAc@ 005fa4c8     LIBCMTD:mbsnbicm.obj
 0003:00034540       ??_C@_1BG@MODEICJK@?$AAs?$AA1?$AA?5?$AA?$CB?$AA?$DN?$AA?5?$AAN?$AAU?$AAL?$AAL?$AA?$AA@ 005fa540     LIBCMTD:mbsnbicm.obj
 0003:0003455c       ??_C@_1BI@LPHOHGHI@?$AA_?$AAm?$AAb?$AAs?$AAn?$AAb?$AAc?$AAm?$AAp?$AA_?$AAl?$AA?$AA@ 005fa55c     LIBCMTD:mbsnbcmp.obj
 0003:00034578       ??_C@_1GE@IIBFGEPN@?$AAf?$AA?3?$AA?2?$AAd?$AAd?$AA?2?$AAv?$AAc?$AAt?$AAo?$AAo?$AAl?$AAs?$AA?2?$AAc?$AAr?$AAt?$AA_?$AAb?$AAl?$AAd?$AA?2?$AAs?$AAe?$AAl?$AAf?$AA_?$AAx?$AA8?$AA6?$AA?2?$AAc@ 005fa578     LIBCMTD:mbsnbcmp.obj
 0003:000345f0       ??_C@_1O@JDPLECOK@?$AAu?$AAn?$AAg?$AAe?$AAt?$AAc?$AA?$AA@ 005fa5f0     LIBCMTD:ungetc.obj
 0003:00034600       ??_C@_1GA@OAFAANFO@?$AAf?$AA?3?$AA?2?$AAd?$AAd?$AA?2?$AAv?$AAc?$AAt?$AAo?$AAo?$AAl?$AAs?$AA?2?$AAc?$AAr?$AAt?$AA_?$AAb?$AAl?$AAd?$AA?2?$AAs?$AAe?$AAl?$AAf?$AA_?$AAx?$AA8?$AA6?$AA?2?$AAc@ 005fa600     LIBCMTD:ungetc.obj
 0003:00034674       ??_C@_1BO@OLMLKKEA@?$AA_?$AAu?$AAn?$AAg?$AAe?$AAt?$AAc?$AA_?$AAn?$AAo?$AAl?$AAo?$AAc?$AAk?$AA?$AA@ 005fa674     LIBCMTD:ungetc.obj
 0003:00034698       ??_C@_1HC@OEJDDIIH@?$AAf?$AA?3?$AA?2?$AAd?$AAd?$AA?2?$AAv?$AAc?$AAt?$AAo?$AAo?$AAl?$AAs?$AA?2?$AAc?$AAr?$AAt?$AA_?$AAb?$AAl?$AAd?$AA?2?$AAs?$AAe?$AAl?$AAf?$AA_?$AAx?$AA8?$AA6?$AA?2?$AAc@ 005fa698     LIBCMTD:ungetc.obj
 0003:00034720       ??_C@_0BK@CIDNPOGP@GetUserObjectInformationA?$AA@ 005fa720     LIBCMTD:crtmbox.obj
 0003:00034740       ??_C@_0M@CHKKJDAI@MessageBoxA?$AA@ 005fa740     LIBCMTD:crtmbox.obj
 0003:00034750       ??_C@_0L@NDEGIDAG@USER32?4DLL?$AA@ 005fa750     LIBCMTD:crtmbox.obj
 0003:00034760       ??_C@_1BC@HGPNAKGC@?$AAs?$AAt?$AAr?$AAc?$AAa?$AAt?$AA_?$AAs?$AA?$AA@ 005fa760     LIBCMTD:strcat_s.obj
 0003:00034778       ??_C@_1BE@NDMJHJJG@?$AAs?$AAt?$AAr?$AAn?$AAc?$AAp?$AAy?$AA_?$AAs?$AA?$AA@ 005fa778     LIBCMTD:strncpy_s.obj
 0003:00034790       ??_C@_13NOLLCAOD@?$AA?$AA?$AA?$AA@ 005fa790     LIBCMTD:a_map.obj
 0003:00034798       ??_C@_1GA@INJGGEBC@?$AAf?$AA?3?$AA?2?$AAd?$AAd?$AA?2?$AAv?$AAc?$AAt?$AAo?$AAo?$AAl?$AAs?$AA?2?$AAc?$AAr?$AAt?$AA_?$AAb?$AAl?$AAd?$AA?2?$AAs?$AAe?$AAl?$AAf?$AA_?$AAx?$AA8?$AA6?$AA?2?$AAc@ 005fa798     LIBCMTD:a_map.obj
 0003:00034810       ??_C@_1FE@KNPCCODH@?$AA?$CI?$AA?$CC?$AAC?$AAo?$AAr?$AAr?$AAu?$AAp?$AAt?$AAe?$AAd?$AA?5?$AAp?$AAo?$AAi?$AAn?$AAt?$AAe?$AAr?$AA?5?$AAp?$AAa?$AAs?$AAs?$AAe?$AAd?$AA?5?$AAt?$AAo?$AA?5?$AA_?$AAf@ 005fa810     LIBCMTD:a_map.obj
 0003:00034874       ??_C@_06GDENEHCP@CONIN$?$AA@ 005fa874     LIBCMTD:initcon.obj
 0003:0003487c       ??_C@_07GPDNMNG@CONOUT$?$AA@ 005fa87c     LIBCMTD:initcon.obj
 0003:00034888       ??_C@_1BG@BBCDFOMA@?$AA_?$AAw?$AAo?$AAu?$AAt?$AAp?$AAu?$AAt?$AA_?$AAl?$AA?$AA@ 005fa888     LIBCMTD:woutput.obj
 0003:000348a4       ??_C@_1CC@MONNFDCM@?$AAv?$AAf?$AAw?$AAp?$AAr?$AAi?$AAn?$AAt?$AAf?$AA_?$AAh?$AAe?$AAl?$AAp?$AAe?$AAr?$AA?$AA@ 005fa8a4     LIBCMTD:vfwprint.obj
 0003:000348d0       ??_C@_1GE@MBMBDAGC@?$AAf?$AA?3?$AA?2?$AAd?$AAd?$AA?2?$AAv?$AAc?$AAt?$AAo?$AAo?$AAl?$AAs?$AA?2?$AAc?$AAr?$AAt?$AA_?$AAb?$AAl?$AAd?$AA?2?$AAs?$AAe?$AAl?$AAf?$AA_?$AAx?$AA8?$AA6?$AA?2?$AAc@ 005fa8d0     LIBCMTD:vfwprint.obj
 0003:00034948       ??_C@_1BK@ONMFGLDB@?$AA_?$AAw?$AAo?$AAu?$AAt?$AAp?$AAu?$AAt?$AA_?$AAs?$AA_?$AAl?$AA?$AA@ 005fa948     LIBCMTD:woutputs.obj
 0003:00034968       ??_C@_1BK@GDEKGMNC@?$AA_?$AAw?$AAo?$AAu?$AAt?$AAp?$AAu?$AAt?$AA_?$AAp?$AA_?$AAl?$AA?$AA@ 005fa968     LIBCMTD:woutputp.obj
 0003:00034a04       ??_C@_03IIINPABG@tan?$AA@  005faa04     LIBCMTD:_libm_error_.obj
 0003:00034a08       ??_C@_03LALBNOCG@cos?$AA@  005faa08     LIBCMTD:_libm_error_.obj
 0003:00034a0c       ??_C@_03BLEJJJBH@sin?$AA@  005faa0c     LIBCMTD:_libm_error_.obj
 0003:00034a10       ??_C@_04EHEDPDJG@modf?$AA@ 005faa10     LIBCMTD:_libm_error_.obj
 0003:00034a18       ??_C@_05PBJFFIGL@floor?$AA@ 005faa18     LIBCMTD:_libm_error_.obj
 0003:00034a20       ??_C@_04GFPJNGEK@ceil?$AA@ 005faa20     LIBCMTD:_libm_error_.obj
 0003:00034a28       ??_C@_04MLLJIGOK@atan?$AA@ 005faa28     LIBCMTD:_libm_error_.obj
 0003:00034a30       ??_C@_05EOHGHCHD@exp10?$AA@ 005faa30     LIBCMTD:_libm_error_.obj
 0003:00034a38       ??_C@_04PDIFKINK@acos?$AA@ 005faa38     LIBCMTD:_libm_error_.obj
 0003:00034a40       ??_C@_04FIHNOPOL@asin?$AA@ 005faa40     LIBCMTD:_libm_error_.obj
 0003:00034a48       ??_C@_03JGHBODFD@pow?$AA@  005faa48     LIBCMTD:_libm_error_.obj
 0003:00034a4c       ??_C@_03KHJOGHMM@exp?$AA@  005faa4c     LIBCMTD:_libm_error_.obj
 0003:00034a50       ??_C@_05HGHHAHAP@log10?$AA@ 005faa50     LIBCMTD:_libm_error_.obj
 0003:00034a58       ??_C@_03MGHMBJCF@log?$AA@  005faa58     LIBCMTD:_libm_error_.obj
 0003:00034a60       __real@4000000000000000    005faa60     LIBCMTD:_powhlp_.obj
 0003:00034a6c       ??_C@_1BO@IHLJHOPI@?$AA_?$AA_?$AAs?$AAt?$AAr?$AAg?$AAt?$AAo?$AAl?$AAd?$AA1?$AA2?$AA_?$AAl?$AA?$AA@ 005faa6c     LIBCMTD:_strgtold_.obj
 0003:00034a90       ??_C@_1IG@IGKPPFIM@?$AAf?$AA?3?$AA?2?$AAd?$AAd?$AA?2?$AAv?$AAc?$AAt?$AAo?$AAo?$AAl?$AAs?$AA?2?$AAc?$AAr?$AAt?$AA_?$AAb?$AAl?$AAd?$AA?2?$AAs?$AAe?$AAl?$AAf?$AA_?$AAx?$AA8?$AA6?$AA?2?$AAc@ 005faa90     LIBCMTD:_strgtold_.obj
 0003:00034b30       ??_C@_1CA@MBDBOHIB@?$AA_?$AAL?$AAo?$AAc?$AAa?$AAl?$AAe?$AA?5?$AA?$CB?$AA?$DN?$AA?5?$AAN?$AAU?$AAL?$AAL?$AA?$AA@ 005fab30     LIBCMTD:_strgtold_.obj
 0003:00034b58       ___newctype                005fab58     LIBCMTD:ctype.obj
 0003:00034e58       __wctype                   005fae58     LIBCMTD:ctype.obj
 0003:00035060       ___newclmap                005fb060     LIBCMTD:ctype.obj
 0003:000351e0       ___newcumap                005fb1e0     LIBCMTD:ctype.obj
 0003:00035500       ??_C@_1GE@GJCMHHMH@?$AAf?$AA?3?$AA?2?$AAd?$AAd?$AA?2?$AAv?$AAc?$AAt?$AAo?$AAo?$AAl?$AAs?$AA?2?$AAc?$AAr?$AAt?$AA_?$AAb?$AAl?$AAd?$AA?2?$AAs?$AAe?$AAl?$AAf?$AA_?$AAx?$AA8?$AA6?$AA?2?$AAc@ 005fb500     LIBCMTD:inittime.obj
 0003:00035578       ??_C@_1EE@FDHCFDHN@?$AAp?$AAl?$AAo?$AAc?$AAi?$AA?9?$AA?$DO?$AAl?$AAc?$AA_?$AAt?$AAi?$AAm?$AAe?$AA_?$AAc?$AAu?$AAr?$AAr?$AA?9?$AA?$DO?$AAr?$AAe?$AAf?$AAc?$AAo?$AAu?$AAn?$AAt?$AA?5?$AA?$DO?$AA?5@ 005fb578     LIBCMTD:inittime.obj
 0003:000355cc       ??_C@_0DC@KICHHNFK@f?3?2dd?2vctools?2crt_bld?2self_x86?2c@ 005fb5cc     LIBCMTD:inittime.obj
 0003:00035608       ??_C@_1GC@EDJOCBCL@?$AAf?$AA?3?$AA?2?$AAd?$AAd?$AA?2?$AAv?$AAc?$AAt?$AAo?$AAo?$AAl?$AAs?$AA?2?$AAc?$AAr?$AAt?$AA_?$AAb?$AAl?$AAd?$AA?2?$AAs?$AAe?$AAl?$AAf?$AA_?$AAx?$AA8?$AA6?$AA?2?$AAc@ 005fb608     LIBCMTD:initnum.obj
 0003:00035680       ??_C@_1DM@IFKAINNE@?$AAp?$AAl?$AAo?$AAc?$AAi?$AA?9?$AA?$DO?$AAl?$AAc?$AAo?$AAn?$AAv?$AA_?$AAn?$AAu?$AAm?$AA_?$AAr?$AAe?$AAf?$AAc?$AAo?$AAu?$AAn?$AAt?$AA?5?$AA?$DO?$AA?5?$AA0?$AA?$AA@ 005fb680     LIBCMTD:initnum.obj
 0003:000356c8       ??_C@_0DB@KKFMDHFI@f?3?2dd?2vctools?2crt_bld?2self_x86?2c@ 005fb6c8     LIBCMTD:initnum.obj
 0003:00035708       ??_C@_1GC@IKADOFBJ@?$AAf?$AA?3?$AA?2?$AAd?$AAd?$AA?2?$AAv?$AAc?$AAt?$AAo?$AAo?$AAl?$AAs?$AA?2?$AAc?$AAr?$AAt?$AA_?$AAb?$AAl?$AAd?$AA?2?$AAs?$AAe?$AAl?$AAf?$AA_?$AAx?$AA8?$AA6?$AA?2?$AAc@ 005fb708     LIBCMTD:initmon.obj
 0003:00035780       ??_C@_1DM@GKAPAMDO@?$AAp?$AAl?$AAo?$AAc?$AAi?$AA?9?$AA?$DO?$AAl?$AAc?$AAo?$AAn?$AAv?$AA_?$AAm?$AAo?$AAn?$AA_?$AAr?$AAe?$AAf?$AAc?$AAo?$AAu?$AAn?$AAt?$AA?5?$AA?$DO?$AA?5?$AA0?$AA?$AA@ 005fb780     LIBCMTD:initmon.obj
 0003:000357c8       ??_C@_0DB@BECNGFDL@f?3?2dd?2vctools?2crt_bld?2self_x86?2c@ 005fb7c8     LIBCMTD:initmon.obj
 0003:00035804       ??_C@_1DG@NMBGBDM@?$AAp?$AAl?$AAo?$AAc?$AAi?$AA?9?$AA?$DO?$AAc?$AAt?$AAy?$AAp?$AAe?$AA1?$AA_?$AAr?$AAe?$AAf?$AAc?$AAo?$AAu?$AAn?$AAt?$AA?5?$AA?$DO?$AA?5?$AA0?$AA?$AA@ 005fb804     LIBCMTD:initctyp.obj
 0003:00035848       ??_C@_1GE@OCPKBDKE@?$AAf?$AA?3?$AA?2?$AAd?$AAd?$AA?2?$AAv?$AAc?$AAt?$AAo?$AAo?$AAl?$AAs?$AA?2?$AAc?$AAr?$AAt?$AA_?$AAb?$AAl?$AAd?$AA?2?$AAs?$AAe?$AAl?$AAf?$AA_?$AAx?$AA8?$AA6?$AA?2?$AAc@ 005fb848     LIBCMTD:initctyp.obj
 0003:000358c0       ??_C@_0DC@EHLBFILA@f?3?2dd?2vctools?2crt_bld?2self_x86?2c@ 005fb8c0     LIBCMTD:initctyp.obj
 0003:000358fc       ??_C@_08JCCMCCIL@HH?3mm?3ss?$AA@ 005fb8fc     LIBCMTD:strftime.obj
 0003:00035908       ??_C@_0BE@CKGJFCPC@dddd?0?5MMMM?5dd?0?5yyyy?$AA@ 005fb908     LIBCMTD:strftime.obj
 0003:00035920       ??_C@_08BPBNCDIB@MM?1dd?1yy?$AA@ 005fb920     LIBCMTD:strftime.obj
 0003:0003592c       ??_C@_02CJNFDJBF@PM?$AA@   005fb92c     LIBCMTD:strftime.obj
 0003:00035930       ??_C@_02DEDBPAFC@AM?$AA@   005fb930     LIBCMTD:strftime.obj
 0003:00035934       ??_C@_08EDHMEBNP@December?$AA@ 005fb934     LIBCMTD:strftime.obj
 0003:00035940       ??_C@_08HCHEGEOA@November?$AA@ 005fb940     LIBCMTD:strftime.obj
 0003:0003594c       ??_C@_07JJNFCEND@October?$AA@ 005fb94c     LIBCMTD:strftime.obj
 0003:00035958       ??_C@_09BHHEALKD@September?$AA@ 005fb958     LIBCMTD:strftime.obj
 0003:00035964       ??_C@_06LBBHFDDG@August?$AA@ 005fb964     LIBCMTD:strftime.obj
 0003:0003596c       ??_C@_04MIEPOIFP@July?$AA@ 005fb96c     LIBCMTD:strftime.obj
 0003:00035974       ??_C@_04CNLMGBGM@June?$AA@ 005fb974     LIBCMTD:strftime.obj
 0003:0003597c       ??_C@_05DMJDNLEJ@April?$AA@ 005fb97c     LIBCMTD:strftime.obj
 0003:00035984       ??_C@_05HPCKOFNC@March?$AA@ 005fb984     LIBCMTD:strftime.obj
 0003:0003598c       ??_C@_08GNJGEPFN@February?$AA@ 005fb98c     LIBCMTD:strftime.obj
 0003:00035998       ??_C@_07CGJPFGJA@January?$AA@ 005fb998     LIBCMTD:strftime.obj
 0003:000359a4       ??_C@_03MKABNOCG@Dec?$AA@  005fb9a4     LIBCMTD:strftime.obj
 0003:000359a8       ??_C@_03JPJOFNIA@Nov?$AA@  005fb9a8     LIBCMTD:strftime.obj
 0003:000359ac       ??_C@_03BMAOKBAD@Oct?$AA@  005fb9ac     LIBCMTD:strftime.obj
 0003:000359b0       ??_C@_03GGCAPAJC@Sep?$AA@  005fb9b0     LIBCMTD:strftime.obj
 0003:000359b4       ??_C@_03IFJFEIGA@Aug?$AA@  005fb9b4     LIBCMTD:strftime.obj
 0003:000359b8       ??_C@_03LBGABGKK@Jul?$AA@  005fb9b8     LIBCMTD:strftime.obj
 0003:000359bc       ??_C@_03IDFGHECI@Jun?$AA@  005fb9bc     LIBCMTD:strftime.obj
 0003:000359c0       ??_C@_03CNMDKL@May?$AA@    005fb9c0     LIBCMTD:strftime.obj
 0003:000359c4       ??_C@_03LEOLGMJP@Apr?$AA@  005fb9c4     LIBCMTD:strftime.obj
 0003:000359c8       ??_C@_03ODNJBKGA@Mar?$AA@  005fb9c8     LIBCMTD:strftime.obj
 0003:000359cc       ??_C@_03HJBDCHOM@Feb?$AA@  005fb9cc     LIBCMTD:strftime.obj
 0003:000359d0       ??_C@_03JIHJHPIE@Jan?$AA@  005fb9d0     LIBCMTD:strftime.obj
 0003:000359d4       ??_C@_08INBOOONO@Saturday?$AA@ 005fb9d4     LIBCMTD:strftime.obj
 0003:000359e0       ??_C@_06JECMNKMI@Friday?$AA@ 005fb9e0     LIBCMTD:strftime.obj
 0003:000359e8       ??_C@_08HACCIKIA@Thursday?$AA@ 005fb9e8     LIBCMTD:strftime.obj
 0003:000359f4       ??_C@_09DLIGFAKA@Wednesday?$AA@ 005fb9f4     LIBCMTD:strftime.obj
 0003:00035a00       ??_C@_07BAAGCFCM@Tuesday?$AA@ 005fba00     LIBCMTD:strftime.obj
 0003:00035a0c       ??_C@_06JLEDEDGH@Monday?$AA@ 005fba0c     LIBCMTD:strftime.obj
 0003:00035a14       ??_C@_06OOPIFAJ@Sunday?$AA@ 005fba14     LIBCMTD:strftime.obj
 0003:00035a1c       ??_C@_03FEFJNEK@Sat?$AA@   005fba1c     LIBCMTD:strftime.obj
 0003:00035a20       ??_C@_03IDIOELNC@Fri?$AA@  005fba20     LIBCMTD:strftime.obj
 0003:00035a24       ??_C@_03IOFIKPDN@Thu?$AA@  005fba24     LIBCMTD:strftime.obj
 0003:00035a28       ??_C@_03MHOMLAJA@Wed?$AA@  005fba28     LIBCMTD:strftime.obj
 0003:00035a2c       ??_C@_03NAGEINEP@Tue?$AA@  005fba2c     LIBCMTD:strftime.obj
 0003:00035a30       ??_C@_03PDAGKDH@Mon?$AA@   005fba30     LIBCMTD:strftime.obj
 0003:00035a34       ??_C@_03KOEHGMDN@Sun?$AA@  005fba34     LIBCMTD:strftime.obj
 0003:00035a38       ??_C@_1FM@LPEPDBJF@?$AAs?$AAt?$AAr?$AAc?$AAp?$AAy?$AA_?$AAs?$AA?$CI?$AAs?$AA?0?$AA?5?$AA?$CI?$AAl?$AAe?$AAn?$AA?5?$AA?$CL?$AA?5?$AA1?$AA?$CJ?$AA?5?$AA?9?$AA?5?$AA?$CI?$AAs?$AA?5?$AA?9?$AA?5?$AAp?$AA?$CJ?$AA?0@ 005fba38     LIBCMTD:strftime.obj
 0003:00035aa8       ??_C@_1GG@NAGHPCAA@?$AAs?$AAt?$AAr?$AAc?$AAp?$AAy?$AA_?$AAs?$AA?$CI?$AAs?$AA?0?$AA?5?$AA?$CI?$AAl?$AAe?$AAn?$AA?5?$AA?$CL?$AA?5?$AA1?$AA?$CJ?$AA?5?$AA?9?$AA?5?$AA?$CI?$AAs?$AA?5?$AA?9?$AA?5?$AAp?$AA?$CJ?$AA?0@ 005fbaa8     LIBCMTD:strftime.obj
 0003:00035b24       ??_C@_1BG@LGACIFJI@?$AA_?$AAG?$AAe?$AAt?$AAd?$AAa?$AAy?$AAs?$AA_?$AAl?$AA?$AA@ 005fbb24     LIBCMTD:strftime.obj
 0003:00035b40       ??_C@_1GE@FCOIONJG@?$AAf?$AA?3?$AA?2?$AAd?$AAd?$AA?2?$AAv?$AAc?$AAt?$AAo?$AAo?$AAl?$AAs?$AA?2?$AAc?$AAr?$AAt?$AA_?$AAb?$AAl?$AAd?$AA?2?$AAs?$AAe?$AAl?$AAf?$AA_?$AAx?$AA8?$AA6?$AA?2?$AAc@ 005fbb40     LIBCMTD:strftime.obj
 0003:00035bb8       ??_C@_0DC@MEPJBKMO@f?3?2dd?2vctools?2crt_bld?2self_x86?2c@ 005fbbb8     LIBCMTD:strftime.obj
 0003:00035bf8       ??_C@_1FO@IFFKPIEL@?$AAs?$AAt?$AAr?$AAc?$AAp?$AAy?$AA_?$AAs?$AA?$CI?$AAs?$AA?0?$AA?5?$AA?$CI?$AAl?$AAe?$AAn?$AA?5?$AA?$CL?$AA?5?$AA1?$AA?$CJ?$AA?5?$AA?9?$AA?5?$AA?$CI?$AAs?$AA?5?$AA?9?$AA?5?$AAp?$AA?$CJ?$AA?0@ 005fbbf8     LIBCMTD:strftime.obj
 0003:00035c68       ??_C@_1GI@LNJDDNLK@?$AAs?$AAt?$AAr?$AAc?$AAp?$AAy?$AA_?$AAs?$AA?$CI?$AAs?$AA?0?$AA?5?$AA?$CI?$AAl?$AAe?$AAn?$AA?5?$AA?$CL?$AA?5?$AA1?$AA?$CJ?$AA?5?$AA?9?$AA?5?$AA?$CI?$AAs?$AA?5?$AA?9?$AA?5?$AAp?$AA?$CJ?$AA?0@ 005fbc68     LIBCMTD:strftime.obj
 0003:00035ce4       ??_C@_1BK@IDMELNCB@?$AA_?$AAG?$AAe?$AAt?$AAm?$AAo?$AAn?$AAt?$AAh?$AAs?$AA_?$AAl?$AA?$AA@ 005fbce4     LIBCMTD:strftime.obj
 0003:00035d08       ??_C@_1FG@CJBIADLJ@?$AAs?$AAt?$AAr?$AAc?$AAp?$AAy?$AA_?$AAs?$AA?$CI?$AAs?$AA?0?$AA?5?$AAl?$AAe?$AAn?$AA?5?$AA?9?$AA?5?$AA?$CI?$AAs?$AA?5?$AA?9?$AA?5?$AAp?$AA?$CJ?$AA?0?$AA?5?$AAp?$AAt?$AA?9?$AA?$DO?$AAw@ 005fbd08     LIBCMTD:strftime.obj
 0003:00035d70       ??_C@_1FI@PPIHCJGH@?$AAs?$AAt?$AAr?$AAc?$AAp?$AAy?$AA_?$AAs?$AA?$CI?$AAs?$AA?0?$AA?5?$AAl?$AAe?$AAn?$AA?5?$AA?9?$AA?5?$AA?$CI?$AAs?$AA?5?$AA?9?$AA?5?$AAp?$AA?$CJ?$AA?0?$AA?5?$AAp?$AAt?$AA?9?$AA?$DO?$AAw@ 005fbd70     LIBCMTD:strftime.obj
 0003:00035de0       ??_C@_1FI@GDNOPCGD@?$AAs?$AAt?$AAr?$AAc?$AAp?$AAy?$AA_?$AAs?$AA?$CI?$AAs?$AA?0?$AA?5?$AAl?$AAe?$AAn?$AA?5?$AA?9?$AA?5?$AA?$CI?$AAs?$AA?5?$AA?9?$AA?5?$AAp?$AA?$CJ?$AA?0?$AA?5?$AAp?$AAt?$AA?9?$AA?$DO?$AAw@ 005fbde0     LIBCMTD:strftime.obj
 0003:00035e50       ??_C@_1FA@MEHIJEIL@?$AAs?$AAt?$AAr?$AAc?$AAp?$AAy?$AA_?$AAs?$AA?$CI?$AAs?$AA?0?$AA?5?$AAl?$AAe?$AAn?$AA?5?$AA?9?$AA?5?$AA?$CI?$AAs?$AA?5?$AA?9?$AA?5?$AAp?$AA?$CJ?$AA?0?$AA?5?$AAp?$AAt?$AA?9?$AA?$DO?$AAa@ 005fbe50     LIBCMTD:strftime.obj
 0003:00035eb0       ??_C@_1FA@INCJEBF@?$AAs?$AAt?$AAr?$AAc?$AAp?$AAy?$AA_?$AAs?$AA?$CI?$AAs?$AA?0?$AA?5?$AAl?$AAe?$AAn?$AA?5?$AA?9?$AA?5?$AA?$CI?$AAs?$AA?5?$AA?9?$AA?5?$AAp?$AA?$CJ?$AA?0?$AA?5?$AAp?$AAt?$AA?9?$AA?$DO?$AAa@ 005fbeb0     LIBCMTD:strftime.obj
 0003:00035f10       ??_C@_1FC@BEAPAEGE@?$AAs?$AAt?$AAr?$AAc?$AAp?$AAy?$AA_?$AAs?$AA?$CI?$AAs?$AA?0?$AA?5?$AAl?$AAe?$AAn?$AA?5?$AA?9?$AA?5?$AA?$CI?$AAs?$AA?5?$AA?9?$AA?5?$AAp?$AA?$CJ?$AA?0?$AA?5?$AAp?$AAt?$AA?9?$AA?$DO?$AAm@ 005fbf10     LIBCMTD:strftime.obj
 0003:00035f78       ??_C@_1FM@CHHONFED@?$AAs?$AAt?$AAr?$AAc?$AAp?$AAy?$AA_?$AAs?$AA?$CI?$AAs?$AA?0?$AA?5?$AAl?$AAe?$AAn?$AA?5?$AA?9?$AA?5?$AA?$CI?$AAs?$AA?5?$AA?9?$AA?5?$AAp?$AA?$CJ?$AA?0?$AA?5?$AAp?$AAt?$AA?9?$AA?$DO?$AAm@ 005fbf78     LIBCMTD:strftime.obj
 0003:00035fe8       ??_C@_1FA@EBHJJADL@?$AAs?$AAt?$AAr?$AAc?$AAp?$AAy?$AA_?$AAs?$AA?$CI?$AAs?$AA?0?$AA?5?$AAl?$AAe?$AAn?$AA?5?$AA?9?$AA?5?$AA?$CI?$AAs?$AA?5?$AA?9?$AA?5?$AAp?$AA?$CJ?$AA?0?$AA?5?$AAp?$AAt?$AA?9?$AA?$DO?$AAw@ 005fbfe8     LIBCMTD:strftime.obj
 0003:00036048       ??_C@_1FK@ODMKEFLD@?$AAs?$AAt?$AAr?$AAc?$AAp?$AAy?$AA_?$AAs?$AA?$CI?$AAs?$AA?0?$AA?5?$AAl?$AAe?$AAn?$AA?5?$AA?9?$AA?5?$AA?$CI?$AAs?$AA?5?$AA?9?$AA?5?$AAp?$AA?$CJ?$AA?0?$AA?5?$AAp?$AAt?$AA?9?$AA?$DO?$AAw@ 005fc048     LIBCMTD:strftime.obj
 0003:000360b4       ??_C@_1BK@MJNHIAGO@?$AA_?$AAG?$AAe?$AAt?$AAt?$AAn?$AAa?$AAm?$AAe?$AAs?$AA_?$AAl?$AA?$AA@ 005fc0b4     LIBCMTD:strftime.obj
 0003:000360d4       ??_C@_1M@HCOOECOK@?$AAF?$AAA?$AAL?$AAS?$AAE?$AA?$AA@ 005fc0d4     LIBCMTD:strftime.obj
 0003:000360e8       ??_C@_1HC@JGDOBCNK@?$AA?$CI?$AA?$CC?$AAI?$AAn?$AAv?$AAa?$AAl?$AAi?$AAd?$AA?5?$AAM?$AAB?$AAC?$AAS?$AA?5?$AAc?$AAh?$AAa?$AAr?$AAa?$AAc?$AAt?$AAe?$AAr?$AA?5?$AAs?$AAe?$AAq?$AAu?$AAe?$AAn?$AAc@ 005fc0e8     LIBCMTD:strftime.obj
 0003:00036170       ??_C@_1CA@COHOENPC@?$AAt?$AAi?$AAm?$AAe?$AAp?$AAt?$AAr?$AA?5?$AA?$CB?$AA?$DN?$AA?5?$AAN?$AAU?$AAL?$AAL?$AA?$AA@ 005fc170     LIBCMTD:strftime.obj
 0003:00036198       ??_C@_1CG@MHIOFJLE@?$AA?$CI?$AA?5?$AAf?$AAo?$AAr?$AAm?$AAa?$AAt?$AA?5?$AA?$CB?$AA?$DN?$AA?5?$AAN?$AAU?$AAL?$AAL?$AA?5?$AA?$CJ?$AA?$AA@ 005fc198     LIBCMTD:strftime.obj
 0003:000361c8       ??_C@_1CC@IHEJKGMG@?$AA?$CI?$AA?5?$AAm?$AAa?$AAx?$AAs?$AAi?$AAz?$AAe?$AA?5?$AA?$CB?$AA?$DN?$AA?5?$AA0?$AA?5?$AA?$CJ?$AA?$AA@ 005fc1c8     LIBCMTD:strftime.obj
 0003:000361f0       ??_C@_1BI@ONBMGNNA@?$AA_?$AAS?$AAt?$AAr?$AAf?$AAt?$AAi?$AAm?$AAe?$AA_?$AAl?$AA?$AA@ 005fc1f0     LIBCMTD:strftime.obj
 0003:0003620c       ??_C@_1CG@MPKJHDAA@?$AA?$CI?$AA?5?$AAs?$AAt?$AAr?$AAi?$AAn?$AAg?$AA?5?$AA?$CB?$AA?$DN?$AA?5?$AAN?$AAU?$AAL?$AAL?$AA?5?$AA?$CJ?$AA?$AA@ 005fc20c     LIBCMTD:strftime.obj
 0003:00036240       ??_C@_1EG@JNJKHKFI@?$AA?$CI?$AA?5?$AA?$CC?$AAI?$AAn?$AAv?$AAa?$AAl?$AAi?$AAd?$AA?5?$AAf?$AAo?$AAr?$AAm?$AAa?$AAt?$AA?5?$AAd?$AAi?$AAr?$AAe?$AAc?$AAt?$AAi?$AAv?$AAe?$AA?$CC?$AA?5?$AA?0?$AA?5?$AA0@ 005fc240     LIBCMTD:strftime.obj
 0003:00036298       ??_C@_1HM@LBNGKIAD@?$AA?$CI?$AA?5?$AAt?$AAi?$AAm?$AAe?$AAp?$AAt?$AAr?$AA?9?$AA?$DO?$AAt?$AAm?$AA_?$AAy?$AAe?$AAa?$AAr?$AA?5?$AA?$DO?$AA?$DN?$AA?5?$AA?9?$AA1?$AA9?$AA0?$AA0?$AA?5?$AA?$CJ?$AA?5?$AA?$CG?$AA?$CG@ 005fc298     LIBCMTD:strftime.obj
 0003:0003632c       ??_C@_1DC@NMCFBMJP@?$AA?$CI?$AA?5?$AAt?$AAi?$AAm?$AAe?$AAp?$AAt?$AAr?$AA?9?$AA?$DO?$AAt?$AAm?$AA_?$AAy?$AAe?$AAa?$AAr?$AA?5?$AA?$DO?$AA?$DN?$AA0?$AA?5?$AA?$CJ?$AA?$AA@ 005fc32c     LIBCMTD:strftime.obj
 0003:00036368       ??_C@_1HC@HLKHIKOB@?$AA?$CI?$AA?5?$AA?$CI?$AA?5?$AAt?$AAi?$AAm?$AAe?$AAp?$AAt?$AAr?$AA?9?$AA?$DO?$AAt?$AAm?$AA_?$AAs?$AAe?$AAc?$AA?5?$AA?$DO?$AA?$DN?$AA0?$AA?5?$AA?$CJ?$AA?5?$AA?$CG?$AA?$CG?$AA?5?$AA?$CI?$AA?5?$AAt@ 005fc368     LIBCMTD:strftime.obj
 0003:000363f0       ??_C@_1HC@IGKDPPHL@?$AA?$CI?$AA?5?$AA?$CI?$AA?5?$AAt?$AAi?$AAm?$AAe?$AAp?$AAt?$AAr?$AA?9?$AA?$DO?$AAt?$AAm?$AA_?$AAm?$AAi?$AAn?$AA?5?$AA?$DO?$AA?$DN?$AA0?$AA?5?$AA?$CJ?$AA?5?$AA?$CG?$AA?$CG?$AA?5?$AA?$CI?$AA?5?$AAt@ 005fc3f0     LIBCMTD:strftime.obj
 0003:00036478       ??_C@_1HI@HHCJCPE@?$AA?$CI?$AA?5?$AA?$CI?$AA?5?$AAt?$AAi?$AAm?$AAe?$AAp?$AAt?$AAr?$AA?9?$AA?$DO?$AAt?$AAm?$AA_?$AAy?$AAd?$AAa?$AAy?$AA?5?$AA?$DO?$AA?$DN?$AA0?$AA?5?$AA?$CJ?$AA?5?$AA?$CG?$AA?$CG?$AA?5?$AA?$CI?$AA?5@ 005fc478     LIBCMTD:strftime.obj
 0003:00036508       ??_C@_1HG@KCGGFLNI@?$AA?$CI?$AA?5?$AA?$CI?$AA?5?$AAt?$AAi?$AAm?$AAe?$AAp?$AAt?$AAr?$AA?9?$AA?$DO?$AAt?$AAm?$AA_?$AAh?$AAo?$AAu?$AAr?$AA?5?$AA?$DO?$AA?$DN?$AA0?$AA?5?$AA?$CJ?$AA?5?$AA?$CG?$AA?$CG?$AA?5?$AA?$CI?$AA?5@ 005fc508     LIBCMTD:strftime.obj
 0003:00036598       ??_C@_1HG@NFHHOAD@?$AA?$CI?$AA?5?$AA?$CI?$AA?5?$AAt?$AAi?$AAm?$AAe?$AAp?$AAt?$AAr?$AA?9?$AA?$DO?$AAt?$AAm?$AA_?$AAm?$AAd?$AAa?$AAy?$AA?5?$AA?$DO?$AA?$DN?$AA1?$AA?5?$AA?$CJ?$AA?5?$AA?$CG?$AA?$CG?$AA?5?$AA?$CI?$AA?5@ 005fc598     LIBCMTD:strftime.obj
 0003:00036628       ??_C@_1HC@OOAMILFB@?$AA?$CI?$AA?5?$AA?$CI?$AA?5?$AAt?$AAi?$AAm?$AAe?$AAp?$AAt?$AAr?$AA?9?$AA?$DO?$AAt?$AAm?$AA_?$AAm?$AAo?$AAn?$AA?5?$AA?$DO?$AA?$DN?$AA0?$AA?5?$AA?$CJ?$AA?5?$AA?$CG?$AA?$CG?$AA?5?$AA?$CI?$AA?5?$AAt@ 005fc628     LIBCMTD:strftime.obj
 0003:000366b0       ??_C@_1BI@HBKPAJH@?$AA_?$AAe?$AAx?$AAp?$AAa?$AAn?$AAd?$AAt?$AAi?$AAm?$AAe?$AA?$AA@ 005fc6b0     LIBCMTD:strftime.obj
 0003:000366d0       ??_C@_1HE@BFLEOKFO@?$AA?$CI?$AA?5?$AA?$CI?$AA?5?$AAt?$AAi?$AAm?$AAe?$AAp?$AAt?$AAr?$AA?9?$AA?$DO?$AAt?$AAm?$AA_?$AAw?$AAd?$AAa?$AAy?$AA?5?$AA?$DO?$AA?$DN?$AA0?$AA?5?$AA?$CJ?$AA?5?$AA?$CG?$AA?$CG?$AA?5?$AA?$CI?$AA?5@ 005fc6d0     LIBCMTD:strftime.obj
 0003:00036760       ??_C@_1HG@PAEENAPO@?$AA?$CI?$AA?$CC?$AAI?$AAn?$AAv?$AAa?$AAl?$AAi?$AAd?$AA?5?$AAM?$AAB?$AAC?$AAS?$AA?5?$AAc?$AAh?$AAa?$AAr?$AAa?$AAc?$AAt?$AAe?$AAr?$AA?5?$AAs?$AAe?$AAq?$AAu?$AAe?$AAn?$AAc@ 005fc760     LIBCMTD:strftime.obj
 0003:000367f0       ??_C@_1IE@EIDABBDG@?$AA?$CI?$AA?$CC?$AAI?$AAn?$AAv?$AAa?$AAl?$AAi?$AAd?$AA?5?$AAM?$AAB?$AAC?$AAS?$AA?5?$AAc?$AAh?$AAa?$AAr?$AAa?$AAc?$AAt?$AAe?$AAr?$AA?5?$AAs?$AAe?$AAq?$AAu?$AAe?$AAn?$AAc@ 005fc7f0     LIBCMTD:strftime.obj
 0003:00036890       ??_C@_03EBAPMIKO@a?1p?$AA@ 005fc890     LIBCMTD:strftime.obj
 0003:00036894       ??_C@_05JAMEPDIN@am?1pm?$AA@ 005fc894     LIBCMTD:strftime.obj
 0003:0003689c       ??_C@_0O@FMJNFNKE@united?9states?$AA@ 005fc89c     LIBCMTD:getqloc.obj
 0003:000368ac       ??_C@_0P@NDHFFKCA@united?9kingdom?$AA@ 005fc8ac     LIBCMTD:getqloc.obj
 0003:000368c0       ??_C@_0BC@HHDADLGF@trinidad?5?$CG?5tobago?$AA@ 005fc8c0     LIBCMTD:getqloc.obj
 0003:000368d8       ??_C@_0M@IOAEBDAC@south?9korea?$AA@ 005fc8d8     LIBCMTD:getqloc.obj
 0003:000368e8       ??_C@_0N@FIELFKIJ@south?9africa?$AA@ 005fc8e8     LIBCMTD:getqloc.obj
 0003:000368f8       ??_C@_0M@OPNDHCMC@south?5korea?$AA@ 005fc8f8     LIBCMTD:getqloc.obj
 0003:00036908       ??_C@_0N@MDEOEPFI@south?5africa?$AA@ 005fc908     LIBCMTD:getqloc.obj
 0003:00036918       ??_C@_06FKAPCJLB@slovak?$AA@ 005fc918     LIBCMTD:getqloc.obj
 0003:00036920       ??_C@_0M@EFJANOAL@puerto?9rico?$AA@ 005fc920     LIBCMTD:getqloc.obj
 0003:00036930       ??_C@_08PGOJKDAI@pr?9china?$AA@ 005fc930     LIBCMTD:getqloc.obj
 0003:0003693c       ??_C@_08JHDOMCMI@pr?5china?$AA@ 005fc93c     LIBCMTD:getqloc.obj
 0003:00036948       ??_C@_02JHCHFBLL@nz?$AA@   005fc948     LIBCMTD:getqloc.obj
 0003:0003694c       ??_C@_0M@LINHDHKP@new?9zealand?$AA@ 005fc94c     LIBCMTD:getqloc.obj
 0003:0003695c       ??_C@_09IIIPPBDB@hong?9kong?$AA@ 005fc95c     LIBCMTD:getqloc.obj
 0003:00036968       ??_C@_07HJLCKBG@holland?$AA@ 005fc968     LIBCMTD:getqloc.obj
 0003:00036974       ??_C@_0O@LEHGMHAG@great?5britain?$AA@ 005fc974     LIBCMTD:getqloc.obj
 0003:00036984       ??_C@_07FACOMELA@england?$AA@ 005fc984     LIBCMTD:getqloc.obj
 0003:00036990       ??_C@_05JIHCEICB@czech?$AA@ 005fc990     LIBCMTD:getqloc.obj
 0003:00036998       ??_C@_05BBJOBLGB@china?$AA@ 005fc998     LIBCMTD:getqloc.obj
 0003:000369a0       ??_C@_07GPKPHICP@britain?$AA@ 005fc9a0     LIBCMTD:getqloc.obj
 0003:000369ac       ??_C@_07MHIPBHMG@america?$AA@ 005fc9ac     LIBCMTD:getqloc.obj
 0003:000369b8       ??_C@_03KIALPMKC@usa?$AA@  005fc9b8     LIBCMTD:getqloc.obj
 0003:000369bc       ??_C@_02FGJGKGGD@us?$AA@   005fc9bc     LIBCMTD:getqloc.obj
 0003:000369c0       ??_C@_02NEINDODK@uk?$AA@   005fc9c0     LIBCMTD:getqloc.obj
 0003:000369c4       ??_C@_05JMPCFJFJ@swiss?$AA@ 005fc9c4     LIBCMTD:getqloc.obj
 0003:000369cc       ??_C@_0BA@HLOCPIOD@swedish?9finland?$AA@ 005fc9cc     LIBCMTD:getqloc.obj
 0003:000369e0       ??_C@_0BC@PKCNIABK@spanish?9venezuela?$AA@ 005fc9e0     LIBCMTD:getqloc.obj
 0003:000369f8       ??_C@_0BA@GBHHMIJI@spanish?9uruguay?$AA@ 005fc9f8     LIBCMTD:getqloc.obj
 0003:00036a0c       ??_C@_0BE@BHDOHPMC@spanish?9puerto?5rico?$AA@ 005fca0c     LIBCMTD:getqloc.obj
 0003:00036a24       ??_C@_0N@KMOIDGGN@spanish?9peru?$AA@ 005fca24     LIBCMTD:getqloc.obj
 0003:00036a34       ??_C@_0BB@HMHLPGPH@spanish?9paraguay?$AA@ 005fca34     LIBCMTD:getqloc.obj
 0003:00036a48       ??_C@_0P@MCPKNGFD@spanish?9panama?$AA@ 005fca48     LIBCMTD:getqloc.obj
 0003:00036a5c       ??_C@_0BC@IHOHGAIL@spanish?9nicaragua?$AA@ 005fca5c     LIBCMTD:getqloc.obj
 0003:00036a74       ??_C@_0P@KLMJDNFJ@spanish?9modern?$AA@ 005fca74     LIBCMTD:getqloc.obj
 0003:00036a88       ??_C@_0BA@BPAPGBCM@spanish?9mexican?$AA@ 005fca88     LIBCMTD:getqloc.obj
 0003:00036a9c       ??_C@_0BB@PDECHHHE@spanish?9honduras?$AA@ 005fca9c     LIBCMTD:getqloc.obj
 0003:00036ab0       ??_C@_0BC@KLHKFGDB@spanish?9guatemala?$AA@ 005fcab0     LIBCMTD:getqloc.obj
 0003:00036ac8       ??_C@_0BE@MFOOKJAI@spanish?9el?5salvador?$AA@ 005fcac8     LIBCMTD:getqloc.obj
 0003:00036ae0       ??_C@_0BA@FCOKFPFC@spanish?9ecuador?$AA@ 005fcae0     LIBCMTD:getqloc.obj
 0003:00036af4       ??_C@_0BL@PLMGIMOO@spanish?9dominican?5republic?$AA@ 005fcaf4     LIBCMTD:getqloc.obj
 0003:00036b14       ??_C@_0BD@HLGDNMHB@spanish?9costa?5rica?$AA@ 005fcb14     LIBCMTD:getqloc.obj
 0003:00036b2c       ??_C@_0BB@PKCBKCPE@spanish?9colombia?$AA@ 005fcb2c     LIBCMTD:getqloc.obj
 0003:00036b40       ??_C@_0O@MCBIJGNE@spanish?9chile?$AA@ 005fcb40     LIBCMTD:getqloc.obj
 0003:00036b50       ??_C@_0BA@BEFEIGJJ@spanish?9bolivia?$AA@ 005fcb50     LIBCMTD:getqloc.obj
 0003:00036b64       ??_C@_0BC@EMECMPD@spanish?9argentina?$AA@ 005fcb64     LIBCMTD:getqloc.obj
 0003:00036b7c       ??_C@_0BF@EALFLENP@portuguese?9brazilian?$AA@ 005fcb7c     LIBCMTD:getqloc.obj
 0003:00036b98       ??_C@_0BC@HBLEBLNN@norwegian?9nynorsk?$AA@ 005fcb98     LIBCMTD:getqloc.obj
 0003:00036bb0       ??_C@_0BB@HMACDDCK@norwegian?9bokmal?$AA@ 005fcbb0     LIBCMTD:getqloc.obj
 0003:00036bc4       ??_C@_09BAFFPPHE@norwegian?$AA@ 005fcbc4     LIBCMTD:getqloc.obj
 0003:00036bd0       ??_C@_0O@EAJFJDFG@italian?9swiss?$AA@ 005fcbd0     LIBCMTD:getqloc.obj
 0003:00036be0       ??_C@_0O@CNOMPGD@irish?9english?$AA@ 005fcbe0     LIBCMTD:getqloc.obj
 0003:00036bf0       ??_C@_0N@EDHBGCKG@german?9swiss?$AA@ 005fcbf0     LIBCMTD:getqloc.obj
 0003:00036c00       ??_C@_0BC@JACMHNBP@german?9luxembourg?$AA@ 005fcc00     LIBCMTD:getqloc.obj
 0003:00036c18       ??_C@_0BE@HBGMGFEG@german?9lichtenstein?$AA@ 005fcc18     LIBCMTD:getqloc.obj
 0003:00036c30       ??_C@_0BA@HKKBIBKL@german?9austrian?$AA@ 005fcc30     LIBCMTD:getqloc.obj
 0003:00036c44       ??_C@_0N@GCAEPEBK@french?9swiss?$AA@ 005fcc44     LIBCMTD:getqloc.obj
 0003:00036c54       ??_C@_0BC@DJFJJCK@french?9luxembourg?$AA@ 005fcc54     LIBCMTD:getqloc.obj
 0003:00036c6c       ??_C@_0BA@NNCEDFIC@french?9canadian?$AA@ 005fcc6c     LIBCMTD:getqloc.obj
 0003:00036c80       ??_C@_0P@CMPOCLM@french?9belgian?$AA@ 005fcc80     LIBCMTD:getqloc.obj
 0003:00036c94       ??_C@_0M@GHHDJOK@english?9usa?$AA@ 005fcc94     LIBCMTD:getqloc.obj
 0003:00036ca4       ??_C@_0L@PLDJKEIL@english?9us?$AA@ 005fcca4     LIBCMTD:getqloc.obj
 0003:00036cb4       ??_C@_0L@HJCCDMNC@english?9uk?$AA@ 005fccb4     LIBCMTD:getqloc.obj
 0003:00036cc4       ??_C@_0BK@CKLIAGJB@english?9trinidad?5y?5tobago?$AA@ 005fccc4     LIBCMTD:getqloc.obj
 0003:00036ce4       ??_C@_0BF@JMJMGNNF@english?9south?5africa?$AA@ 005fcce4     LIBCMTD:getqloc.obj
 0003:00036d00       ??_C@_0L@DKIIFDFD@english?9nz?$AA@ 005fcd00     LIBCMTD:getqloc.obj
 0003:00036d10       ??_C@_0BA@ONHGJCLH@english?9jamaica?$AA@ 005fcd10     LIBCMTD:getqloc.obj
 0003:00036d24       ??_C@_0M@HJBGHOPO@english?9ire?$AA@ 005fcd24     LIBCMTD:getqloc.obj
 0003:00036d34       ??_C@_0BC@LFEKMIFB@english?9caribbean?$AA@ 005fcd34     LIBCMTD:getqloc.obj
 0003:00036d4c       ??_C@_0M@OLDPFKHI@english?9can?$AA@ 005fcd4c     LIBCMTD:getqloc.obj
 0003:00036d5c       ??_C@_0P@OMDEHBMP@english?9belize?$AA@ 005fcd5c     LIBCMTD:getqloc.obj
 0003:00036d70       ??_C@_0M@KFHFPFED@english?9aus?$AA@ 005fcd70     LIBCMTD:getqloc.obj
 0003:00036d80       ??_C@_0BB@MNMBKDFE@english?9american?$AA@ 005fcd80     LIBCMTD:getqloc.obj
 0003:00036d94       ??_C@_0O@KIDLNNBA@dutch?9belgian?$AA@ 005fcd94     LIBCMTD:getqloc.obj
 0003:00036da4       ??_C@_0BE@JBKABBMH@chinese?9traditional?$AA@ 005fcda4     LIBCMTD:getqloc.obj
 0003:00036dbc       ??_C@_0BC@MJJMPKCG@chinese?9singapore?$AA@ 005fcdbc     LIBCMTD:getqloc.obj
 0003:00036dd4       ??_C@_0BD@FDKADDCP@chinese?9simplified?$AA@ 005fcdd4     LIBCMTD:getqloc.obj
 0003:00036dec       ??_C@_0BB@DBEFDDME@chinese?9hongkong?$AA@ 005fcdec     LIBCMTD:getqloc.obj
 0003:00036e00       ??_C@_07DHNMFMCI@chinese?$AA@ 005fce00     LIBCMTD:getqloc.obj
 0003:00036e0c       ??_C@_03FNDDCHI@chi?$AA@   005fce0c     LIBCMTD:getqloc.obj
 0003:00036e10       ??_C@_03BMMIADDJ@chh?$AA@  005fce10     LIBCMTD:getqloc.obj
 0003:00036e14       ??_C@_08OAIPJDGI@canadian?$AA@ 005fce14     LIBCMTD:getqloc.obj
 0003:00036e20       ??_C@_07HBPMNPNJ@belgian?$AA@ 005fce20     LIBCMTD:getqloc.obj
 0003:00036e2c       ??_C@_0L@OEKOPBEL@australian?$AA@ 005fce2c     LIBCMTD:getqloc.obj
 0003:00036e3c       ??_C@_0BB@MEIMBEDG@american?9english?$AA@ 005fce3c     LIBCMTD:getqloc.obj
 0003:00036e50       ??_C@_0BB@DFMDPDGB@american?5english?$AA@ 005fce50     LIBCMTD:getqloc.obj
 0003:00036e64       ??_C@_08IJLOKOLL@american?$AA@ 005fce64     LIBCMTD:getqloc.obj
 0003:00036e70       ___rg_language             005fce70     LIBCMTD:getqloc.obj
 0003:000370e0       ___rg_country              005fd0e0     LIBCMTD:getqloc.obj
 0003:000371bc       ___rglangidNotDefault      005fd1bc     LIBCMTD:getqloc.obj
 0003:000371d4       ??_C@_0BC@NFIEMBLL@Norwegian?9Nynorsk?$AA@ 005fd1d4     LIBCMTD:getqloc.obj
 0003:000371f0       ??_C@_1OM@OECHDGCF@?$AAs?$AAt?$AAr?$AAc?$AAp?$AAy?$AA_?$AAs?$AA?$CI?$AAl?$AAp?$AAO?$AAu?$AAt?$AAS?$AAt?$AAr?$AA?9?$AA?$DO?$AAs?$AAz?$AAL?$AAa?$AAn?$AAg?$AAu?$AAa?$AAg?$AAe?$AA?0?$AA?5?$AA?$CI@ 005fd1f0     LIBCMTD:getqloc.obj
 0003:0003730c       ??_C@_1CO@NJACLALJ@?$AA_?$AA_?$AAg?$AAe?$AAt?$AA_?$AAq?$AAu?$AAa?$AAl?$AAi?$AAf?$AAi?$AAe?$AAd?$AA_?$AAl?$AAo?$AAc?$AAa?$AAl?$AAe?$AA?$AA@ 005fd30c     LIBCMTD:getqloc.obj
 0003:00037348       ??_C@_1GC@FECJGAE@?$AAf?$AA?3?$AA?2?$AAd?$AAd?$AA?2?$AAv?$AAc?$AAt?$AAo?$AAo?$AAl?$AAs?$AA?2?$AAc?$AAr?$AAt?$AA_?$AAb?$AAl?$AAd?$AA?2?$AAs?$AAe?$AAl?$AAf?$AA_?$AAx?$AA8?$AA6?$AA?2?$AAc@ 005fd348     LIBCMTD:getqloc.obj
 0003:000373c0       ??_C@_03NFKLAGEF@OCP?$AA@  005fd3c0     LIBCMTD:getqloc.obj
 0003:000373c4       ??_C@_01GBGANLPD@0?$AA@    005fd3c4     LIBCMTD:getqloc.obj
 0003:000373c8       ??_C@_03DFHEHBHG@ACP?$AA@  005fd3c8     LIBCMTD:getqloc.obj
 0003:000373cc       ??_C@_0P@GHFPNOJB@bad?5allocation?$AA@ 005fd3cc     LIBCMTD:frame.obj
 0003:000373e0       __pDestructExceptionObject 005fd3e0     LIBCMTD:frame.obj
 0003:000373e4       ??_C@_0O@DPKOEFFH@bad?5exception?$AA@ 005fd3e4     LIBCMTD:frame.obj
 0003:000373f8       ??_7bad_exception@std@@6B@ 005fd3f8     LIBCMTD:frame.obj
 0003:00037404       ??_C@_1CG@JEHFHLNG@?$AA_?$AAm?$AAb?$AAs?$AAt?$AAo?$AAw?$AAc?$AAs?$AA_?$AAl?$AA_?$AAh?$AAe?$AAl?$AAp?$AAe?$AAr?$AA?$AA@ 005fd404     LIBCMTD:mbstowcs.obj
 0003:00037438       ??_C@_1GE@LCCDHBMH@?$AAf?$AA?3?$AA?2?$AAd?$AAd?$AA?2?$AAv?$AAc?$AAt?$AAo?$AAo?$AAl?$AAs?$AA?2?$AAc?$AAr?$AAt?$AA_?$AAb?$AAl?$AAd?$AA?2?$AAs?$AAe?$AAl?$AAf?$AA_?$AAx?$AA8?$AA6?$AA?2?$AAc@ 005fd438     LIBCMTD:mbstowcs.obj
 0003:000374b0       ??_C@_1BE@EEKACIGI@?$AAs?$AA?5?$AA?$CB?$AA?$DN?$AA?5?$AAN?$AAU?$AAL?$AAL?$AA?$AA@ 005fd4b0     LIBCMTD:mbstowcs.obj
 0003:000374c8       ??_C@_1CO@JNPEPJAL@?$AAr?$AAe?$AAt?$AAs?$AAi?$AAz?$AAe?$AA?5?$AA?$DM?$AA?$DN?$AA?5?$AAs?$AAi?$AAz?$AAe?$AAI?$AAn?$AAW?$AAo?$AAr?$AAd?$AAs?$AA?$AA@ 005fd4c8     LIBCMTD:mbstowcs.obj
 0003:00037500       ??_C@_1CM@LLECFMFH@?$AAb?$AAu?$AAf?$AAf?$AAe?$AAr?$AAS?$AAi?$AAz?$AAe?$AA?5?$AA?$DM?$AA?$DN?$AA?5?$AAI?$AAN?$AAT?$AA_?$AAM?$AAA?$AAX?$AA?$AA@ 005fd500     LIBCMTD:mbstowcs.obj
 0003:00037534       ??_C@_1BM@PHENIGHD@?$AA_?$AAm?$AAb?$AAs?$AAt?$AAo?$AAw?$AAc?$AAs?$AA_?$AAs?$AA_?$AAl?$AA?$AA@ 005fd534     LIBCMTD:mbstowcs.obj
 0003:00037558       ??_C@_1JA@JKDFMOPO@?$AA?$CI?$AAp?$AAw?$AAc?$AAs?$AA?5?$AA?$DN?$AA?$DN?$AA?5?$AAN?$AAU?$AAL?$AAL?$AA?5?$AA?$CG?$AA?$CG?$AA?5?$AAs?$AAi?$AAz?$AAe?$AAI?$AAn?$AAW?$AAo?$AAr?$AAd?$AAs?$AA?5?$AA?$DN?$AA?$DN?$AA?5@ 005fd558     LIBCMTD:mbstowcs.obj
 0003:00037604       ??_C@_1O@GIMBNLEI@?$AAx?$AAt?$AAo?$AAa?$AA_?$AAs?$AA?$AA@ 005fd604     LIBCMTD:xtoas.obj
 0003:00037614       ??_C@_1BC@MJJNBNFN@?$AAx?$AA6?$AA4?$AAt?$AAo?$AAa?$AA_?$AAs?$AA?$AA@ 005fd614     LIBCMTD:xtoas.obj
 0003:0003762c       ??_C@_1CG@LLJCAOHF@?$AA_?$AAw?$AAc?$AAs?$AAt?$AAo?$AAm?$AAb?$AAs?$AA_?$AAl?$AA_?$AAh?$AAe?$AAl?$AAp?$AAe?$AAr?$AA?$AA@ 005fd62c     LIBCMTD:wcstombs.obj
 0003:00037660       ??_C@_1GE@OAENIBOD@?$AAf?$AA?3?$AA?2?$AAd?$AAd?$AA?2?$AAv?$AAc?$AAt?$AAo?$AAo?$AAl?$AAs?$AA?2?$AAc?$AAr?$AAt?$AA_?$AAb?$AAl?$AAd?$AA?2?$AAs?$AAe?$AAl?$AAf?$AA_?$AAx?$AA8?$AA6?$AA?2?$AAc@ 005fd660     LIBCMTD:wcstombs.obj
 0003:000376d8       ??_C@_1BK@OIBENBPM@?$AAp?$AAw?$AAc?$AAs?$AA?5?$AA?$CB?$AA?$DN?$AA?5?$AAN?$AAU?$AAL?$AAL?$AA?$AA@ 005fd6d8     LIBCMTD:wcstombs.obj
 0003:000376f8       ??_C@_1CM@KEOGBFLI@?$AAs?$AAi?$AAz?$AAe?$AAI?$AAn?$AAB?$AAy?$AAt?$AAe?$AAs?$AA?5?$AA?$DO?$AA?5?$AAr?$AAe?$AAt?$AAs?$AAi?$AAz?$AAe?$AA?$AA@ 005fd6f8     LIBCMTD:wcstombs.obj
 0003:0003772c       ??_C@_1BM@BDMCLLDL@?$AA_?$AAw?$AAc?$AAs?$AAt?$AAo?$AAm?$AAb?$AAs?$AA_?$AAs?$AA_?$AAl?$AA?$AA@ 005fd72c     LIBCMTD:wcstombs.obj
 0003:00037750       ??_C@_1IM@MFGKHGBP@?$AA?$CI?$AAd?$AAs?$AAt?$AA?5?$AA?$CB?$AA?$DN?$AA?5?$AAN?$AAU?$AAL?$AAL?$AA?5?$AA?$CG?$AA?$CG?$AA?5?$AAs?$AAi?$AAz?$AAe?$AAI?$AAn?$AAB?$AAy?$AAt?$AAe?$AAs?$AA?5?$AA?$DO?$AA?5?$AA0?$AA?$CJ@ 005fd750     LIBCMTD:wcstombs.obj
 0003:000377f8       ??_C@_1BK@EPLNBKAK@?$AA_?$AAv?$AAs?$AAw?$AAp?$AAr?$AAi?$AAn?$AAt?$AAf?$AA_?$AAl?$AA?$AA@ 005fd7f8     LIBCMTD:vswprint.obj
 0003:00037818       ??_C@_1CG@IMMIEPNA@?$AA_?$AAv?$AAs?$AAc?$AAw?$AAp?$AAr?$AAi?$AAn?$AAt?$AAf?$AA_?$AAh?$AAe?$AAl?$AAp?$AAe?$AAr?$AA?$AA@ 005fd818     LIBCMTD:vswprint.obj
 0003:00037848       ?commonFlags@?1??_control87@@9@9 005fd848     LIBCMTD:_ieee87_.obj
 0003:00037850       ??_C@_1GO@OKJGOMCB@?$AA_?$AAc?$AAo?$AAn?$AAt?$AAr?$AAo?$AAl?$AAf?$AAp?$AA_?$AAs?$AA?$CI?$AA?$CI?$AA?$CI?$AAv?$AAo?$AAi?$AAd?$AA?5?$AA?$CK?$AA?$CJ?$AA0?$AA?$CJ?$AA?0?$AA?5?$AAn?$AAe?$AAw?$AAc?$AAt?$AAr@ 005fd850     LIBCMTD:_ieee87_.obj
 0003:000378d4       ??_C@_1BO@OFDNCLL@?$AA_?$AAs?$AAe?$AAt?$AA_?$AAc?$AAo?$AAn?$AAt?$AAr?$AAo?$AAl?$AAf?$AAp?$AA?$AA@ 005fd8d4     LIBCMTD:_ieee87_.obj
 0003:000378f8       ??_C@_1HO@BFDKGHOI@?$AAf?$AA?3?$AA?2?$AAd?$AAd?$AA?2?$AAv?$AAc?$AAt?$AAo?$AAo?$AAl?$AAs?$AA?2?$AAc?$AAr?$AAt?$AA_?$AAb?$AAl?$AAd?$AA?2?$AAs?$AAe?$AAl?$AAf?$AA_?$AAx?$AA8?$AA6?$AA?2?$AAc@ 005fd8f8     LIBCMTD:_ieee87_.obj
 0003:00037990       ??_C@_06IMKFLFPG@1?$CDQNAN?$AA@ 005fd990     LIBCMTD:_x10fout_.obj
 0003:00037998       ??_C@_1EG@MCFPJJEM@?$AAs?$AAt?$AAr?$AAc?$AAp?$AAy?$AA_?$AAs?$AA?$CI?$AAf?$AAo?$AAs?$AA?9?$AA?$DO?$AAm?$AAa?$AAn?$AA?0?$AA?5?$AA2?$AA1?$AA?$CL?$AA1?$AA?0?$AA?5?$AA?$CC?$AA1?$AA?$CD?$AAQ?$AAN?$AAA?$AAN@ 005fd998     LIBCMTD:_x10fout_.obj
 0003:000379ec       ??_C@_05DNEBIAHO@1?$CDINF?$AA@ 005fd9ec     LIBCMTD:_x10fout_.obj
 0003:000379f8       ??_C@_1EE@ICBBBPAI@?$AAs?$AAt?$AAr?$AAc?$AAp?$AAy?$AA_?$AAs?$AA?$CI?$AAf?$AAo?$AAs?$AA?9?$AA?$DO?$AAm?$AAa?$AAn?$AA?0?$AA?5?$AA2?$AA1?$AA?$CL?$AA1?$AA?0?$AA?5?$AA?$CC?$AA1?$AA?$CD?$AAI?$AAN?$AAF?$AA?$CC@ 005fd9f8     LIBCMTD:_x10fout_.obj
 0003:00037a4c       ??_C@_05PHHOCPM@1?$CDIND?$AA@ 005fda4c     LIBCMTD:_x10fout_.obj
 0003:00037a58       ??_C@_1EE@MADEBIHF@?$AAs?$AAt?$AAr?$AAc?$AAp?$AAy?$AA_?$AAs?$AA?$CI?$AAf?$AAo?$AAs?$AA?9?$AA?$DO?$AAm?$AAa?$AAn?$AA?0?$AA?5?$AA2?$AA1?$AA?$CL?$AA1?$AA?0?$AA?5?$AA?$CC?$AA1?$AA?$CD?$AAI?$AAN?$AAD?$AA?$CC@ 005fda58     LIBCMTD:_x10fout_.obj
 0003:00037aac       ??_C@_06PGGFOGJG@1?$CDSNAN?$AA@ 005fdaac     LIBCMTD:_x10fout_.obj
 0003:00037ab8       ??_C@_1EG@CDDBFNOB@?$AAs?$AAt?$AAr?$AAc?$AAp?$AAy?$AA_?$AAs?$AA?$CI?$AAf?$AAo?$AAs?$AA?9?$AA?$DO?$AAm?$AAa?$AAn?$AA?0?$AA?5?$AA2?$AA1?$AA?$CL?$AA1?$AA?0?$AA?5?$AA?$CC?$AA1?$AA?$CD?$AAS?$AAN?$AAA?$AAN@ 005fdab8     LIBCMTD:_x10fout_.obj
 0003:00037b0c       ??_C@_1BI@ELMAAFLN@?$AA$?$AAI?$AA1?$AA0?$AA_?$AAO?$AAU?$AAT?$AAP?$AAU?$AAT?$AA?$AA@ 005fdb0c     LIBCMTD:_x10fout_.obj
 0003:00037b28       ??_C@_1HG@HFJMHCFK@?$AAf?$AA?3?$AA?2?$AAd?$AAd?$AA?2?$AAv?$AAc?$AAt?$AAo?$AAo?$AAl?$AAs?$AA?2?$AAc?$AAr?$AAt?$AA_?$AAb?$AAl?$AAd?$AA?2?$AAs?$AAe?$AAl?$AAf?$AA_?$AAx?$AA8?$AA6?$AA?2?$AAc@ 005fdb28     LIBCMTD:_x10fout_.obj
 0003:00037bb8       ??_C@_1CC@JLPHKJPH@?$AAc?$AAo?$AAu?$AAn?$AAt?$AA?5?$AA?$DM?$AA?$DN?$AA?5?$AAI?$AAN?$AAT?$AA_?$AAM?$AAA?$AAX?$AA?$AA@ 005fdbb8     LIBCMTD:strnicmp.obj
 0003:00037be0       ??_C@_1BI@BJLEPLEF@?$AA_?$AAs?$AAt?$AAr?$AAn?$AAi?$AAc?$AAm?$AAp?$AA_?$AAl?$AA?$AA@ 005fdbe0     LIBCMTD:strnicmp.obj
 0003:00037c00       ??_C@_1GE@CONPOJMA@?$AAf?$AA?3?$AA?2?$AAd?$AAd?$AA?2?$AAv?$AAc?$AAt?$AAo?$AAo?$AAl?$AAs?$AA?2?$AAc?$AAr?$AAt?$AA_?$AAb?$AAl?$AAd?$AA?2?$AAs?$AAe?$AAl?$AAf?$AA_?$AAx?$AA8?$AA6?$AA?2?$AAc@ 005fdc00     LIBCMTD:strnicmp.obj
 0003:00037c78       ??_C@_1BE@BHJDFFNA@?$AA_?$AAs?$AAt?$AAr?$AAn?$AAi?$AAc?$AAm?$AAp?$AA?$AA@ 005fdc78     LIBCMTD:strnicmp.obj
 0003:00037c90       ??_C@_0DC@IHGBBJOH@f?3?2dd?2vctools?2crt_bld?2self_x86?2c@ 005fdc90     LIBCMTD:convrtcp.obj
 0003:00037ccc       ??_C@_1O@HJNPHHHB@?$AAf?$AAp?$AAu?$AAt?$AAw?$AAc?$AA?$AA@ 005fdccc     LIBCMTD:fputwc.obj
 0003:00037ce0       ??_C@_1GA@BJIGKGEA@?$AAf?$AA?3?$AA?2?$AAd?$AAd?$AA?2?$AAv?$AAc?$AAt?$AAo?$AAo?$AAl?$AAs?$AA?2?$AAc?$AAr?$AAt?$AA_?$AAb?$AAl?$AAd?$AA?2?$AAs?$AAe?$AAl?$AAf?$AA_?$AAx?$AA8?$AA6?$AA?2?$AAc@ 005fdce0     LIBCMTD:fputwc.obj
 0003:00037d54       ??_C@_1BA@PCFLFGNC@?$AAw?$AAc?$AAs?$AAt?$AAo?$AAx?$AAl?$AA?$AA@ 005fdd54     LIBCMTD:wcstol.obj
 0003:00037d68       ??_C@_1GA@CADFOND@?$AAf?$AA?3?$AA?2?$AAd?$AAd?$AA?2?$AAv?$AAc?$AAt?$AAo?$AAo?$AAl?$AAs?$AA?2?$AAc?$AAr?$AAt?$AA_?$AAb?$AAl?$AAd?$AA?2?$AAs?$AAe?$AAl?$AAf?$AA_?$AAx?$AA8?$AA6?$AA?2?$AAc@ 005fdd68     LIBCMTD:wcstol.obj
 0003:00037ddc       ??_C@_0L@KDOEJCKC@_nextafter?$AA@ 005fdddc     LIBCMTD:_fpexcept_.obj
 0003:00037dec       ??_C@_05JGDBENOH@_logb?$AA@ 005fddec     LIBCMTD:_fpexcept_.obj
 0003:00037df4       ??_C@_03ONILCKOB@_yn?$AA@  005fddf4     LIBCMTD:_fpexcept_.obj
 0003:00037df8       ??_C@_03NAKIGLHK@_y1?$AA@  005fddf8     LIBCMTD:_fpexcept_.obj
 0003:00037dfc       ??_C@_03MJLDFKDL@_y0?$AA@  005fddfc     LIBCMTD:_fpexcept_.obj
 0003:00037e00       ??_C@_05GKKHEGJL@frexp?$AA@ 005fde00     LIBCMTD:_fpexcept_.obj
 0003:00037e08       ??_C@_04KEPJIHGP@fmod?$AA@ 005fde08     LIBCMTD:_fpexcept_.obj
 0003:00037e10       ??_C@_06MEIMCGCF@_hypot?$AA@ 005fde10     LIBCMTD:_fpexcept_.obj
 0003:00037e18       ??_C@_05KBKMEMPO@_cabs?$AA@ 005fde18     LIBCMTD:_fpexcept_.obj
 0003:00037e20       ??_C@_05CEJMAHNP@ldexp?$AA@ 005fde20     LIBCMTD:_fpexcept_.obj
 0003:00037e28       ??_C@_04ODHECPBC@fabs?$AA@ 005fde28     LIBCMTD:_fpexcept_.obj
 0003:00037e30       ??_C@_04EIAKFFMI@sqrt?$AA@ 005fde30     LIBCMTD:_fpexcept_.obj
 0003:00037e38       ??_C@_05KNGEOGJB@atan2?$AA@ 005fde38     LIBCMTD:_fpexcept_.obj
 0003:00037e40       ??_C@_04FJHINJAO@tanh?$AA@ 005fde40     LIBCMTD:_fpexcept_.obj
 0003:00037e48       ??_C@_04HPJJNFIM@cosh?$AA@ 005fde48     LIBCMTD:_fpexcept_.obj
 0003:00037e50       ??_C@_04COOMCNPB@sinh?$AA@ 005fde50     LIBCMTD:_fpexcept_.obj
 0003:00037e58       ___dnames                  005fde58     LIBCMTD:timeset.obj
 0003:00037e70       ___mnames                  005fde70     LIBCMTD:timeset.obj
 0003:00037ea4       ??_C@_1BM@FIMHBHEB@?$AA_?$AAg?$AAe?$AAt?$AA_?$AAd?$AAa?$AAy?$AAl?$AAi?$AAg?$AAh?$AAt?$AA?$AA@ 005fdea4     LIBCMTD:timeset.obj
 0003:00037ec8       ??_C@_1GC@NEGFAKA@?$AAf?$AA?3?$AA?2?$AAd?$AAd?$AA?2?$AAv?$AAc?$AAt?$AAo?$AAo?$AAl?$AAs?$AA?2?$AAc?$AAr?$AAt?$AA_?$AAb?$AAl?$AAd?$AA?2?$AAs?$AAe?$AAl?$AAf?$AA_?$AAx?$AA8?$AA6?$AA?2?$AAc@ 005fdec8     LIBCMTD:timeset.obj
 0003:00037f40       ??_C@_1CI@MKJEHFPG@?$AA?$CI?$AA_?$AAD?$AAa?$AAy?$AAl?$AAi?$AAg?$AAh?$AAt?$AA?5?$AA?$CB?$AA?$DN?$AA?5?$AAN?$AAU?$AAL?$AAL?$AA?$CJ?$AA?$AA@ 005fdf40     LIBCMTD:timeset.obj
 0003:00037f70       ??_C@_1BK@EMODDHEE@?$AA_?$AAg?$AAe?$AAt?$AA_?$AAd?$AAs?$AAt?$AAb?$AAi?$AAa?$AAs?$AA?$AA@ 005fdf70     LIBCMTD:timeset.obj
 0003:00037f90       ??_C@_1EC@PKDJPAAB@?$AA?$CI?$AA_?$AAD?$AAa?$AAy?$AAl?$AAi?$AAg?$AAh?$AAt?$AA_?$AAs?$AAa?$AAv?$AAi?$AAn?$AAg?$AAs?$AA_?$AAb?$AAi?$AAa?$AAs?$AA?5?$AA?$CB?$AA?$DN?$AA?5?$AAN?$AAU?$AAL?$AAL?$AA?$CJ@ 005fdf90     LIBCMTD:timeset.obj
 0003:00037fe0       ??_C@_1BM@MGEAKPEJ@?$AA_?$AAg?$AAe?$AAt?$AA_?$AAt?$AAi?$AAm?$AAe?$AAz?$AAo?$AAn?$AAe?$AA?$AA@ 005fdfe0     LIBCMTD:timeset.obj
 0003:00038004       ??_C@_1CI@PODJJGAL@?$AA?$CI?$AA_?$AAT?$AAi?$AAm?$AAe?$AAz?$AAo?$AAn?$AAe?$AA?5?$AA?$CB?$AA?$DN?$AA?5?$AAN?$AAU?$AAL?$AAL?$AA?$CJ?$AA?$AA@ 005fe004     LIBCMTD:timeset.obj
 0003:00038034       ??_C@_1DG@HLGKANIP@?$AA_?$AAI?$AAn?$AAd?$AAe?$AAx?$AA?5?$AA?$DN?$AA?$DN?$AA?5?$AA0?$AA?5?$AA?$HM?$AA?$HM?$AA?5?$AA_?$AAI?$AAn?$AAd?$AAe?$AAx?$AA?5?$AA?$DN?$AA?$DN?$AA?5?$AA1?$AA?$AA@ 005fe034     LIBCMTD:timeset.obj
 0003:00038074       ??_C@_1CK@GBKHKEI@?$AA_?$AAR?$AAe?$AAt?$AAu?$AAr?$AAn?$AAV?$AAa?$AAl?$AAu?$AAe?$AA?5?$AA?$CB?$AA?$DN?$AA?5?$AAN?$AAU?$AAL?$AAL?$AA?$AA@ 005fe074     LIBCMTD:timeset.obj
 0003:000380a8       ??_C@_1BI@BHCKCCFA@?$AA_?$AAg?$AAe?$AAt?$AA_?$AAt?$AAz?$AAn?$AAa?$AAm?$AAe?$AA?$AA@ 005fe0a8     LIBCMTD:timeset.obj
 0003:000380c8       ??_C@_1KA@POFLNEC@?$AA?$CI?$AA_?$AAB?$AAu?$AAf?$AAf?$AAe?$AAr?$AA?5?$AA?$CB?$AA?$DN?$AA?5?$AAN?$AAU?$AAL?$AAL?$AA?5?$AA?$CG?$AA?$CG?$AA?5?$AA_?$AAS?$AAi?$AAz?$AAe?$AAI?$AAn?$AAB?$AAy?$AAt?$AAe?$AAs@ 005fe0c8     LIBCMTD:timeset.obj
 0003:00038188       ??_C@_1EA@GEPBEDLJ@?$AAs?$AAt?$AAr?$AAn?$AAc?$AAp?$AAy?$AA_?$AAs?$AA?$CI?$AAt?$AAz?$AAn?$AAa?$AAm?$AAe?$AA?$FL?$AA1?$AA?$FN?$AA?0?$AA?5?$AA6?$AA4?$AA?0?$AA?5?$AAT?$AAZ?$AA?0?$AA?5?$AA3?$AA?$CJ?$AA?$AA@ 005fe188     LIBCMTD:tzset.obj
 0003:000381d8       ??_C@_1EA@FIJBKALB@?$AAs?$AAt?$AAr?$AAn?$AAc?$AAp?$AAy?$AA_?$AAs?$AA?$CI?$AAt?$AAz?$AAn?$AAa?$AAm?$AAe?$AA?$FL?$AA0?$AA?$FN?$AA?0?$AA?5?$AA6?$AA4?$AA?0?$AA?5?$AAT?$AAZ?$AA?0?$AA?5?$AA3?$AA?$CJ?$AA?$AA@ 005fe1d8     LIBCMTD:tzset.obj
 0003:00038228       ??_C@_1EK@MCAIMDPB@?$AAs?$AAt?$AAr?$AAc?$AAp?$AAy?$AA_?$AAs?$AA?$CI?$AAl?$AAa?$AAs?$AAt?$AAT?$AAZ?$AA?0?$AA?5?$AAs?$AAt?$AAr?$AAl?$AAe?$AAn?$AA?$CI?$AAT?$AAZ?$AA?$CJ?$AA?5?$AA?$CL?$AA?5?$AA1?$AA?0@ 005fe228     LIBCMTD:tzset.obj
 0003:00038280       ??_C@_0CP@FODJBIFF@f?3?2dd?2vctools?2crt_bld?2self_x86?2c@ 005fe280     LIBCMTD:tzset.obj
 0003:000382b8       ??_C@_02CLFPBFFP@TZ?$AA@   005fe2b8     LIBCMTD:tzset.obj
 0003:000382bc       ??_C@_1CO@IMMOMMCB@?$AA_?$AAg?$AAe?$AAt?$AA_?$AAd?$AAs?$AAt?$AAb?$AAi?$AAa?$AAs?$AA?$CI?$AA?$CG?$AAd?$AAs?$AAt?$AAb?$AAi?$AAa?$AAs?$AA?$CJ?$AA?$AA@ 005fe2bc     LIBCMTD:tzset.obj
 0003:000382f4       ??_C@_1DC@MEHEMOPB@?$AA_?$AAg?$AAe?$AAt?$AA_?$AAd?$AAa?$AAy?$AAl?$AAi?$AAg?$AAh?$AAt?$AA?$CI?$AA?$CG?$AAd?$AAa?$AAy?$AAl?$AAi?$AAg?$AAh?$AAt?$AA?$CJ?$AA?$AA@ 005fe2f4     LIBCMTD:tzset.obj
 0003:00038330       ??_C@_1DC@CMKCHHFC@?$AA_?$AAg?$AAe?$AAt?$AA_?$AAt?$AAi?$AAm?$AAe?$AAz?$AAo?$AAn?$AAe?$AA?$CI?$AA?$CG?$AAt?$AAi?$AAm?$AAe?$AAz?$AAo?$AAn?$AAe?$AA?$CJ?$AA?$AA@ 005fe330     LIBCMTD:tzset.obj
 0003:0003836c       ??_C@_1BM@IIODHMJC@?$AA_?$AAt?$AAz?$AAs?$AAe?$AAt?$AA_?$AAn?$AAo?$AAl?$AAo?$AAc?$AAk?$AA?$AA@ 005fe36c     LIBCMTD:tzset.obj
 0003:00038390       ??_C@_1FO@MLHAIHAB@?$AAf?$AA?3?$AA?2?$AAd?$AAd?$AA?2?$AAv?$AAc?$AAt?$AAo?$AAo?$AAl?$AAs?$AA?2?$AAc?$AAr?$AAt?$AA_?$AAb?$AAl?$AAd?$AA?2?$AAs?$AAe?$AAl?$AAf?$AA_?$AAx?$AA8?$AA6?$AA?2?$AAc@ 005fe390     LIBCMTD:tzset.obj
 0003:00038400       ??_C@_1CA@GOLIIEDM@?$AA_?$AAi?$AAs?$AAi?$AAn?$AAd?$AAs?$AAt?$AA_?$AAn?$AAo?$AAl?$AAo?$AAc?$AAk?$AA?$AA@ 005fe400     LIBCMTD:tzset.obj
 0003:00038428       ??_C@_1BA@GOCKIDGO@?$AAc?$AAv?$AAt?$AAd?$AAa?$AAt?$AAe?$AA?$AA@ 005fe428     LIBCMTD:tzset.obj
 0003:00038468       ??_7type_info@@6B@         005fe468     LIBCMTD:typinfo.obj
 0003:00038474       ??_7exception@std@@6B@     005fe474     LIBCMTD:stdexcpt.obj
 0003:00038480       ??_C@_0BC@EOODALEL@Unknown?5exception?$AA@ 005fe480     LIBCMTD:stdexcpt.obj
 0003:0003849c       ??_7bad_cast@std@@6B@      005fe49c     LIBCMTD:stdexcpt.obj
 0003:000384ac       ??_7bad_typeid@std@@6B@    005fe4ac     LIBCMTD:stdexcpt.obj
 0003:000384bc       ??_7__non_rtti_object@std@@6B@ 005fe4bc     LIBCMTD:stdexcpt.obj
 0003:000384c8       ??_C@_1GE@BDAODJCD@?$AAf?$AA?3?$AA?2?$AAd?$AAd?$AA?2?$AAv?$AAc?$AAt?$AAo?$AAo?$AAl?$AAs?$AA?2?$AAc?$AAr?$AAt?$AA_?$AAb?$AAl?$AAd?$AA?2?$AAs?$AAe?$AAl?$AAf?$AA_?$AAx?$AA8?$AA6?$AA?2?$AAc@ 005fe4c8     LIBCMTD:dbgdel.obj
 0003:00038540       ??_C@_1FA@HILOOCMA@?$AA?$CI?$AA_?$AAt?$AAc?$AAs?$AAn?$AAl?$AAe?$AAn?$AA?$CI?$AAo?$AAp?$AAt?$AAi?$AAo?$AAn?$AA?0?$AA?5?$AA_?$AAM?$AAA?$AAX?$AA_?$AAE?$AAN?$AAV?$AA?$CJ?$AA?5?$AA?$DM?$AA?5?$AA_?$AAM@ 005fe540     LIBCMTD:getenv.obj
 0003:000385a0       ??_C@_1O@GMKGKCJO@?$AAg?$AAe?$AAt?$AAe?$AAn?$AAv?$AA?$AA@ 005fe5a0     LIBCMTD:getenv.obj
 0003:000385b0       ??_C@_1GA@IPPICGKB@?$AAf?$AA?3?$AA?2?$AAd?$AAd?$AA?2?$AAv?$AAc?$AAt?$AAo?$AAo?$AAl?$AAs?$AA?2?$AAc?$AAr?$AAt?$AA_?$AAb?$AAl?$AAd?$AA?2?$AAs?$AAe?$AAl?$AAf?$AA_?$AAx?$AA8?$AA6?$AA?2?$AAc@ 005fe5b0     LIBCMTD:getenv.obj
 0003:00038624       ??_C@_1CC@FKAOHHLO@?$AA?$CI?$AAo?$AAp?$AAt?$AAi?$AAo?$AAn?$AA?5?$AA?$CB?$AA?$DN?$AA?5?$AAN?$AAU?$AAL?$AAL?$AA?$CJ?$AA?$AA@ 005fe624     LIBCMTD:getenv.obj
 0003:00038650       ??_C@_1GI@JBIFPFJH@?$AA_?$AAt?$AAc?$AAs?$AAn?$AAl?$AAe?$AAn?$AA?$CI?$AA?$CK?$AAs?$AAe?$AAa?$AAr?$AAc?$AAh?$AA?5?$AA?$CL?$AA?5?$AAl?$AAe?$AAn?$AAg?$AAt?$AAh?$AA?5?$AA?$CL?$AA?5?$AA1?$AA?0?$AA?5?$AA_@ 005fe650     LIBCMTD:getenv.obj
 0003:000386d0       ??_C@_1EI@HHOBPCFK@?$AAs?$AAt?$AAr?$AAc?$AAp?$AAy?$AA_?$AAs?$AA?$CI?$AAb?$AAu?$AAf?$AAf?$AAe?$AAr?$AA?0?$AA?5?$AAs?$AAi?$AAz?$AAe?$AAI?$AAn?$AAT?$AAC?$AAh?$AAa?$AAr?$AAs?$AA?0?$AA?5?$AAs@ 005fe6d0     LIBCMTD:getenv.obj
 0003:00038728       ??_C@_1JM@NLPGJJPH@?$AA?$CI?$AAb?$AAu?$AAf?$AAf?$AAe?$AAr?$AA?5?$AA?$CB?$AA?$DN?$AA?5?$AAN?$AAU?$AAL?$AAL?$AA?5?$AA?$CG?$AA?$CG?$AA?5?$AAs?$AAi?$AAz?$AAe?$AAI?$AAn?$AAT?$AAC?$AAh?$AAa?$AAr?$AAs?$AA?5@ 005fe728     LIBCMTD:getenv.obj
 0003:000387e4       ??_C@_1CC@BAJKDIIF@?$AA_?$AAg?$AAe?$AAt?$AAe?$AAn?$AAv?$AA_?$AAs?$AA_?$AAh?$AAe?$AAl?$AAp?$AAe?$AAr?$AA?$AA@ 005fe7e4     LIBCMTD:getenv.obj
 0003:0003880c       ??_C@_1CK@PIKDAOCL@?$AAp?$AAR?$AAe?$AAt?$AAu?$AAr?$AAn?$AAV?$AAa?$AAl?$AAu?$AAe?$AA?5?$AA?$CB?$AA?$DN?$AA?5?$AAN?$AAU?$AAL?$AAL?$AA?$AA@ 005fe80c     LIBCMTD:getenv.obj
 0003:00038840       ??_C@_1DM@GNKNEGJO@?$AAs?$AAt?$AAr?$AAc?$AAp?$AAy?$AA_?$AAs?$AA?$CI?$AA?$CK?$AAp?$AAB?$AAu?$AAf?$AAf?$AAe?$AAr?$AA?0?$AA?5?$AAs?$AAi?$AAz?$AAe?$AA?0?$AA?5?$AAs?$AAt?$AAr?$AA?$CJ?$AA?$AA@ 005fe840     LIBCMTD:getenv.obj
 0003:00038888       ??_C@_1CA@GDBKELOE@?$AAv?$AAa?$AAr?$AAn?$AAa?$AAm?$AAe?$AA?5?$AA?$CB?$AA?$DN?$AA?5?$AAN?$AAU?$AAL?$AAL?$AA?$AA@ 005fe888     LIBCMTD:getenv.obj
 0003:000388b0       ??_C@_1CC@KPLOPIEM@?$AA_?$AAd?$AAu?$AAp?$AAe?$AAn?$AAv?$AA_?$AAs?$AA_?$AAh?$AAe?$AAl?$AAp?$AAe?$AAr?$AA?$AA@ 005fe8b0     LIBCMTD:getenv.obj
 0003:000388d8       ??_C@_1CA@FHNFMDOJ@?$AAp?$AAB?$AAu?$AAf?$AAf?$AAe?$AAr?$AA?5?$AA?$CB?$AA?$DN?$AA?5?$AAN?$AAU?$AAL?$AAL?$AA?$AA@ 005fe8d8     LIBCMTD:getenv.obj
 0003:00038900       ??_C@_1BA@BMMDEPNE@?$AAs?$AAt?$AAr?$AAt?$AAo?$AAx?$AAq?$AA?$AA@ 005fe900     LIBCMTD:strtoq.obj
 0003:00038918       ??_C@_1GA@GIMEIKLC@?$AAf?$AA?3?$AA?2?$AAd?$AAd?$AA?2?$AAv?$AAc?$AAt?$AAo?$AAo?$AAl?$AAs?$AA?2?$AAc?$AAr?$AAt?$AA_?$AAb?$AAl?$AAd?$AA?2?$AAs?$AAe?$AAl?$AAf?$AA_?$AAx?$AA8?$AA6?$AA?2?$AAc@ 005fe918     LIBCMTD:strtoq.obj
 0003:00038990       ??_C@_1HG@KNCBMCDD@?$AAf?$AA?3?$AA?2?$AAd?$AAd?$AA?2?$AAv?$AAc?$AAt?$AAo?$AAo?$AAl?$AAs?$AA?2?$AAc?$AAr?$AAt?$AA_?$AAb?$AAl?$AAd?$AA?2?$AAs?$AAe?$AAl?$AAf?$AA_?$AAx?$AA8?$AA6?$AA?2?$AAc@ 005fe990     LIBCMTD:typname.obj
 0003:00038a20       ??_C@_1CI@IDCGDBOP@?$AAp?$AAN?$AAo?$AAd?$AAe?$AA?9?$AA?$DO?$AAn?$AAe?$AAx?$AAt?$AA?5?$AA?$CB?$AA?$DN?$AA?5?$AAN?$AAU?$AAL?$AAL?$AA?$AA@ 005fea20     LIBCMTD:typname.obj
 0003:00038a50       ??_C@_1JK@MLBKHELP@?$AAs?$AAt?$AAr?$AAc?$AAp?$AAy?$AA_?$AAs?$AA?5?$AA?$CI?$AA?$CI?$AAc?$AAh?$AAa?$AAr?$AA?5?$AA?$CK?$AA?$CJ?$AA?$CI?$AA?$CI?$AAt?$AAy?$AAp?$AAe?$AA_?$AAi?$AAn?$AAf?$AAo?$AA?5?$AA?$CK?$AA?$CJ@ 005fea50     LIBCMTD:typname.obj
 0003:00038b08       ??_C@_1CM@OOICDMK@?$AAt?$AAy?$AAp?$AAe?$AA_?$AAi?$AAn?$AAf?$AAo?$AA?3?$AA?3?$AA_?$AAN?$AAa?$AAm?$AAe?$AA_?$AAb?$AAa?$AAs?$AAe?$AA?$AA@ 005feb08     LIBCMTD:typname.obj
 0003:00038b40       ??_C@_1GI@EAJKJPED@?$AAs?$AAt?$AAr?$AAc?$AAp?$AAy?$AA_?$AAs?$AA?5?$AA?$CI?$AAp?$AAT?$AAm?$AAp?$AAT?$AAy?$AAp?$AAe?$AAN?$AAa?$AAm?$AAe?$AA?0?$AA?5?$AAl?$AAe?$AAn?$AA?$CL?$AA2?$AA?0?$AA?5?$AA?$CI@ 005feb40     LIBCMTD:typname.obj
 0003:00038bbc       ??_C@_1DO@OJJLFJPE@?$AAt?$AAy?$AAp?$AAe?$AA_?$AAi?$AAn?$AAf?$AAo?$AA?3?$AA?3?$AA_?$AAN?$AAa?$AAm?$AAe?$AA_?$AAb?$AAa?$AAs?$AAe?$AA_?$AAi?$AAn?$AAt?$AAe?$AAr?$AAn?$AAa?$AAl?$AA?$AA@ 005febbc     LIBCMTD:typname.obj
 0003:00038c08       ??_C@_1BK@CMPKHPEC@?$AAn?$AA?5?$AA?$DM?$AA?$DN?$AA?5?$AAI?$AAN?$AAT?$AA_?$AAM?$AAA?$AAX?$AA?$AA@ 005fec08     LIBCMTD:mbsnbico.obj
 0003:00038c28       ??_C@_1BM@FKNNDAHH@?$AA_?$AAm?$AAb?$AAs?$AAn?$AAb?$AAi?$AAc?$AAo?$AAl?$AAl?$AA_?$AAl?$AA?$AA@ 005fec28     LIBCMTD:mbsnbico.obj
 0003:00038c50       ??_C@_1GE@NJHAJPKI@?$AAf?$AA?3?$AA?2?$AAd?$AAd?$AA?2?$AAv?$AAc?$AAt?$AAo?$AAo?$AAl?$AAs?$AA?2?$AAc?$AAr?$AAt?$AA_?$AAb?$AAl?$AAd?$AA?2?$AAs?$AAe?$AAl?$AAf?$AA_?$AAx?$AA8?$AA6?$AA?2?$AAc@ 005fec50     LIBCMTD:mbsnbico.obj
 0003:00038cc8       ??_C@_0DC@CAFDLBC@f?3?2dd?2vctools?2crt_bld?2self_x86?2c@ 005fecc8     LIBCMTD:wtombenv.obj
 0003:00038d04       ??_C@_0BK@CFCOFLF@?5Complete?5Object?5Locator?8?$AA@ 005fed04     LIBCMTD:undname.obj
 0003:00038d24       ??_C@_0BN@MECKDCOJ@?5Class?5Hierarchy?5Descriptor?8?$AA@ 005fed24     LIBCMTD:undname.obj
 0003:00038d48       ??_C@_0BD@LGICGFMM@?5Base?5Class?5Array?8?$AA@ 005fed48     LIBCMTD:undname.obj
 0003:00038d60       ??_C@_0BM@LDKODKLH@?5Base?5Class?5Descriptor?5at?5?$CI?$AA@ 005fed60     LIBCMTD:undname.obj
 0003:00038d84       ??_C@_0BC@DAFEJGAK@?5Type?5Descriptor?8?$AA@ 005fed84     LIBCMTD:undname.obj
 0003:00038d9c       ??_C@_0BM@PMGGMLDN@?$GAlocal?5static?5thread?5guard?8?$AA@ 005fed9c     LIBCMTD:undname.obj
 0003:00038dc0       ??_C@_0CL@FGIJHLCE@?$GAmanaged?5vector?5copy?5constructor@ 005fedc0     LIBCMTD:undname.obj
 0003:00038df4       ??_C@_0CJ@GJELGAMM@?$GAvector?5vbase?5copy?5constructor?5i@ 005fedf4     LIBCMTD:undname.obj
 0003:00038e28       ??_C@_0CD@CGAJBKEJ@?$GAvector?5copy?5constructor?5iterato@ 005fee28     LIBCMTD:undname.obj
 0003:00038e54       ??_C@_0CB@PDBIFEP@?$GAdynamic?5atexit?5destructor?5for?5?8@ 005fee54     LIBCMTD:undname.obj
 0003:00038e7c       ??_C@_0BL@CLIPGLGB@?$GAdynamic?5initializer?5for?5?8?$AA@ 005fee7c     LIBCMTD:undname.obj
 0003:00038e9c       ??_C@_0CM@FCBBDIGB@?$GAeh?5vector?5vbase?5copy?5constructo@ 005fee9c     LIBCMTD:undname.obj
 0003:00038ed0       ??_C@_0CG@HLDDJMAG@?$GAeh?5vector?5copy?5constructor?5iter@ 005feed0     LIBCMTD:undname.obj
 0003:00038f00       ??_C@_0CF@IMGKMJNO@?$GAmanaged?5vector?5destructor?5itera@ 005fef00     LIBCMTD:undname.obj
 0003:00038f2c       ??_C@_0CG@CFDHKGGD@?$GAmanaged?5vector?5constructor?5iter@ 005fef2c     LIBCMTD:undname.obj
 0003:00038f5c       ??_C@_0BN@CKNJLHMB@?$GAplacement?5delete?$FL?$FN?5closure?8?$AA@ 005fef5c     LIBCMTD:undname.obj
 0003:00038f80       ??_C@_0BL@CNOONJFP@?$GAplacement?5delete?5closure?8?$AA@ 005fef80     LIBCMTD:undname.obj
 0003:00038fa0       ??_C@_0P@HJKNJFNN@?$GAomni?5callsig?8?$AA@ 005fefa0     LIBCMTD:undname.obj
 0003:00038fb4       ??_C@_09LBNFPBCA@?5delete?$FL?$FN?$AA@ 005fefb4     LIBCMTD:undname.obj
 0003:00038fc0       ??_C@_06FHBGPFGH@?5new?$FL?$FN?$AA@ 005fefc0     LIBCMTD:undname.obj
 0003:00038fc8       ??_C@_0CE@IIHCMGGL@?$GAlocal?5vftable?5constructor?5closu@ 005fefc8     LIBCMTD:undname.obj
 0003:00038ff4       ??_C@_0BA@KKLDJDLB@?$GAlocal?5vftable?8?$AA@ 005feff4     LIBCMTD:undname.obj
 0003:00039008       ??_C@_05KHLCHHI@?$GARTTI?$AA@ 005ff008     LIBCMTD:undname.obj
 0003:00039010       ??_C@_03KLGMFNMG@?$GAEH?$AA@ 005ff010     LIBCMTD:undname.obj
 0003:00039014       ??_C@_0BA@KBCDOMBN@?$GAudt?5returning?8?$AA@ 005ff014     LIBCMTD:undname.obj
 0003:00039028       ??_C@_0BL@LLKPOHJI@?$GAcopy?5constructor?5closure?8?$AA@ 005ff028     LIBCMTD:undname.obj
 0003:00039048       ??_C@_0CH@OOJPLCPH@?$GAeh?5vector?5vbase?5constructor?5ite@ 005ff048     LIBCMTD:undname.obj
 0003:00039078       ??_C@_0CA@GCEOPDGL@?$GAeh?5vector?5destructor?5iterator?8?$AA@ 005ff078     LIBCMTD:undname.obj
 0003:000390a0       ??_C@_0CB@JONCMFFK@?$GAeh?5vector?5constructor?5iterator?8@ 005ff0a0     LIBCMTD:undname.obj
 0003:000390c8       ??_C@_0BL@NILFHHPC@?$GAvirtual?5displacement?5map?8?$AA@ 005ff0c8     LIBCMTD:undname.obj
 0003:000390e8       ??_C@_0CE@IKBNEHA@?$GAvector?5vbase?5constructor?5iterat@ 005ff0e8     LIBCMTD:undname.obj
 0003:00039114       ??_C@_0BN@LFPFMEDL@?$GAvector?5destructor?5iterator?8?$AA@ 005ff114     LIBCMTD:undname.obj
 0003:00039138       ??_C@_0BO@PFGOCPJJ@?$GAvector?5constructor?5iterator?8?$AA@ 005ff138     LIBCMTD:undname.obj
 0003:0003915c       ??_C@_0BN@IMDCHIKM@?$GAscalar?5deleting?5destructor?8?$AA@ 005ff15c     LIBCMTD:undname.obj
 0003:00039180       ??_C@_0BO@OBMKPJIG@?$GAdefault?5constructor?5closure?8?$AA@ 005ff180     LIBCMTD:undname.obj
 0003:000391a4       ??_C@_0BN@DEGPLNFK@?$GAvector?5deleting?5destructor?8?$AA@ 005ff1a4     LIBCMTD:undname.obj
 0003:000391c8       ??_C@_0BD@JDLKDPAB@?$GAvbase?5destructor?8?$AA@ 005ff1c8     LIBCMTD:undname.obj
 0003:000391e0       ??_C@_08OBABFOLI@?$GAstring?8?$AA@ 005ff1e0     LIBCMTD:undname.obj
 0003:000391ec       ??_C@_0BF@KDPPACIK@?$GAlocal?5static?5guard?8?$AA@ 005ff1ec     LIBCMTD:undname.obj
 0003:00039208       ??_C@_08LLFFHHDJ@?$GAtypeof?8?$AA@ 005ff208     LIBCMTD:undname.obj
 0003:00039214       ??_C@_07FEEIOKP@?$GAvcall?8?$AA@ 005ff214     LIBCMTD:undname.obj
 0003:00039220       ??_C@_09BLBHBJP@?$GAvbtable?8?$AA@ 005ff220     LIBCMTD:undname.obj
 0003:0003922c       ??_C@_09IFPLHPGF@?$GAvftable?8?$AA@ 005ff22c     LIBCMTD:undname.obj
 0003:00039238       ??_C@_02MHEGNOJ@?$FO?$DN?$AA@ 005ff238     LIBCMTD:undname.obj
 0003:0003923c       ??_C@_02DHLNPPGH@?$HM?$DN?$AA@ 005ff23c     LIBCMTD:undname.obj
 0003:00039240       ??_C@_02FGJGFEAB@?$CG?$DN?$AA@ 005ff240     LIBCMTD:undname.obj
 0003:00039244       ??_C@_03CDNPDDLA@?$DM?$DM?$DN?$AA@ 005ff244     LIBCMTD:undname.obj
 0003:00039248       ??_C@_03IKFCCPFF@?$DO?$DO?$DN?$AA@ 005ff248     LIBCMTD:undname.obj
 0003:0003924c       ??_C@_02FENAOKFI@?$CF?$DN?$AA@ 005ff24c     LIBCMTD:undname.obj
 0003:00039250       ??_C@_02FJEHGPIO@?1?$DN?$AA@ 005ff250     LIBCMTD:undname.obj
 0003:00039254       ??_C@_02FKMDLLOA@?9?$DN?$AA@ 005ff254     LIBCMTD:undname.obj
 0003:00039258       ??_C@_02FOEOMHFC@?$CL?$DN?$AA@ 005ff258     LIBCMTD:undname.obj
 0003:0003925c       ??_C@_02FPIMKNGF@?$CK?$DN?$AA@ 005ff25c     LIBCMTD:undname.obj
 0003:00039260       ??_C@_02NONPIBCD@?$HM?$HM?$AA@ 005ff260     LIBCMTD:undname.obj
 0003:00039264       ??_C@_02PPKAJPJL@?$CG?$CG?$AA@ 005ff264     LIBCMTD:undname.obj
 0003:00039268       ??_C@_01DNKMNLPK@?$HM?$AA@ 005ff268     LIBCMTD:undname.obj
 0003:0003926c       ??_C@_01JKBOJNNK@?$FO?$AA@ 005ff26c     LIBCMTD:undname.obj
 0003:00039270       ??_C@_01PJKLJHI@?$HO?$AA@  005ff270     LIBCMTD:undname.obj
 0003:00039274       ??_C@_02HCKGKOFO@?$CI?$CJ?$AA@ 005ff274     LIBCMTD:undname.obj
 0003:00039278       ??_C@_01IHBHIGKO@?0?$AA@   005ff278     LIBCMTD:undname.obj
 0003:0003927c       ??_C@_02EEKDKGMJ@?$DO?$DN?$AA@ 005ff27c     LIBCMTD:undname.obj
 0003:00039280       ??_C@_01PPODPGHN@?$DO?$AA@ 005ff280     LIBCMTD:undname.obj
 0003:00039284       ??_C@_02EHCHHCKH@?$DM?$DN?$AA@ 005ff284     LIBCMTD:undname.obj
 0003:00039288       ??_C@_01MNNFJEPP@?$DM?$AA@ 005ff288     LIBCMTD:undname.obj
 0003:0003928c       ??_C@_01KMDKNFGN@?1?$AA@   005ff28c     LIBCMTD:undname.obj
 0003:00039290       ??_C@_03MNHNFDLC@?9?$DO?$CK?$AA@ 005ff290     LIBCMTD:undname.obj
 0003:00039294       ??_C@_01HNPIGOCE@?$CG?$AA@ 005ff294     LIBCMTD:undname.obj
 0003:00039298       ??_C@_01MIFGBAGJ@?$CL?$AA@ 005ff298     LIBCMTD:undname.obj
 0003:0003929c       ??_C@_01JOAMLHOP@?9?$AA@   005ff29c     LIBCMTD:undname.obj
 0003:000392a0       ??_C@_02BAABKJLB@?9?9?$AA@ 005ff2a0     LIBCMTD:undname.obj
 0003:000392a4       ??_C@_02ECNGHCIF@?$CL?$CL?$AA@ 005ff2a4     LIBCMTD:undname.obj
 0003:000392a8       ??_C@_01NBENCBCI@?$CK?$AA@ 005ff2a8     LIBCMTD:undname.obj
 0003:000392ac       ??_C@_02HBOOOICD@?9?$DO?$AA@ 005ff2ac     LIBCMTD:undname.obj
 0003:000392b0       ??_C@_08LHJFAFGD@operator?$AA@ 005ff2b0     LIBCMTD:undname.obj
 0003:000392bc       ??_C@_02GPECMEKF@?$FL?$FN?$AA@ 005ff2bc     LIBCMTD:undname.obj
 0003:000392c0       ??_C@_02FDNJECIE@?$CB?$DN?$AA@ 005ff2c0     LIBCMTD:undname.obj
 0003:000392c4       ??_C@_02EGOFBIJA@?$DN?$DN?$AA@ 005ff2c4     LIBCMTD:undname.obj
 0003:000392c8       ??_C@_01DCLJPIOD@?$CB?$AA@ 005ff2c8     LIBCMTD:undname.obj
 0003:000392cc       ??_C@_02FODMEDOG@?$DM?$DM?$AA@ 005ff2cc     LIBCMTD:undname.obj
 0003:000392d0       ??_C@_02GPIOPFAK@?$DO?$DO?$AA@ 005ff2d0     LIBCMTD:undname.obj
 0003:000392d4       ??_C@_07FPCDHGMM@?5delete?$AA@ 005ff2d4     LIBCMTD:undname.obj
 0003:000392e0       ??_C@_04NIHEBCM@?5new?$AA@ 005ff2e0     LIBCMTD:undname.obj
 0003:000392e8       ??_C@_0M@GFIIJFMG@__unaligned?$AA@ 005ff2e8     LIBCMTD:undname.obj
 0003:000392f8       ??_C@_0L@PILCLIHE@__restrict?$AA@ 005ff2f8     LIBCMTD:undname.obj
 0003:00039308       ??_C@_07JOMMBBKO@__ptr64?$AA@ 005ff308     LIBCMTD:undname.obj
 0003:00039314       ??_C@_09HIJEGCPM@__clrcall?$AA@ 005ff314     LIBCMTD:undname.obj
 0003:00039320       ??_C@_0L@JMKHOMEK@__fastcall?$AA@ 005ff320     LIBCMTD:undname.obj
 0003:00039330       ??_C@_0L@NPHFGOKO@__thiscall?$AA@ 005ff330     LIBCMTD:undname.obj
 0003:00039340       ??_C@_09IFJBGAPI@__stdcall?$AA@ 005ff340     LIBCMTD:undname.obj
 0003:0003934c       ??_C@_08GHMPAG@__pascal?$AA@ 005ff34c     LIBCMTD:undname.obj
 0003:00039358       ??_C@_07KOLFKCDI@__cdecl?$AA@ 005ff358     LIBCMTD:undname.obj
 0003:00039364       ??_C@_08EHJDFFNH@__based?$CI?$AA@ 005ff364     LIBCMTD:undname.obj
 0003:0003953c       ??_C@_04HEJADOOB@CV?3?5?$AA@ 005ff53c     LIBCMTD:undname.obj
 0003:00039544       ??_C@_02MOLJINC@?3?3?$AA@  005ff544     LIBCMTD:undname.obj
 0003:00039548       ??_C@_01GEODFPGF@?8?$AA@   005ff548     LIBCMTD:undname.obj
 0003:0003954c       ??_C@_01NLNLIGKH@?$GA?$AA@ 005ff54c     LIBCMTD:undname.obj
 0003:00039550       ??_C@_0O@KHGCOMHP@generic?9type?9?$AA@ 005ff550     LIBCMTD:undname.obj
 0003:00039560       ??_C@_0BE@JAEOCHPE@template?9parameter?9?$AA@ 005ff560     LIBCMTD:undname.obj
 0003:00039578       ??_C@_02OHHJMEON@?8?8?$AA@ 005ff578     LIBCMTD:undname.obj
 0003:0003957c       ??_C@_0BG@JNJLAMPM@?$GAanonymous?5namespace?8?$AA@ 005ff57c     LIBCMTD:undname.obj
 0003:00039598       ??_C@_0BN@IBLMMFAP@?$GAnon?9type?9template?9parameter?$AA@ 005ff598     LIBCMTD:undname.obj
 0003:000395bc       ??_C@_0BE@EODMJLIF@?$GAtemplate?9parameter?$AA@ 005ff5bc     LIBCMTD:undname.obj
 0003:000395d4       ??_C@_04GKJNKENE@void?$AA@ 005ff5d4     LIBCMTD:undname.obj
 0003:000395dc       ??_C@_04HIBGFPH@NULL?$AA@  005ff5dc     LIBCMTD:undname.obj
 0003:000395e4       ??_C@_0M@DHNBOJMP@extern?5?$CCC?$CC?5?$AA@ 005ff5e4     LIBCMTD:undname.obj
 0003:000395f4       ??_C@_08KJLFOPNE@?$FLthunk?$FN?3?$AA@ 005ff5f4     LIBCMTD:undname.obj
 0003:00039600       ??_C@_08GPDDCMKI@public?3?5?$AA@ 005ff600     LIBCMTD:undname.obj
 0003:0003960c       ??_C@_0M@GAIFPFIP@protected?3?5?$AA@ 005ff60c     LIBCMTD:undname.obj
 0003:0003961c       ??_C@_09LAPHOOG@private?3?5?$AA@ 005ff61c     LIBCMTD:undname.obj
 0003:00039628       ??_C@_08NIEOINHE@virtual?5?$AA@ 005ff628     LIBCMTD:undname.obj
 0003:00039634       ??_C@_07PGOEDBHP@static?5?$AA@ 005ff634     LIBCMTD:undname.obj
 0003:00039640       ??_C@_0DA@HGFJFBBE@?$GAtemplate?5static?5data?5member?5des@ 005ff640     LIBCMTD:undname.obj
 0003:0003967c       ??_C@_0DB@ILEFOCIJ@?$GAtemplate?5static?5data?5member?5con@ 005ff67c     LIBCMTD:undname.obj
 0003:000396b8       ??_C@_0CB@KJDOOODE@?$GAlocal?5static?5destructor?5helper?8@ 005ff6b8     LIBCMTD:undname.obj
 0003:000396e0       ??_C@_0L@HNGCOGAE@?$GAadjustor?$HL?$AA@ 005ff6e0     LIBCMTD:undname.obj
 0003:000396f0       ??_C@_0L@GHPFDFH@?$GAvtordisp?$HL?$AA@ 005ff6f0     LIBCMTD:undname.obj
 0003:00039700       ??_C@_0N@CBHHHENL@?$GAvtordispex?$HL?$AA@ 005ff700     LIBCMTD:undname.obj
 0003:00039710       ??_C@_01CLKCMJKC@?5?$AA@   005ff710     LIBCMTD:undname.obj
 0003:00039714       ??_C@_02IGFCGPIL@?$HN?8?$AA@ 005ff714     LIBCMTD:undname.obj
 0003:00039718       ??_C@_03OPGICMGF@?$HN?8?5?$AA@ 005ff718     LIBCMTD:undname.obj
 0003:0003971c       ??_C@_02KCKGHPCA@?$CJ?5?$AA@ 005ff71c     LIBCMTD:undname.obj
 0003:00039720       ??_C@_05BEFAKPML@void?5?$AA@ 005ff720     LIBCMTD:undname.obj
 0003:00039728       ??_C@_08PABEKFH@volatile?$AA@ 005ff728     LIBCMTD:undname.obj
 0003:00039734       ??_C@_0M@ELJOJFFH@?0?$DMellipsis?$DO?$AA@ 005ff734     LIBCMTD:undname.obj
 0003:00039744       ??_C@_04EENFHACM@?0?4?4?4?$AA@ 005ff744     LIBCMTD:undname.obj
 0003:0003974c       ??_C@_0L@EGPHHEKN@?$DMellipsis?$DO?$AA@ 005ff74c     LIBCMTD:undname.obj
 0003:0003975c       ??_C@_07HDJPLPEK@?5throw?$CI?$AA@ 005ff75c     LIBCMTD:undname.obj
 0003:00039768       ??_C@_09EFNPDFFP@?5volatile?$AA@ 005ff768     LIBCMTD:undname.obj
 0003:00039774       ??_C@_05BNCCCJPP@const?$AA@ 005ff774     LIBCMTD:undname.obj
 0003:0003977c       ??_C@_07EDHNAJHC@signed?5?$AA@ 005ff77c     LIBCMTD:undname.obj
 0003:00039788       ??_C@_09EBBEKKIH@unsigned?5?$AA@ 005ff788     LIBCMTD:undname.obj
 0003:00039794       ??_C@_07NFANNNEC@UNKNOWN?$AA@ 005ff794     LIBCMTD:undname.obj
 0003:000397a0       ??_C@_06GCICPBLB@__w64?5?$AA@ 005ff7a0     LIBCMTD:undname.obj
 0003:000397a8       ??_C@_07CLGGIAMF@wchar_t?$AA@ 005ff7a8     LIBCMTD:undname.obj
 0003:000397b4       ??_C@_08GAHOLHEO@__int128?$AA@ 005ff7b4     LIBCMTD:undname.obj
 0003:000397c0       ??_C@_07LFCOJCAC@__int64?$AA@ 005ff7c0     LIBCMTD:undname.obj
 0003:000397cc       ??_C@_07OFLPPHGP@__int32?$AA@ 005ff7cc     LIBCMTD:undname.obj
 0003:000397d8       ??_C@_07ICFHOGAF@__int16?$AA@ 005ff7d8     LIBCMTD:undname.obj
 0003:000397e4       ??_C@_06EBGKOKIG@__int8?$AA@ 005ff7e4     LIBCMTD:undname.obj
 0003:000397ec       ??_C@_04DDKJGDCM@bool?$AA@ 005ff7ec     LIBCMTD:undname.obj
 0003:000397f4       ??_C@_06BNJCAIGJ@double?$AA@ 005ff7f4     LIBCMTD:undname.obj
 0003:000397fc       ??_C@_05CJIMAING@long?5?$AA@ 005ff7fc     LIBCMTD:undname.obj
 0003:00039804       ??_C@_05KNFBNCOH@float?$AA@ 005ff804     LIBCMTD:undname.obj
 0003:0003980c       ??_C@_04GOKPGOLB@long?$AA@ 005ff80c     LIBCMTD:undname.obj
 0003:00039814       ??_C@_03JBIPMCLC@int?$AA@  005ff814     LIBCMTD:undname.obj
 0003:00039818       ??_C@_05BFKKPKCG@short?$AA@ 005ff818     LIBCMTD:undname.obj
 0003:00039820       ??_C@_04ENMBGAPA@char?$AA@ 005ff820     LIBCMTD:undname.obj
 0003:00039828       ??_C@_05LJGMCFOG@enum?5?$AA@ 005ff828     LIBCMTD:undname.obj
 0003:00039830       ??_C@_0N@DLIEFKNA@cointerface?5?$AA@ 005ff830     LIBCMTD:undname.obj
 0003:00039840       ??_C@_08KOFANOFK@coclass?5?$AA@ 005ff840     LIBCMTD:undname.obj
 0003:0003984c       ??_C@_06LJBABKPM@class?5?$AA@ 005ff84c     LIBCMTD:undname.obj
 0003:00039854       ??_C@_07DIBCDNGL@struct?5?$AA@ 005ff854     LIBCMTD:undname.obj
 0003:00039860       ??_C@_06MOJHIBMG@union?5?$AA@ 005ff860     LIBCMTD:undname.obj
 0003:00039868       ??_C@_0P@GCIFDJCJ@?$GAunknown?5ecsu?8?$AA@ 005ff868     LIBCMTD:undname.obj
 0003:0003987c       ??_C@_04LAHKHJMA@int?5?$AA@ 005ff87c     LIBCMTD:undname.obj
 0003:00039884       ??_C@_06EHJMALKF@short?5?$AA@ 005ff884     LIBCMTD:undname.obj
 0003:0003988c       ??_C@_05CIHEBHNO@char?5?$AA@ 005ff88c     LIBCMTD:undname.obj
 0003:00039894       ??_C@_06LIJLOJAG@const?5?$AA@ 005ff894     LIBCMTD:undname.obj
 0003:0003989c       ??_C@_09GAIEOBLP@volatile?5?$AA@ 005ff89c     LIBCMTD:undname.obj
 0003:000398a8       ??_C@_0O@GKABPPIF@cli?3?3pin_ptr?$DM?$AA@ 005ff8a8     LIBCMTD:undname.obj
 0003:000398b8       ??_C@_0M@EALIELKG@cli?3?3array?$DM?$AA@ 005ff8b8     LIBCMTD:undname.obj
 0003:000398c8       ??_C@_02GOGNNPBN@?$CJ?$FL?$AA@ 005ff8c8     LIBCMTD:undname.obj
 0003:000398cc       ??_C@_06EEGAIFAK@?$HLflat?$HN?$AA@ 005ff8cc     LIBCMTD:undname.obj
 0003:000398d4       ??_C@_02MDINNEEG@s?5?$AA@  005ff8d4     LIBCMTD:undname.obj
 0003:000398d8       ??_C@_05JIBOFOHK@?$HLfor?5?$AA@ 005ff8d8     LIBCMTD:undname.obj
 0003:000398e0       ??_7DNameNode@@6B@         005ff8e0     LIBCMTD:undname.obj
 0003:000398f0       ??_7charNode@@6B@          005ff8f0     LIBCMTD:undname.obj
 0003:00039900       ??_7pcharNode@@6B@         005ff900     LIBCMTD:undname.obj
 0003:00039910       ??_7pDNameNode@@6B@        005ff910     LIBCMTD:undname.obj
 0003:00039920       ??_7DNameStatusNode@@6B@   005ff920     LIBCMTD:undname.obj
 0003:00039930       ??_C@_04OKOHEJBO@?5?$DP?$DP?5?$AA@ 005ff930     LIBCMTD:undname.obj
 0003:00039938       ??_7pairNode@@6B@          005ff938     LIBCMTD:undname.obj
 0003:00039948       ??_C@_1FO@IFEMNBMO@?$AAf?$AA?3?$AA?2?$AAd?$AAd?$AA?2?$AAv?$AAc?$AAt?$AAo?$AAo?$AAl?$AAs?$AA?2?$AAc?$AAr?$AAt?$AA_?$AAb?$AAl?$AAd?$AA?2?$AAs?$AAe?$AAl?$AAf?$AA_?$AAx?$AA8?$AA6?$AA?2?$AAc@ 005ff948     LIBCMTD:a_cmp.obj
 0003:000399b8       ??_C@_1HK@ELDMAMK@?$AAc?$AAc?$AAh?$AAC?$AAo?$AAu?$AAn?$AAt?$AA1?$AA?$DN?$AA?$DN?$AA0?$AA?5?$AA?$CG?$AA?$CG?$AA?5?$AAc?$AAc?$AAh?$AAC?$AAo?$AAu?$AAn?$AAt?$AA2?$AA?$DN?$AA?$DN?$AA1?$AA?5?$AA?$HM?$AA?$HM?$AA?5@ 005ff9b8     LIBCMTD:a_cmp.obj
 0003:00039a4c       ??_C@_1CC@CNADELFK@?$AA_?$AAs?$AAt?$AAr?$AAi?$AAn?$AAg?$AA2?$AA?5?$AA?$CB?$AA?$DN?$AA?5?$AAN?$AAU?$AAL?$AAL?$AA?$AA@ 005ffa4c     LIBCMTD:strnicol.obj
 0003:00039a74       ??_C@_1BK@IOJEBPLP@?$AA_?$AAs?$AAt?$AAr?$AAn?$AAi?$AAc?$AAo?$AAl?$AAl?$AA_?$AAl?$AA?$AA@ 005ffa74     LIBCMTD:strnicol.obj
 0003:00039a98       ??_C@_1GE@BDOBNJJ@?$AAf?$AA?3?$AA?2?$AAd?$AAd?$AA?2?$AAv?$AAc?$AAt?$AAo?$AAo?$AAl?$AAs?$AA?2?$AAc?$AAr?$AAt?$AA_?$AAb?$AAl?$AAd?$AA?2?$AAs?$AAe?$AAl?$AAf?$AA_?$AAx?$AA8?$AA6?$AA?2?$AAc@ 005ffa98     LIBCMTD:strnicol.obj
 0003:00039b10       ??_C@_1CC@ICKKAGJA@?$AA_?$AAs?$AAt?$AAr?$AAi?$AAn?$AAg?$AA1?$AA?5?$AA?$CB?$AA?$DN?$AA?5?$AAN?$AAU?$AAL?$AAL?$AA?$AA@ 005ffb10     LIBCMTD:strnicol.obj
 0003:00039b38       ??_C@_1FG@OKIAKKPK@?$AAs?$AAt?$AAr?$AAc?$AAp?$AAy?$AA_?$AAs?$AA?$CI?$AAn?$AAa?$AAm?$AAe?$AA?0?$AA?5?$AAs?$AAt?$AAr?$AAl?$AAe?$AAn?$AA?$CI?$AAo?$AAp?$AAt?$AAi?$AAo?$AAn?$AA?$CJ?$AA?5?$AA?$CL?$AA?5@ 005ffb38     LIBCMTD:setenv.obj
 0003:00039ba0       ??_C@_1EI@GHDNAPMG@?$AA?$CI?$AA?$CC?$AAC?$AAR?$AAT?$AA?5?$AAL?$AAo?$AAg?$AAi?$AAc?$AA?5?$AAe?$AAr?$AAr?$AAo?$AAr?$AA?5?$AAd?$AAu?$AAr?$AAi?$AAn?$AAg?$AA?5?$AAs?$AAe?$AAt?$AAe?$AAn?$AAv?$AA?$CC@ 005ffba0     LIBCMTD:setenv.obj
 0003:00039bf8       ??_C@_0DA@NHJGCDK@f?3?2dd?2vctools?2crt_bld?2self_x86?2c@ 005ffbf8     LIBCMTD:setenv.obj
 0003:00039c38       ??_C@_1FC@EEJIEIDF@?$AA_?$AAt?$AAc?$AAs?$AAn?$AAl?$AAe?$AAn?$AA?$CI?$AAe?$AAq?$AAu?$AAa?$AAl?$AA?5?$AA?$CL?$AA?5?$AA1?$AA?0?$AA?5?$AA_?$AAM?$AAA?$AAX?$AA_?$AAE?$AAN?$AAV?$AA?$CJ?$AA?5?$AA?$DM?$AA?5@ 005ffc38     LIBCMTD:setenv.obj
 0003:00039c9c       ??_C@_1DE@EEHFNNGH@?$AAe?$AAq?$AAu?$AAa?$AAl?$AA?5?$AA?9?$AA?5?$AAo?$AAp?$AAt?$AAi?$AAo?$AAn?$AA?5?$AA?$DM?$AA?5?$AA_?$AAM?$AAA?$AAX?$AA_?$AAE?$AAN?$AAV?$AA?$AA@ 005ffc9c     LIBCMTD:setenv.obj
 0003:00039cdc       ??_C@_1BI@CDAFOAAL@?$AA_?$AA_?$AAc?$AAr?$AAt?$AAs?$AAe?$AAt?$AAe?$AAn?$AAv?$AA?$AA@ 005ffcdc     LIBCMTD:setenv.obj
 0003:00039cf8       ??_C@_1GA@KKPDKNLP@?$AAf?$AA?3?$AA?2?$AAd?$AAd?$AA?2?$AAv?$AAc?$AAt?$AAo?$AAo?$AAl?$AAs?$AA?2?$AAc?$AAr?$AAt?$AA_?$AAb?$AAl?$AAd?$AA?2?$AAs?$AAe?$AAl?$AAf?$AA_?$AAx?$AA8?$AA6?$AA?2?$AAc@ 005ffcf8     LIBCMTD:setenv.obj
 0003:00039d6c       ??_C@_1CA@LMBEKBDN@?$AAp?$AAo?$AAp?$AAt?$AAi?$AAo?$AAn?$AA?5?$AA?$CB?$AA?$DN?$AA?5?$AAN?$AAU?$AAL?$AAL?$AA?$AA@ 005ffd6c     LIBCMTD:setenv.obj
 0003:00039d98       ??_C@_1FK@DNFLNPD@?$AAs?$AAt?$AAr?$AAc?$AAp?$AAy?$AA_?$AAs?$AA?$CI?$AA?$CK?$AAn?$AAe?$AAw?$AAe?$AAn?$AAv?$AAp?$AAt?$AAr?$AA?0?$AA?5?$AAe?$AAn?$AAv?$AAp?$AAt?$AAr?$AAS?$AAi?$AAz?$AAe?$AA?0@ 005ffd98     LIBCMTD:setenv.obj
 0003:00039e04       ??_C@_1BK@ECKIJLPM@?$AAc?$AAo?$AAp?$AAy?$AA_?$AAe?$AAn?$AAv?$AAi?$AAr?$AAo?$AAn?$AA?$AA@ 005ffe04     LIBCMTD:setenv.obj
 0003:00039e24       ??_C@_1BE@JKKFLIKJ@?$AA_?$AAm?$AAb?$AAs?$AAc?$AAh?$AAr?$AA_?$AAl?$AA?$AA@ 005ffe24     LIBCMTD:mbschr.obj
 0003:00039e40       ??_C@_1GA@GDCAGKMG@?$AAf?$AA?3?$AA?2?$AAd?$AAd?$AA?2?$AAv?$AAc?$AAt?$AAo?$AAo?$AAl?$AAs?$AA?2?$AAc?$AAr?$AAt?$AA_?$AAb?$AAl?$AAd?$AA?2?$AAs?$AAe?$AAl?$AAf?$AA_?$AAx?$AA8?$AA6?$AA?2?$AAc@ 005ffe40     LIBCMTD:mbschr.obj
 0003:00039eb4       ??_C@_1BO@JIBAMMGI@?$AAs?$AAt?$AAr?$AAi?$AAn?$AAg?$AA?5?$AA?$CB?$AA?$DN?$AA?5?$AAN?$AAU?$AAL?$AAL?$AA?$AA@ 005ffeb4     LIBCMTD:mbschr.obj
 0003:0003a860       ??_R4bad_exception@std@@6B@ 00600860     LIBCMTD:frame.obj
 0003:0003a878       ??_R3bad_exception@std@@8  00600878     LIBCMTD:frame.obj
 0003:0003a88c       ??_R2bad_exception@std@@8  0060088c     LIBCMTD:frame.obj
 0003:0003a898       ??_R1A@?0A@EA@bad_exception@std@@8 00600898     LIBCMTD:frame.obj
 0003:0003a8bc       ??_R1A@?0A@EA@exception@std@@8 006008bc     LIBCMTD:frame.obj
 0003:0003a8e0       ??_R3exception@std@@8      006008e0     LIBCMTD:frame.obj
 0003:0003a8f4       ??_R2exception@std@@8      006008f4     LIBCMTD:frame.obj
 0003:0003a8fc       ??_R4type_info@@6B@        006008fc     LIBCMTD:typinfo.obj
 0003:0003a914       ??_R3type_info@@8          00600914     LIBCMTD:typinfo.obj
 0003:0003a928       ??_R2type_info@@8          00600928     LIBCMTD:typinfo.obj
 0003:0003a930       ??_R1A@?0A@EA@type_info@@8 00600930     LIBCMTD:typinfo.obj
 0003:0003a954       ??_R4exception@std@@6B@    00600954     LIBCMTD:stdexcpt.obj
 0003:0003a96c       ??_R4bad_cast@std@@6B@     0060096c     LIBCMTD:stdexcpt.obj
 0003:0003a984       ??_R3bad_cast@std@@8       00600984     LIBCMTD:stdexcpt.obj
 0003:0003a998       ??_R2bad_cast@std@@8       00600998     LIBCMTD:stdexcpt.obj
 0003:0003a9a4       ??_R1A@?0A@EA@bad_cast@std@@8 006009a4     LIBCMTD:stdexcpt.obj
 0003:0003a9c8       ??_R4bad_typeid@std@@6B@   006009c8     LIBCMTD:stdexcpt.obj
 0003:0003a9e0       ??_R3bad_typeid@std@@8     006009e0     LIBCMTD:stdexcpt.obj
 0003:0003a9f4       ??_R2bad_typeid@std@@8     006009f4     LIBCMTD:stdexcpt.obj
 0003:0003aa00       ??_R1A@?0A@EA@bad_typeid@std@@8 00600a00     LIBCMTD:stdexcpt.obj
 0003:0003aa24       ??_R4__non_rtti_object@std@@6B@ 00600a24     LIBCMTD:stdexcpt.obj
 0003:0003aa3c       ??_R3__non_rtti_object@std@@8 00600a3c     LIBCMTD:stdexcpt.obj
 0003:0003aa50       ??_R2__non_rtti_object@std@@8 00600a50     LIBCMTD:stdexcpt.obj
 0003:0003aa60       ??_R1A@?0A@EA@__non_rtti_object@std@@8 00600a60     LIBCMTD:stdexcpt.obj
 0003:0003ab90       ___rtc_iaa                 00600b90     LIBCMTD:_initsect_.obj
 0003:0003aec4       ___rtc_izz                 00600ec4     LIBCMTD:_initsect_.obj
 0003:0003afc8       ___rtc_taa                 00600fc8     LIBCMTD:_initsect_.obj
 0003:0003b2fc       ___rtc_tzz                 006012fc     LIBCMTD:_initsect_.obj
 0003:0003bea0       __TI2?AVbad_exception@std@@ 00601ea0     LIBCMTD:frame.obj
 0003:0003beb4       __CTA2?AVbad_exception@std@@ 00601eb4     LIBCMTD:frame.obj
 0003:0003bec4       __CT??_R0?AVbad_exception@std@@@8??0bad_exception@std@@QAE@ABV01@@Z12 00601ec4     LIBCMTD:frame.obj
 0003:0003bee4       __CT??_R0?AVexception@std@@@8??0exception@std@@QAE@ABV01@@Z12 00601ee4     LIBCMTD:frame.obj
 0004:00000140       _Map                       00603140     configfile.obj
 0004:000005fc       ?__LINE__Var@?1??copy_prev_pic_to_concealed_pic@@9@9@d50005ba 006035fc     erc_do_p.obj
 0004:00000600       ?__LINE__Var@?1??conceal_non_ref_pics@@9@9 00603600     erc_do_p.obj
 0004:00000604       ?__LINE__Var@?1??FmoGetSliceGroupId@@9@9 00603604     fmo.obj
 0004:00000608       ?__LINE__Var@?1??RestOfSliceHeader@@9@9 00603608     header.obj
 0004:0000060c       ?__LINE__Var@?1??decode_poc@@9@9 0060360c     header.obj
 0004:00000610       ?__LINE__Var@?1??decode_one_frame@@9@9 00603610     image.obj
 0004:00000614       ?__LINE__Var@?1??init_picture_decoding@@9@9@b991d186 00603614     image.obj
 0004:00000618       ?__LINE__Var@?1??read_new_slice@@9@9 00603618     image.obj
 0004:0000061c       ?__LINE__Var@?1??GetViewIdx@@9@9 0060361c     image.obj
 0004:00000620       ?__LINE__Var@?1??ReadTIFFImage@@9@9 00603620     io_tiff.obj
 0004:00000624       ?__LINE__Var@?1??readTiff@@9@9@2431f5cf 00603624     io_tiff.obj
 0004:00000628       ?__LINE__Var@?1??readFileIntoMemory@@9@9@2431f5cf 00603628     io_tiff.obj
 0004:0000062c       ?__LINE__Var@?1??readImageData@@9@9@2431f5cf 0060362c     io_tiff.obj
 0004:00000630       ?__LINE__Var@?1??readDirectoryEntry@@9@9@2431f5cf 00603630     io_tiff.obj
 0004:00000634       ?__LINE__Var@?1??getIntArray@@9@9@2431f5cf 00603634     io_tiff.obj
 0004:00000638       ?__LINE__Var@?1??FreePartition@@9@9 00603638     ldecod.obj
 0004:0000063c       ?__LINE__Var@?1??get_db_strength_mbaff@@9@9 0060363c     loop_filter_mbaff.obj
 0004:00000640       ?__LINE__Var@?1??perform_db_mbaff@@9@9 00603640     loop_filter_mbaff.obj
 0004:00000644       ?__LINE__Var@?1??DeblockMb@@9@9@0929b72d 00603644     loopFilter.obj
 0004:00000648       ?__LINE__Var@?1??get_db_strength@@9@9@0929b72d 00603648     loopFilter.obj
 0004:0000064c       ?__LINE__Var@?1??perform_db@@9@9@0929b72d 0060364c     loopFilter.obj
 0004:00000650       ?__LINE__Var@?1??exit_macroblock@@9@9 00603650     macroblock.obj
 0004:00000654       ?__LINE__Var@?1??mb_pred_b_d8x8temporal@@9@9 00603654     mb_prediction.obj
 0004:00000658       ?__LINE__Var@?1??mb_pred_b_d4x4temporal@@9@9 00603658     mb_prediction.obj
 0004:0000065c       ?__LINE__Var@?1??mb_pred_b_inter8x8@@9@9 0060365c     mb_prediction.obj
 0004:00000660       ?__LINE__Var@?1??store_picture_in_dpb@@9@9 00603660     mbuffer.obj
 0004:00000664       ?__LINE__Var@?1??sliding_window_memory_management@@9@9@89e119a3 00603664     mbuffer.obj
 0004:00000668       ?__LINE__Var@?1??adaptive_memory_management@@9@9@89e119a3 00603668     mbuffer.obj
 0004:0000066c       ?__LINE__Var@?1??insert_picture_in_dpb@@9@9@89e119a3 0060366c     mbuffer.obj
 0004:00000670       ?__LINE__Var@?1??flush_dpb@@9@9 00603670     mbuffer.obj
 0004:00000674       ?__LINE__Var@?1??flush_dpbs@@9@9 00603674     mbuffer.obj
 0004:00000678       ?__LINE__Var@?1??store_proc_picture_in_dpb@@9@9 00603678     mbuffer.obj
 0004:0000067c       ?__LINE__Var@?1??unmark_long_term_field_for_reference_by_frame_idx@@9@9@5b41e57f 0060367c     mbuffer_common.obj
 0004:00000680       ?__LINE__Var@?1??update_direct_mv_info_temporal@@9@9@ce89aff6 00603680     mc_direct.obj
 0004:00000684       ?__LINE__Var@?1??perform_mc@@9@9 00603684     mc_prediction.obj
 0004:00000688       ?__LINE__Var@?1??get_block_chroma@@9@9@9dd83144 00603688     mc_prediction.obj
 0004:0000068c       ?__LINE__Var@?1??RBSPtoSODB@@9@9 0060368c     nal.obj
 0004:00000690       ?__LINE__Var@?1??NALUtoRBSP@@9@9@d9d8568c 00603690     nalu.obj
 0004:00000694       ?__LINE__Var@?1??write_unpaired_field@@9@9 00603694     output.obj
 0004:00000698       ?__LINE__Var@?1??InterpretSPS@@9@9 00603698     parset.obj
 0004:0000069c       ?__LINE__Var@?1??InterpretPPS@@9@9 0060369c     parset.obj
 0004:000006a0       ?__LINE__Var@?1??MakePPSavailable@@9@9 006036a0     parset.obj
 0004:000006a4       ?__LINE__Var@?1??MakeSPSavailable@@9@9 006036a4     parset.obj
 0004:000006a8       ?__LINE__Var@?1??InterpretSubsetSPS@@9@9@40531c0b 006036a8     parset.obj
 0004:000006ac       ?__LINE__Var@?1??activate_sps@@9@9 006036ac     parset.obj
 0004:000006b0       ?__LINE__Var@?1??hrd_parameters@@9@9 006036b0     parset.obj
 0004:000006b4       ?__LINE__Var@?1??FreePPS@@9@9 006036b4     parsetcommon.obj
 0004:000006b8       ?__LINE__Var@?1??FreeSPS@@9@9 006036b8     parsetcommon.obj
 0004:000006c0       _quant_intra_default       006036c0     quant.obj
 0004:00000700       _quant_inter_default       00603700     quant.obj
 0004:00000740       _quant8_intra_default      00603740     quant.obj
 0004:00000840       _quant8_inter_default      00603840     quant.obj
 0004:00000940       _quant_org                 00603940     quant.obj
 0004:00000980       _quant8_org                00603980     quant.obj
 0004:00000b40       ?__LINE__Var@?1??read_CBP_and_coeffs_from_NAL_CABAC_420@@9@9@5ef6d507 00603b40     read_comp_cabac.obj
 0004:00000b44       ?__LINE__Var@?1??read_CBP_and_coeffs_from_NAL_CABAC_422@@9@9@5ef6d507 00603b44     read_comp_cabac.obj
 0004:00000b4c       ?__LINE__Var@?1??GetRTPNALU@@9@9 00603b4c     rtp.obj
 0004:00000b50       ?__LINE__Var@?1??DecomposeRTPpacket@@9@9 00603b50     rtp.obj
 0004:00000b54       ?__LINE__Var@?1??RTPReadPacket@@9@9 00603b54     rtp.obj
 0004:00000b58       ?__LINE__Var@?1??InterpretSEIMessage@@9@9 00603b58     sei.obj
 0004:00000b5c       ?__LINE__Var@?1??interpret_spare_pic@@9@9 00603b5c     sei.obj
 0004:00000b60       ?__LINE__Var@?1??interpret_user_data_unregistered_info@@9@9 00603b60     sei.obj
 0004:00000b70       __lookuptrailbytes         00603b70     LIBCMTD:read.obj
 0004:00000ca4       __fltused                  00603ca4     LIBCMTD:_fpinit_.obj
 0004:00000ca8       __ldused                   00603ca8     LIBCMTD:_fpinit_.obj
 0004:00000cb0       __aexit_rtn                00603cb0     LIBCMTD:crt0dat.obj
 0004:00000cb8       __iob                      00603cb8     LIBCMTD:_file.obj
 0004:00000fc0       ___security_cookie         00603fc0     LIBCMTD:gs_cookie.obj
 0004:00000fc4       ___security_cookie_complement 00603fc4     LIBCMTD:gs_cookie.obj
 0004:00001050       ___app_type                00604050     LIBCMTD:crt0.obj
 0004:00001054       __crtDbgFlag               00604054     LIBCMTD:dbgheap.obj
 0004:00001058       ___crtDebugFillThreshold   00604058     LIBCMTD:dbgheap.obj
 0004:00001060       __crtBreakAlloc            00604060     LIBCMTD:dbgheap.obj
 0004:0000106c       ___nullstring              0060406c     LIBCMTD:output.obj
 0004:00001070       ___wnullstring             00604070     LIBCMTD:output.obj
 0004:00001238       ?_RTC_ErrorLevels@@3PAHA   00604238     LIBCMTD:_error_.obj
 0004:00001250       ___badioinfo               00604250     LIBCMTD:ioinit.obj
 0004:0000129c       __cfltcvt_tab              0060429c     LIBCMTD:cmiscdat.obj
 0004:000012cc       ___flsindex                006042cc     LIBCMTD:tidtable.obj
 0004:000012d0       ___getvalueindex           006042d0     LIBCMTD:tidtable.obj
 0004:000013b8       ___initialmbcinfo          006043b8     LIBCMTD:mbctype.obj
 0004:000015d8       __mbctype                  006045d8     LIBCMTD:mbctype.obj
 0004:000016e0       __mbcasemap                006046e0     LIBCMTD:mbctype.obj
 0004:000017e0       ___ptmbcinfo               006047e0     LIBCMTD:mbctype.obj
 0004:00001b3c       __First_FPE_Indx           00604b3c     LIBCMTD:winxfltr.obj
 0004:00001b40       __Num_FPE                  00604b40     LIBCMTD:winxfltr.obj
 0004:00001b44       __XcptActTabSize           00604b44     LIBCMTD:winxfltr.obj
 0004:00001b48       __XcptActTabCount          00604b48     LIBCMTD:winxfltr.obj
 0004:00001b58       ___abort_behavior          00604b58     LIBCMTD:abort.obj
 0004:00001b60       __infinity                 00604b60     LIBCMTD:_87tran_.obj
 0004:00001b6a       __minfinity                00604b6a     LIBCMTD:_87tran_.obj
 0004:00001b74       __logemax                  00604b74     LIBCMTD:_87tran_.obj
 0004:00001b9a       __OP_EXPjmptab             00604b9a     LIBCMTD:_87tran_.obj
 0004:00001bd0       __indefinite               00604bd0     LIBCMTD:_87disp_.obj
 0004:00001bda       __piby2                    00604bda     LIBCMTD:_87disp_.obj
 0004:00001c10       __HUGE                     00604c10     LIBCMTD:_huge_.obj
 0004:00001c20       ___globallocalestatus      00604c20     LIBCMTD:glstatus.obj
 0004:00001c28       ___clocalestr              00604c28     LIBCMTD:nlsdata2.obj
 0004:00001c30       ___initiallocinfo          00604c30     LIBCMTD:nlsdata2.obj
 0004:00001d08       ___ptlocinfo               00604d08     LIBCMTD:nlsdata2.obj
 0004:00001d0c       ___lc_clike                00604d0c     LIBCMTD:nlsdata2.obj
 0004:00001d10       ___initiallocalestructinfo 00604d10     LIBCMTD:nlsdata2.obj
 0004:00001d50       __amblksiz                 00604d50     LIBCMTD:heapinit.obj
 0004:00001d58       __pfnAllocHook             00604d58     LIBCMTD:dbghook.obj
 0004:00001d60       __crtAssertBusy            00604d60     LIBCMTD:dbgrptt.obj
 0004:00001d64       __CrtDbgMode               00604d64     LIBCMTD:dbgrptt.obj
 0004:00001d70       __CrtDbgFile               00604d70     LIBCMTD:dbgrptt.obj
 0004:00001d90       __NLG_Destination          00604d90     LIBCMTD:exsup.obj
 0004:00001da4       __coninpfh                 00604da4     LIBCMTD:initcon.obj
 0004:00001da8       __confh                    00604da8     LIBCMTD:initcon.obj
 0004:00001f94       __pctype                   00604f94     LIBCMTD:ctype.obj
 0004:00001f98       __pwctype                  00604f98     LIBCMTD:ctype.obj
 0004:00001fa0       ___lc_time_c               00604fa0     LIBCMTD:strftime.obj
 0004:0000207c       ___lc_time_curr            0060507c     LIBCMTD:strftime.obj
 0004:00002080       ___lconv_static_decimal    00605080     LIBCMTD:lconv.obj
 0004:00002084       ___lconv_c                 00605084     LIBCMTD:lconv.obj
 0004:000020b4       ___lconv                   006050b4     LIBCMTD:lconv.obj
 0004:000020c4       ___mb_cur_max              006050c4     LIBCMTD:nlsdata1.obj
 0004:000020c8       ___decimal_point           006050c8     LIBCMTD:nlsdata1.obj
 0004:000020cc       ___decimal_point_length    006050cc     LIBCMTD:nlsdata1.obj
 0004:000020e4       ??_R0?AVbad_exception@std@@@8 006050e4     LIBCMTD:frame.obj
 0004:0000210c       ??_R0?AVexception@std@@@8  0060510c     LIBCMTD:frame.obj
 0004:00002130       __matherr_flag             00605130     LIBCMTD:_matherr_.obj
 0004:00002138       __d_inf                    00605138     LIBCMTD:_util_.obj
 0004:00002140       __d_ind                    00605140     LIBCMTD:_util_.obj
 0004:00002148       __d_max                    00605148     LIBCMTD:_util_.obj
 0004:00002150       __d_min                    00605150     LIBCMTD:_util_.obj
 0004:00002158       __d_mzero                  00605158     LIBCMTD:_util_.obj
 0004:000022a8       __pow10pos                 006052a8     LIBCMTD:_constpow_.obj
 0004:00002408       __pow10neg                 00605408     LIBCMTD:_constpow_.obj
 0004:000025f0       __timezone                 006055f0     LIBCMTD:timeset.obj
 0004:000025f4       __daylight                 006055f4     LIBCMTD:timeset.obj
 0004:000025f8       __dstbias                  006055f8     LIBCMTD:timeset.obj
 0004:00002680       __tzname                   00605680     LIBCMTD:timeset.obj
 0004:000026c8       ??_R0?AVtype_info@@@8      006056c8     LIBCMTD:typinfo.obj
 0004:000026e8       ??_R0?AVbad_cast@std@@@8   006056e8     LIBCMTD:stdexcpt.obj
 0004:00002708       ??_R0?AVbad_typeid@std@@@8 00605708     LIBCMTD:stdexcpt.obj
 0004:0000272c       ??_R0?AV__non_rtti_object@std@@@8 0060572c     LIBCMTD:stdexcpt.obj
 0004:00002760       __lpdays                   00605760     LIBCMTD:days.obj
 0004:00002794       __days                     00605794     LIBCMTD:days.obj
 0004:00005258       ___fastflag                00608258     LIBCMTD:_fpinit_.obj
 0004:0000525c       __adjust_fdiv              0060825c     LIBCMTD:_fpinit_.obj
 0004:00005264       __umaskval                 00608264     LIBCMTD:crt0dat.obj
 0004:00005268       ___argc                    00608268     LIBCMTD:crt0dat.obj
 0004:0000526c       ___argv                    0060826c     LIBCMTD:crt0dat.obj
 0004:00005270       ___wargv                   00608270     LIBCMTD:crt0dat.obj
 0004:00005274       __environ                  00608274     LIBCMTD:crt0dat.obj
 0004:00005278       ___initenv                 00608278     LIBCMTD:crt0dat.obj
 0004:0000527c       __wenviron                 0060827c     LIBCMTD:crt0dat.obj
 0004:00005280       ___winitenv                00608280     LIBCMTD:crt0dat.obj
 0004:00005284       __pgmptr                   00608284     LIBCMTD:crt0dat.obj
 0004:00005288       __wpgmptr                  00608288     LIBCMTD:crt0dat.obj
 0004:0000528c       __exitflag                 0060828c     LIBCMTD:crt0dat.obj
 0004:00005290       __C_Termination_Done       00608290     LIBCMTD:crt0dat.obj
 0004:00005294       __C_Exit_Done              00608294     LIBCMTD:crt0dat.obj
 0004:000052a8       __cflush                   006082a8     LIBCMTD:_file.obj
 0004:000052ac       __aenvptr                  006082ac     LIBCMTD:crt0.obj
 0004:000052b0       __wenvptr                  006082b0     LIBCMTD:crt0.obj
 0004:000052b4       ___error_mode              006082b4     LIBCMTD:crt0.obj
 0004:000052d0       ?_pfnDumpClient@@3P6AXPAXI@ZA 006082d0     LIBCMTD:dbgheap.obj
 0004:000052d8       ___crtDebugCheckCount      006082d8     LIBCMTD:dbgheap.obj
 0004:000052e8       __newmode                  006082e8     LIBCMTD:_newmode.obj
 0004:000052ec       ___pInvalidArgHandler      006082ec     LIBCMTD:invarg.obj
 0004:000052f0       ?wsprintffp@@3P6AHPADPBDZZA 006082f0     LIBCMTD:_error_.obj
 0004:00005300       __stdbuf                   00608300     LIBCMTD:_sftbuf.obj
 0004:0000530c       _gpFlsAlloc                0060830c     LIBCMTD:tidtable.obj
 0004:00005310       _gpFlsGetValue             00608310     LIBCMTD:tidtable.obj
 0004:00005314       _gpFlsSetValue             00608314     LIBCMTD:tidtable.obj
 0004:00005318       _gpFlsFree                 00608318     LIBCMTD:tidtable.obj
 0004:000056d8       ___mbulinfo                006086d8     LIBCMTD:mbctype.obj
 0004:000056e4       ___mbcodepage              006086e4     LIBCMTD:mbctype.obj
 0004:000056e8       ___ismbcodepage            006086e8     LIBCMTD:mbctype.obj
 0004:000056ec       ___mblcid                  006086ec     LIBCMTD:mbctype.obj
 0004:000058a8       ?__pInconsistency@@3P6AXXZA 006088a8     LIBCMTD:hooks.obj
 0004:000058d0       ___pPurecall               006088d0     LIBCMTD:inithelp.obj
 0004:000058dc       ?_pnhHeap@@3P6AHI@ZA       006088dc     LIBCMTD:handler.obj
 0004:00005cbc       ___locale_changed          00608cbc     LIBCMTD:setlocal.obj
 0004:00005cc0       ___lc_handle               00608cc0     LIBCMTD:nlsdata2.obj
 0004:00005cd8       ___lc_codepage             00608cd8     LIBCMTD:nlsdata2.obj
 0004:00005cdc       ___lc_collate_cp           00608cdc     LIBCMTD:nlsdata2.obj
 0004:00005e28       __crtheap                  00608e28     LIBCMTD:heapinit.obj
 0004:00005e38       ___sbh_pHeaderDefer        00608e38     LIBCMTD:sbheap.obj
 0004:00005e48       __fmode                    00608e48     LIBCMTD:txtmode.obj
 0004:00005e4c       __outputformat             00608e4c     LIBCMTD:outputformat.obj
 0004:00005e50       __commode                  00608e50     LIBCMTD:ncommode.obj
 0004:00005e7c       ___lconv_static_null       00608e7c     LIBCMTD:lconv.obj
 0004:00005f7c       ?pArgList@UnDecorator@@0PAVReplicator@@A 00608f7c     LIBCMTD:undname.obj
 0004:00005f80       ?pZNameList@UnDecorator@@0PAVReplicator@@A 00608f80     LIBCMTD:undname.obj
 0004:00005f84       ?pTemplateArgList@UnDecorator@@0PAVReplicator@@A 00608f84     LIBCMTD:undname.obj
 0004:00005f88       ?gName@UnDecorator@@0PBDB  00608f88     LIBCMTD:undname.obj
 0004:00005f8c       ?name@UnDecorator@@0PBDB   00608f8c     LIBCMTD:undname.obj
 0004:00005f90       ?outputString@UnDecorator@@0PADA 00608f90     LIBCMTD:undname.obj
 0004:00005f94       ?maxStringLength@UnDecorator@@0HA 00608f94     LIBCMTD:undname.obj
 0004:00005f98       ?disableFlags@UnDecorator@@0KA 00608f98     LIBCMTD:undname.obj
 0004:00005f9c       ?m_pGetParameter@UnDecorator@@0P6APADJ@ZA 00608f9c     LIBCMTD:undname.obj
 0004:00005fa0       ?fExplicitTemplateParams@UnDecorator@@0_NA 00608fa0     LIBCMTD:undname.obj
 0004:00005fa1       ?fGetTemplateArgumentList@UnDecorator@@0_NA 00608fa1     LIBCMTD:undname.obj
 0004:00006010       ?nodes@?1??make@DNameStatusNode@@SAPAV2@W4DNameStatus@@@Z@4PAV2@A 00609010     LIBCMTD:undname.obj
 0004:0000604c       ??_B?1??make@DNameStatusNode@@SAPAV1@W4DNameStatus@@@Z@51 0060904c     LIBCMTD:undname.obj
 0004:00006060       _errortext                 00609060     <common>
 0004:000061d0       _p_Dec                     006091d0     <common>
 0004:000061e0       _cfgparams                 006091e0     <common>
 0004:000074d8       _ColorComponent            0060a4d8     <common>
 0004:000074e4       __pmatherr                 0060a4e4     <common>
 0004:000074f0       __pfnReportHook            0060a4f0     <common>
 0004:00007500       __pReportHookListW         0060a500     <common>
 0004:00007504       __pReportHookList          0060a504     <common>
 0004:00007508       ___sbh_initialized         0060a508     <common>
 0004:0000751c       ___sbh_cntHeaderList       0060a51c     <common>
 0004:00007520       ___sbh_pHeaderList         0060a520     <common>
 0004:00007524       ___sbh_threshold           0060a524     <common>
 0004:00007528       ___sbh_pHeaderScan         0060a528     <common>
 0004:0000752c       ___sbh_sizeHeaderList      0060a52c     <common>
 0004:00007530       ___sbh_indGroupDefer       0060a530     <common>
 0004:00007534       __debugger_hook_dummy      0060a534     <common>
 0004:00007540       ___active_heap             0060a540     <common>
 0004:0000754c       ___setlc_active            0060a54c     <common>
 0004:0000755c       ___unguarded_readlc_active 0060a55c     <common>
 0004:00007560       ___use_sse2_mathfcns       0060a560     <common>
 0004:0000756c       __nhandle                  0060a56c     <common>
 0004:000075c0       ___pioinfo                 0060a5c0     <common>
 0004:000076c0       ___sse2_available          0060a6c0     <common>
 0004:000076cc       __acmdln                   0060a6cc     <common>
 0004:000076d8       ___piob                    0060a6d8     <common>
 0004:00007a20       __bufin                    0060aa20     <common>
 0004:00008a20       __nstream                  0060ba20     <common>
 0004:00008a24       ___env_initialized         0060ba24     <common>
 0004:00008a34       ___onexitend               0060ba34     <common>
 0004:00008a38       ___onexitbegin             0060ba38     <common>
 0004:00008a3c       ___mbctype_initialized     0060ba3c     <common>
 0004:00008a40       ___dyn_tls_init_callback   0060ba40     <common>
 0005:00000000       __IMPORT_DESCRIPTOR_WS2_32 0060c000     Ws2_32:WS2_32.dll
 0005:00000014       __IMPORT_DESCRIPTOR_KERNEL32 0060c014     kernel32:KERNEL32.dll
 0005:00000028       __NULL_IMPORT_DESCRIPTOR   0060c028     Ws2_32:WS2_32.dll
 0005:00000274       __imp__RtlUnwind@16        0060c274     kernel32:KERNEL32.dll
 0005:00000278       __imp__CompareStringW@24   0060c278     kernel32:KERNEL32.dll
 0005:0000027c       __imp__CompareStringA@24   0060c27c     kernel32:KERNEL32.dll
 0005:00000280       __imp__QueryPerformanceCounter@4 0060c280     kernel32:KERNEL32.dll
 0005:00000284       __imp__QueryPerformanceFrequency@4 0060c284     kernel32:KERNEL32.dll
 0005:00000288       __imp__MultiByteToWideChar@24 0060c288     kernel32:KERNEL32.dll
 0005:0000028c       __imp__GetLastError@0      0060c28c     kernel32:KERNEL32.dll
 0005:00000290       __imp__ReadFile@20         0060c290     kernel32:KERNEL32.dll
 0005:00000294       __imp__CloseHandle@4       0060c294     kernel32:KERNEL32.dll
 0005:00000298       __imp__GetFileType@4       0060c298     kernel32:KERNEL32.dll
 0005:0000029c       __imp__CreateFileA@28      0060c29c     kernel32:KERNEL32.dll
 0005:000002a0       __imp__GetModuleHandleW@4  0060c2a0     kernel32:KERNEL32.dll
 0005:000002a4       __imp__Sleep@4             0060c2a4     kernel32:KERNEL32.dll
 0005:000002a8       __imp__InterlockedIncrement@4 0060c2a8     kernel32:KERNEL32.dll
 0005:000002ac       __imp__InterlockedDecrement@4 0060c2ac     kernel32:KERNEL32.dll
 0005:000002b0       __imp__GetProcAddress@8    0060c2b0     kernel32:KERNEL32.dll
 0005:000002b4       __imp__ExitProcess@4       0060c2b4     kernel32:KERNEL32.dll
 0005:000002b8       __imp__EnterCriticalSection@4 0060c2b8     kernel32:KERNEL32.dll
 0005:000002bc       __imp__LeaveCriticalSection@4 0060c2bc     kernel32:KERNEL32.dll
 0005:000002c0       __imp__WriteFile@20        0060c2c0     kernel32:KERNEL32.dll
 0005:000002c4       __imp__WideCharToMultiByte@32 0060c2c4     kernel32:KERNEL32.dll
 0005:000002c8       __imp__GetConsoleCP@0      0060c2c8     kernel32:KERNEL32.dll
 0005:000002cc       __imp__GetConsoleMode@8    0060c2cc     kernel32:KERNEL32.dll
 0005:000002d0       __imp__GetModuleFileNameW@12 0060c2d0     kernel32:KERNEL32.dll
 0005:000002d4       __imp__WriteConsoleW@20    0060c2d4     kernel32:KERNEL32.dll
 0005:000002d8       __imp__GetStdHandle@4      0060c2d8     kernel32:KERNEL32.dll
 0005:000002dc       __imp__SetFilePointer@16   0060c2dc     kernel32:KERNEL32.dll
 0005:000002e0       __imp__GetLocalTime@4      0060c2e0     kernel32:KERNEL32.dll
 0005:000002e4       __imp__GetCommandLineA@0   0060c2e4     kernel32:KERNEL32.dll
 0005:000002e8       __imp__HeapValidate@12     0060c2e8     kernel32:KERNEL32.dll
 0005:000002ec       __imp__IsBadReadPtr@8      0060c2ec     kernel32:KERNEL32.dll
 0005:000002f0       __imp__TerminateProcess@8  0060c2f0     kernel32:KERNEL32.dll
 0005:000002f4       __imp__GetCurrentProcess@0 0060c2f4     kernel32:KERNEL32.dll
 0005:000002f8       __imp__UnhandledExceptionFilter@4 0060c2f8     kernel32:KERNEL32.dll
 0005:000002fc       __imp__SetUnhandledExceptionFilter@4 0060c2fc     kernel32:KERNEL32.dll
 0005:00000300       __imp__IsDebuggerPresent@0 0060c300     kernel32:KERNEL32.dll
 0005:00000304       __imp__RaiseException@16   0060c304     kernel32:KERNEL32.dll
 0005:00000308       __imp__DebugBreak@0        0060c308     kernel32:KERNEL32.dll
 0005:0000030c       __imp__lstrlenA@4          0060c30c     kernel32:KERNEL32.dll
 0005:00000310       __imp__LoadLibraryA@4      0060c310     kernel32:KERNEL32.dll
 0005:00000314       __imp__SetStdHandle@8      0060c314     kernel32:KERNEL32.dll
 0005:00000318       __imp__SetHandleCount@4    0060c318     kernel32:KERNEL32.dll
 0005:0000031c       __imp__GetStartupInfoA@4   0060c31c     kernel32:KERNEL32.dll
 0005:00000320       __imp__DeleteCriticalSection@4 0060c320     kernel32:KERNEL32.dll
 0005:00000324       __imp__SetEndOfFile@4      0060c324     kernel32:KERNEL32.dll
 0005:00000328       __imp__HeapFree@12         0060c328     kernel32:KERNEL32.dll
 0005:0000032c       __imp__HeapAlloc@12        0060c32c     kernel32:KERNEL32.dll
 0005:00000330       __imp__GetProcessHeap@0    0060c330     kernel32:KERNEL32.dll
 0005:00000334       __imp__InterlockedExchange@8 0060c334     kernel32:KERNEL32.dll
 0005:00000338       __imp__GetModuleHandleA@4  0060c338     kernel32:KERNEL32.dll
 0005:0000033c       __imp__SetEnvironmentVariableA@8 0060c33c     kernel32:KERNEL32.dll
 0005:00000340       __imp__TlsGetValue@4       0060c340     kernel32:KERNEL32.dll
 0005:00000344       __imp__TlsAlloc@0          0060c344     kernel32:KERNEL32.dll
 0005:00000348       __imp__TlsSetValue@8       0060c348     kernel32:KERNEL32.dll
 0005:0000034c       __imp__GetCurrentThreadId@0 0060c34c     kernel32:KERNEL32.dll
 0005:00000350       __imp__TlsFree@4           0060c350     kernel32:KERNEL32.dll
 0005:00000354       __imp__SetLastError@4      0060c354     kernel32:KERNEL32.dll
 0005:00000358       __imp__GetCurrentThread@0  0060c358     kernel32:KERNEL32.dll
 0005:0000035c       __imp__GetModuleFileNameA@12 0060c35c     kernel32:KERNEL32.dll
 0005:00000360       __imp__GetACP@0            0060c360     kernel32:KERNEL32.dll
 0005:00000364       __imp__GetOEMCP@0          0060c364     kernel32:KERNEL32.dll
 0005:00000368       __imp__GetCPInfo@8         0060c368     kernel32:KERNEL32.dll
 0005:0000036c       __imp__IsValidCodePage@4   0060c36c     kernel32:KERNEL32.dll
 0005:00000370       __imp__FatalAppExitA@8     0060c370     kernel32:KERNEL32.dll
 0005:00000374       __imp__SetConsoleCtrlHandler@8 0060c374     kernel32:KERNEL32.dll
 0005:00000378       __imp__FreeLibrary@4       0060c378     kernel32:KERNEL32.dll
 0005:0000037c       __imp__InitializeCriticalSectionAndSpinCount@8 0060c37c     kernel32:KERNEL32.dll
 0005:00000380       __imp__WriteConsoleA@20    0060c380     kernel32:KERNEL32.dll
 0005:00000384       __imp__GetConsoleOutputCP@0 0060c384     kernel32:KERNEL32.dll
 0005:00000388       __imp__LoadLibraryW@4      0060c388     kernel32:KERNEL32.dll
 0005:0000038c       __imp__FlushFileBuffers@4  0060c38c     kernel32:KERNEL32.dll
 0005:00000390       __imp__GetTickCount@0      0060c390     kernel32:KERNEL32.dll
 0005:00000394       __imp__GetCurrentProcessId@0 0060c394     kernel32:KERNEL32.dll
 0005:00000398       __imp__GetSystemTimeAsFileTime@4 0060c398     kernel32:KERNEL32.dll
 0005:0000039c       __imp__FreeEnvironmentStringsA@4 0060c39c     kernel32:KERNEL32.dll
 0005:000003a0       __imp__GetEnvironmentStrings@0 0060c3a0     kernel32:KERNEL32.dll
 0005:000003a4       __imp__FreeEnvironmentStringsW@4 0060c3a4     kernel32:KERNEL32.dll
 0005:000003a8       __imp__GetEnvironmentStringsW@0 0060c3a8     kernel32:KERNEL32.dll
 0005:000003ac       __imp__HeapDestroy@4       0060c3ac     kernel32:KERNEL32.dll
 0005:000003b0       __imp__HeapCreate@12       0060c3b0     kernel32:KERNEL32.dll
 0005:000003b4       __imp__VirtualFree@12      0060c3b4     kernel32:KERNEL32.dll
 0005:000003b8       __imp__HeapSize@12         0060c3b8     kernel32:KERNEL32.dll
 0005:000003bc       __imp__HeapReAlloc@16      0060c3bc     kernel32:KERNEL32.dll
 0005:000003c0       __imp__VirtualAlloc@16     0060c3c0     kernel32:KERNEL32.dll
 0005:000003c4       __imp__OutputDebugStringA@4 0060c3c4     kernel32:KERNEL32.dll
 0005:000003c8       __imp__OutputDebugStringW@4 0060c3c8     kernel32:KERNEL32.dll
 0005:000003cc       __imp__VirtualQuery@12     0060c3cc     kernel32:KERNEL32.dll
 0005:000003d0       __imp__LCMapStringA@24     0060c3d0     kernel32:KERNEL32.dll
 0005:000003d4       __imp__LCMapStringW@24     0060c3d4     kernel32:KERNEL32.dll
 0005:000003d8       __imp__GetStringTypeA@20   0060c3d8     kernel32:KERNEL32.dll
 0005:000003dc       __imp__GetStringTypeW@16   0060c3dc     kernel32:KERNEL32.dll
 0005:000003e0       __imp__GetLocaleInfoW@16   0060c3e0     kernel32:KERNEL32.dll
 0005:000003e4       __imp__GetLocaleInfoA@16   0060c3e4     kernel32:KERNEL32.dll
 0005:000003e8       __imp__GetTimeFormatA@24   0060c3e8     kernel32:KERNEL32.dll
 0005:000003ec       __imp__GetDateFormatA@24   0060c3ec     kernel32:KERNEL32.dll
 0005:000003f0       __imp__IsValidLocale@8     0060c3f0     kernel32:KERNEL32.dll
 0005:000003f4       __imp__EnumSystemLocalesA@8 0060c3f4     kernel32:KERNEL32.dll
 0005:000003f8       __imp__GetUserDefaultLCID@0 0060c3f8     kernel32:KERNEL32.dll
 0005:000003fc       __imp__GetTimeZoneInformation@4 0060c3fc     kernel32:KERNEL32.dll
 0005:00000400       \177KERNEL32_NULL_THUNK_DATA 0060c400     kernel32:KERNEL32.dll
 0005:00000478       __imp__ntohs@4             0060c478     Ws2_32:WS2_32.dll
 0005:0000047c       __imp__ntohl@4             0060c47c     Ws2_32:WS2_32.dll
 0005:00000480       \177WS2_32_NULL_THUNK_DATA 0060c480     Ws2_32:WS2_32.dll

 entry point at        0002:00000e97

